
lab_2.axf:     file format elf32-littlearm


Disassembly of section .isr_vector:

08000000 <g_pfnVectors>:
 8000000:	20005000 	andcs	r5, r0, r0
 8000004:	08000a21 	stmdaeq	r0, {r0, r5, r9, fp}
 8000008:	08000a71 	stmdaeq	r0, {r0, r4, r5, r6, r9, fp}
 800000c:	08000a71 	stmdaeq	r0, {r0, r4, r5, r6, r9, fp}
 8000010:	08000a71 	stmdaeq	r0, {r0, r4, r5, r6, r9, fp}
 8000014:	08000a71 	stmdaeq	r0, {r0, r4, r5, r6, r9, fp}
 8000018:	08000a71 	stmdaeq	r0, {r0, r4, r5, r6, r9, fp}
	...
 800002c:	08000a71 	stmdaeq	r0, {r0, r4, r5, r6, r9, fp}
 8000030:	08000a71 	stmdaeq	r0, {r0, r4, r5, r6, r9, fp}
 8000034:	00000000 	andeq	r0, r0, r0
 8000038:	08000a71 	stmdaeq	r0, {r0, r4, r5, r6, r9, fp}
 800003c:	08000a71 	stmdaeq	r0, {r0, r4, r5, r6, r9, fp}
 8000040:	08000a71 	stmdaeq	r0, {r0, r4, r5, r6, r9, fp}
 8000044:	08000a71 	stmdaeq	r0, {r0, r4, r5, r6, r9, fp}
 8000048:	08000a71 	stmdaeq	r0, {r0, r4, r5, r6, r9, fp}
 800004c:	08000a71 	stmdaeq	r0, {r0, r4, r5, r6, r9, fp}
 8000050:	08000a71 	stmdaeq	r0, {r0, r4, r5, r6, r9, fp}
 8000054:	08000a71 	stmdaeq	r0, {r0, r4, r5, r6, r9, fp}
 8000058:	080004f9 	stmdaeq	r0, {r0, r3, r4, r5, r6, r7, sl}
 800005c:	0800051d 	stmdaeq	r0, {r0, r2, r3, r4, r8, sl}
 8000060:	08000541 	stmdaeq	r0, {r0, r6, r8, sl}
 8000064:	08000565 	stmdaeq	r0, {r0, r2, r5, r6, r8, sl}
 8000068:	08000589 	stmdaeq	r0, {r0, r3, r7, r8, sl}
 800006c:	08000a71 	stmdaeq	r0, {r0, r4, r5, r6, r9, fp}
 8000070:	08000a71 	stmdaeq	r0, {r0, r4, r5, r6, r9, fp}
 8000074:	08000a71 	stmdaeq	r0, {r0, r4, r5, r6, r9, fp}
 8000078:	08000a71 	stmdaeq	r0, {r0, r4, r5, r6, r9, fp}
 800007c:	08000a71 	stmdaeq	r0, {r0, r4, r5, r6, r9, fp}
 8000080:	08000a71 	stmdaeq	r0, {r0, r4, r5, r6, r9, fp}
 8000084:	08000a71 	stmdaeq	r0, {r0, r4, r5, r6, r9, fp}
 8000088:	08000a71 	stmdaeq	r0, {r0, r4, r5, r6, r9, fp}
 800008c:	08000a71 	stmdaeq	r0, {r0, r4, r5, r6, r9, fp}
 8000090:	08000a71 	stmdaeq	r0, {r0, r4, r5, r6, r9, fp}
 8000094:	08000a71 	stmdaeq	r0, {r0, r4, r5, r6, r9, fp}
 8000098:	08000a71 	stmdaeq	r0, {r0, r4, r5, r6, r9, fp}
 800009c:	080005ad 	stmdaeq	r0, {r0, r2, r3, r5, r7, r8, sl}
 80000a0:	08000a71 	stmdaeq	r0, {r0, r4, r5, r6, r9, fp}
 80000a4:	08000a71 	stmdaeq	r0, {r0, r4, r5, r6, r9, fp}
 80000a8:	08000a71 	stmdaeq	r0, {r0, r4, r5, r6, r9, fp}
 80000ac:	08000a71 	stmdaeq	r0, {r0, r4, r5, r6, r9, fp}
 80000b0:	08000a71 	stmdaeq	r0, {r0, r4, r5, r6, r9, fp}
 80000b4:	08000a71 	stmdaeq	r0, {r0, r4, r5, r6, r9, fp}
 80000b8:	08000a71 	stmdaeq	r0, {r0, r4, r5, r6, r9, fp}
 80000bc:	08000a71 	stmdaeq	r0, {r0, r4, r5, r6, r9, fp}
 80000c0:	08000a71 	stmdaeq	r0, {r0, r4, r5, r6, r9, fp}
 80000c4:	08000a71 	stmdaeq	r0, {r0, r4, r5, r6, r9, fp}
 80000c8:	08000a71 	stmdaeq	r0, {r0, r4, r5, r6, r9, fp}
 80000cc:	08000a71 	stmdaeq	r0, {r0, r4, r5, r6, r9, fp}
 80000d0:	08000a71 	stmdaeq	r0, {r0, r4, r5, r6, r9, fp}
 80000d4:	08000a71 	stmdaeq	r0, {r0, r4, r5, r6, r9, fp}
 80000d8:	08000a71 	stmdaeq	r0, {r0, r4, r5, r6, r9, fp}
 80000dc:	08000a71 	stmdaeq	r0, {r0, r4, r5, r6, r9, fp}
 80000e0:	08000655 	stmdaeq	r0, {r0, r2, r4, r6, r9, sl}
 80000e4:	08000a71 	stmdaeq	r0, {r0, r4, r5, r6, r9, fp}
 80000e8:	00000000 	andeq	r0, r0, r0
 80000ec:	08000a71 	stmdaeq	r0, {r0, r4, r5, r6, r9, fp}
 80000f0:	08000a71 	stmdaeq	r0, {r0, r4, r5, r6, r9, fp}
 80000f4:	08000a71 	stmdaeq	r0, {r0, r4, r5, r6, r9, fp}
 80000f8:	08000a71 	stmdaeq	r0, {r0, r4, r5, r6, r9, fp}
 80000fc:	08000a71 	stmdaeq	r0, {r0, r4, r5, r6, r9, fp}
 8000100:	08000a71 	stmdaeq	r0, {r0, r4, r5, r6, r9, fp}
 8000104:	08000a71 	stmdaeq	r0, {r0, r4, r5, r6, r9, fp}
 8000108:	08000a71 	stmdaeq	r0, {r0, r4, r5, r6, r9, fp}
 800010c:	08000a71 	stmdaeq	r0, {r0, r4, r5, r6, r9, fp}
 8000110:	08000a71 	stmdaeq	r0, {r0, r4, r5, r6, r9, fp}
 8000114:	08000a71 	stmdaeq	r0, {r0, r4, r5, r6, r9, fp}
 8000118:	08000a71 	stmdaeq	r0, {r0, r4, r5, r6, r9, fp}
 800011c:	08000a71 	stmdaeq	r0, {r0, r4, r5, r6, r9, fp}
 8000120:	08000a71 	stmdaeq	r0, {r0, r4, r5, r6, r9, fp}
 8000124:	08000a71 	stmdaeq	r0, {r0, r4, r5, r6, r9, fp}
 8000128:	08000a71 	stmdaeq	r0, {r0, r4, r5, r6, r9, fp}
 800012c:	08000a71 	stmdaeq	r0, {r0, r4, r5, r6, r9, fp}

Disassembly of section .text:

08000130 <__do_global_dtors_aux>:
 8000130:	b510      	push	{r4, lr}
 8000132:	4c05      	ldr	r4, [pc, #20]	; (8000148 <__do_global_dtors_aux+0x18>)
 8000134:	7823      	ldrb	r3, [r4, #0]
 8000136:	b933      	cbnz	r3, 8000146 <__do_global_dtors_aux+0x16>
 8000138:	4b04      	ldr	r3, [pc, #16]	; (800014c <__do_global_dtors_aux+0x1c>)
 800013a:	b113      	cbz	r3, 8000142 <__do_global_dtors_aux+0x12>
 800013c:	4804      	ldr	r0, [pc, #16]	; (8000150 <__do_global_dtors_aux+0x20>)
 800013e:	f3af 8000 	nop.w
 8000142:	2301      	movs	r3, #1
 8000144:	7023      	strb	r3, [r4, #0]
 8000146:	bd10      	pop	{r4, pc}
 8000148:	20000000 	andcs	r0, r0, r0
 800014c:	00000000 	andeq	r0, r0, r0
 8000150:	08000abc 	stmdaeq	r0, {r2, r3, r4, r5, r7, r9, fp}

08000154 <frame_dummy>:
 8000154:	b508      	push	{r3, lr}
 8000156:	4b03      	ldr	r3, [pc, #12]	; (8000164 <frame_dummy+0x10>)
 8000158:	b11b      	cbz	r3, 8000162 <frame_dummy+0xe>
 800015a:	4903      	ldr	r1, [pc, #12]	; (8000168 <frame_dummy+0x14>)
 800015c:	4803      	ldr	r0, [pc, #12]	; (800016c <frame_dummy+0x18>)
 800015e:	f3af 8000 	nop.w
 8000162:	bd08      	pop	{r3, pc}
 8000164:	00000000 	andeq	r0, r0, r0
 8000168:	20000004 	andcs	r0, r0, r4
 800016c:	08000abc 	stmdaeq	r0, {r2, r3, r4, r5, r7, r9, fp}

08000170 <Enable_NVIC>:
 8000170:	b480      	push	{r7}
 8000172:	b083      	sub	sp, #12
 8000174:	af00      	add	r7, sp, #0
 8000176:	4603      	mov	r3, r0
 8000178:	80fb      	strh	r3, [r7, #6]
 800017a:	88fb      	ldrh	r3, [r7, #6]
 800017c:	2b0f      	cmp	r3, #15
 800017e:	d854      	bhi.n	800022a <Enable_NVIC+0xba>
 8000180:	a201      	add	r2, pc, #4	; (adr r2, 8000188 <Enable_NVIC+0x18>)
 8000182:	f852 f023 	ldr.w	pc, [r2, r3, lsl #2]
 8000186:	bf00      	nop
 8000188:	080001c9 	stmdaeq	r0, {r0, r3, r6, r7, r8}
 800018c:	080001d7 	stmdaeq	r0, {r0, r1, r2, r4, r6, r7, r8}
 8000190:	080001e5 	stmdaeq	r0, {r0, r2, r5, r6, r7, r8}
 8000194:	080001f3 	stmdaeq	r0, {r0, r1, r4, r5, r6, r7, r8}
 8000198:	08000201 	stmdaeq	r0, {r0, r9}
 800019c:	0800020f 	stmdaeq	r0, {r0, r1, r2, r3, r9}
 80001a0:	0800020f 	stmdaeq	r0, {r0, r1, r2, r3, r9}
 80001a4:	0800020f 	stmdaeq	r0, {r0, r1, r2, r3, r9}
 80001a8:	0800020f 	stmdaeq	r0, {r0, r1, r2, r3, r9}
 80001ac:	0800020f 	stmdaeq	r0, {r0, r1, r2, r3, r9}
 80001b0:	0800021d 	stmdaeq	r0, {r0, r2, r3, r4, r9}
 80001b4:	0800021d 	stmdaeq	r0, {r0, r2, r3, r4, r9}
 80001b8:	0800021d 	stmdaeq	r0, {r0, r2, r3, r4, r9}
 80001bc:	0800021d 	stmdaeq	r0, {r0, r2, r3, r4, r9}
 80001c0:	0800021d 	stmdaeq	r0, {r0, r2, r3, r4, r9}
 80001c4:	0800021d 	stmdaeq	r0, {r0, r2, r3, r4, r9}
 80001c8:	4b1a      	ldr	r3, [pc, #104]	; (8000234 <Enable_NVIC+0xc4>)
 80001ca:	681b      	ldr	r3, [r3, #0]
 80001cc:	4a19      	ldr	r2, [pc, #100]	; (8000234 <Enable_NVIC+0xc4>)
 80001ce:	f043 0340 	orr.w	r3, r3, #64	; 0x40
 80001d2:	6013      	str	r3, [r2, #0]
 80001d4:	e029      	b.n	800022a <Enable_NVIC+0xba>
 80001d6:	4b17      	ldr	r3, [pc, #92]	; (8000234 <Enable_NVIC+0xc4>)
 80001d8:	681b      	ldr	r3, [r3, #0]
 80001da:	4a16      	ldr	r2, [pc, #88]	; (8000234 <Enable_NVIC+0xc4>)
 80001dc:	f043 0380 	orr.w	r3, r3, #128	; 0x80
 80001e0:	6013      	str	r3, [r2, #0]
 80001e2:	e022      	b.n	800022a <Enable_NVIC+0xba>
 80001e4:	4b13      	ldr	r3, [pc, #76]	; (8000234 <Enable_NVIC+0xc4>)
 80001e6:	681b      	ldr	r3, [r3, #0]
 80001e8:	4a12      	ldr	r2, [pc, #72]	; (8000234 <Enable_NVIC+0xc4>)
 80001ea:	f443 7380 	orr.w	r3, r3, #256	; 0x100
 80001ee:	6013      	str	r3, [r2, #0]
 80001f0:	e01b      	b.n	800022a <Enable_NVIC+0xba>
 80001f2:	4b10      	ldr	r3, [pc, #64]	; (8000234 <Enable_NVIC+0xc4>)
 80001f4:	681b      	ldr	r3, [r3, #0]
 80001f6:	4a0f      	ldr	r2, [pc, #60]	; (8000234 <Enable_NVIC+0xc4>)
 80001f8:	f443 7300 	orr.w	r3, r3, #512	; 0x200
 80001fc:	6013      	str	r3, [r2, #0]
 80001fe:	e014      	b.n	800022a <Enable_NVIC+0xba>
 8000200:	4b0c      	ldr	r3, [pc, #48]	; (8000234 <Enable_NVIC+0xc4>)
 8000202:	681b      	ldr	r3, [r3, #0]
 8000204:	4a0b      	ldr	r2, [pc, #44]	; (8000234 <Enable_NVIC+0xc4>)
 8000206:	f443 6380 	orr.w	r3, r3, #1024	; 0x400
 800020a:	6013      	str	r3, [r2, #0]
 800020c:	e00d      	b.n	800022a <Enable_NVIC+0xba>
 800020e:	4b09      	ldr	r3, [pc, #36]	; (8000234 <Enable_NVIC+0xc4>)
 8000210:	681b      	ldr	r3, [r3, #0]
 8000212:	4a08      	ldr	r2, [pc, #32]	; (8000234 <Enable_NVIC+0xc4>)
 8000214:	f443 0300 	orr.w	r3, r3, #8388608	; 0x800000
 8000218:	6013      	str	r3, [r2, #0]
 800021a:	e006      	b.n	800022a <Enable_NVIC+0xba>
 800021c:	4b06      	ldr	r3, [pc, #24]	; (8000238 <Enable_NVIC+0xc8>)
 800021e:	681b      	ldr	r3, [r3, #0]
 8000220:	4a05      	ldr	r2, [pc, #20]	; (8000238 <Enable_NVIC+0xc8>)
 8000222:	f443 7380 	orr.w	r3, r3, #256	; 0x100
 8000226:	6013      	str	r3, [r2, #0]
 8000228:	bf00      	nop
 800022a:	bf00      	nop
 800022c:	370c      	adds	r7, #12
 800022e:	46bd      	mov	sp, r7
 8000230:	bc80      	pop	{r7}
 8000232:	4770      	bx	lr
 8000234:	e000e100 	and	lr, r0, r0, lsl #2
 8000238:	e000e104 	and	lr, r0, r4, lsl #2

0800023c <Disable_NVIC>:
 800023c:	b480      	push	{r7}
 800023e:	b083      	sub	sp, #12
 8000240:	af00      	add	r7, sp, #0
 8000242:	4603      	mov	r3, r0
 8000244:	80fb      	strh	r3, [r7, #6]
 8000246:	88fb      	ldrh	r3, [r7, #6]
 8000248:	2b0f      	cmp	r3, #15
 800024a:	d854      	bhi.n	80002f6 <Disable_NVIC+0xba>
 800024c:	a201      	add	r2, pc, #4	; (adr r2, 8000254 <Disable_NVIC+0x18>)
 800024e:	f852 f023 	ldr.w	pc, [r2, r3, lsl #2]
 8000252:	bf00      	nop
 8000254:	08000295 	stmdaeq	r0, {r0, r2, r4, r7, r9}
 8000258:	080002a3 	stmdaeq	r0, {r0, r1, r5, r7, r9}
 800025c:	080002b1 	stmdaeq	r0, {r0, r4, r5, r7, r9}
 8000260:	080002bf 	stmdaeq	r0, {r0, r1, r2, r3, r4, r5, r7, r9}
 8000264:	080002cd 	stmdaeq	r0, {r0, r2, r3, r6, r7, r9}
 8000268:	080002db 	stmdaeq	r0, {r0, r1, r3, r4, r6, r7, r9}
 800026c:	080002db 	stmdaeq	r0, {r0, r1, r3, r4, r6, r7, r9}
 8000270:	080002db 	stmdaeq	r0, {r0, r1, r3, r4, r6, r7, r9}
 8000274:	080002db 	stmdaeq	r0, {r0, r1, r3, r4, r6, r7, r9}
 8000278:	080002db 	stmdaeq	r0, {r0, r1, r3, r4, r6, r7, r9}
 800027c:	080002e9 	stmdaeq	r0, {r0, r3, r5, r6, r7, r9}
 8000280:	080002e9 	stmdaeq	r0, {r0, r3, r5, r6, r7, r9}
 8000284:	080002e9 	stmdaeq	r0, {r0, r3, r5, r6, r7, r9}
 8000288:	080002e9 	stmdaeq	r0, {r0, r3, r5, r6, r7, r9}
 800028c:	080002e9 	stmdaeq	r0, {r0, r3, r5, r6, r7, r9}
 8000290:	080002e9 	stmdaeq	r0, {r0, r3, r5, r6, r7, r9}
 8000294:	4b1a      	ldr	r3, [pc, #104]	; (8000300 <Disable_NVIC+0xc4>)
 8000296:	681b      	ldr	r3, [r3, #0]
 8000298:	4a19      	ldr	r2, [pc, #100]	; (8000300 <Disable_NVIC+0xc4>)
 800029a:	f043 0340 	orr.w	r3, r3, #64	; 0x40
 800029e:	6013      	str	r3, [r2, #0]
 80002a0:	e029      	b.n	80002f6 <Disable_NVIC+0xba>
 80002a2:	4b17      	ldr	r3, [pc, #92]	; (8000300 <Disable_NVIC+0xc4>)
 80002a4:	681b      	ldr	r3, [r3, #0]
 80002a6:	4a16      	ldr	r2, [pc, #88]	; (8000300 <Disable_NVIC+0xc4>)
 80002a8:	f043 0380 	orr.w	r3, r3, #128	; 0x80
 80002ac:	6013      	str	r3, [r2, #0]
 80002ae:	e022      	b.n	80002f6 <Disable_NVIC+0xba>
 80002b0:	4b13      	ldr	r3, [pc, #76]	; (8000300 <Disable_NVIC+0xc4>)
 80002b2:	681b      	ldr	r3, [r3, #0]
 80002b4:	4a12      	ldr	r2, [pc, #72]	; (8000300 <Disable_NVIC+0xc4>)
 80002b6:	f443 7380 	orr.w	r3, r3, #256	; 0x100
 80002ba:	6013      	str	r3, [r2, #0]
 80002bc:	e01b      	b.n	80002f6 <Disable_NVIC+0xba>
 80002be:	4b10      	ldr	r3, [pc, #64]	; (8000300 <Disable_NVIC+0xc4>)
 80002c0:	681b      	ldr	r3, [r3, #0]
 80002c2:	4a0f      	ldr	r2, [pc, #60]	; (8000300 <Disable_NVIC+0xc4>)
 80002c4:	f443 7300 	orr.w	r3, r3, #512	; 0x200
 80002c8:	6013      	str	r3, [r2, #0]
 80002ca:	e014      	b.n	80002f6 <Disable_NVIC+0xba>
 80002cc:	4b0c      	ldr	r3, [pc, #48]	; (8000300 <Disable_NVIC+0xc4>)
 80002ce:	681b      	ldr	r3, [r3, #0]
 80002d0:	4a0b      	ldr	r2, [pc, #44]	; (8000300 <Disable_NVIC+0xc4>)
 80002d2:	f443 6380 	orr.w	r3, r3, #1024	; 0x400
 80002d6:	6013      	str	r3, [r2, #0]
 80002d8:	e00d      	b.n	80002f6 <Disable_NVIC+0xba>
 80002da:	4b09      	ldr	r3, [pc, #36]	; (8000300 <Disable_NVIC+0xc4>)
 80002dc:	681b      	ldr	r3, [r3, #0]
 80002de:	4a08      	ldr	r2, [pc, #32]	; (8000300 <Disable_NVIC+0xc4>)
 80002e0:	f443 0300 	orr.w	r3, r3, #8388608	; 0x800000
 80002e4:	6013      	str	r3, [r2, #0]
 80002e6:	e006      	b.n	80002f6 <Disable_NVIC+0xba>
 80002e8:	4b06      	ldr	r3, [pc, #24]	; (8000304 <Disable_NVIC+0xc8>)
 80002ea:	681b      	ldr	r3, [r3, #0]
 80002ec:	4a05      	ldr	r2, [pc, #20]	; (8000304 <Disable_NVIC+0xc8>)
 80002ee:	f443 7380 	orr.w	r3, r3, #256	; 0x100
 80002f2:	6013      	str	r3, [r2, #0]
 80002f4:	bf00      	nop
 80002f6:	bf00      	nop
 80002f8:	370c      	adds	r7, #12
 80002fa:	46bd      	mov	sp, r7
 80002fc:	bc80      	pop	{r7}
 80002fe:	4770      	bx	lr
 8000300:	e000e180 	and	lr, r0, r0, lsl #3
 8000304:	e000e184 	and	lr, r0, r4, lsl #3

08000308 <Update_EXTI>:
 8000308:	b580      	push	{r7, lr}
 800030a:	b084      	sub	sp, #16
 800030c:	af00      	add	r7, sp, #0
 800030e:	6078      	str	r0, [r7, #4]
 8000310:	687b      	ldr	r3, [r7, #4]
 8000312:	891b      	ldrh	r3, [r3, #8]
 8000314:	813b      	strh	r3, [r7, #8]
 8000316:	2308      	movs	r3, #8
 8000318:	72bb      	strb	r3, [r7, #10]
 800031a:	687b      	ldr	r3, [r7, #4]
 800031c:	685b      	ldr	r3, [r3, #4]
 800031e:	f107 0208 	add.w	r2, r7, #8
 8000322:	4611      	mov	r1, r2
 8000324:	4618      	mov	r0, r3
 8000326:	f000 faaf 	bl	8000888 <MCAL_GPIO_Init>
 800032a:	687b      	ldr	r3, [r7, #4]
 800032c:	881b      	ldrh	r3, [r3, #0]
 800032e:	089b      	lsrs	r3, r3, #2
 8000330:	b29b      	uxth	r3, r3
 8000332:	73fb      	strb	r3, [r7, #15]
 8000334:	687b      	ldr	r3, [r7, #4]
 8000336:	881b      	ldrh	r3, [r3, #0]
 8000338:	b2db      	uxtb	r3, r3
 800033a:	f003 0303 	and.w	r3, r3, #3
 800033e:	b2db      	uxtb	r3, r3
 8000340:	009b      	lsls	r3, r3, #2
 8000342:	73bb      	strb	r3, [r7, #14]
 8000344:	4a5f      	ldr	r2, [pc, #380]	; (80004c4 <Update_EXTI+0x1bc>)
 8000346:	7bfb      	ldrb	r3, [r7, #15]
 8000348:	3302      	adds	r3, #2
 800034a:	f852 2023 	ldr.w	r2, [r2, r3, lsl #2]
 800034e:	7bbb      	ldrb	r3, [r7, #14]
 8000350:	210f      	movs	r1, #15
 8000352:	fa01 f303 	lsl.w	r3, r1, r3
 8000356:	43db      	mvns	r3, r3
 8000358:	4618      	mov	r0, r3
 800035a:	495a      	ldr	r1, [pc, #360]	; (80004c4 <Update_EXTI+0x1bc>)
 800035c:	7bfb      	ldrb	r3, [r7, #15]
 800035e:	4002      	ands	r2, r0
 8000360:	3302      	adds	r3, #2
 8000362:	f841 2023 	str.w	r2, [r1, r3, lsl #2]
 8000366:	4a57      	ldr	r2, [pc, #348]	; (80004c4 <Update_EXTI+0x1bc>)
 8000368:	7bfb      	ldrb	r3, [r7, #15]
 800036a:	3302      	adds	r3, #2
 800036c:	f852 2023 	ldr.w	r2, [r2, r3, lsl #2]
 8000370:	687b      	ldr	r3, [r7, #4]
 8000372:	685b      	ldr	r3, [r3, #4]
 8000374:	4954      	ldr	r1, [pc, #336]	; (80004c8 <Update_EXTI+0x1c0>)
 8000376:	428b      	cmp	r3, r1
 8000378:	d016      	beq.n	80003a8 <Update_EXTI+0xa0>
 800037a:	687b      	ldr	r3, [r7, #4]
 800037c:	685b      	ldr	r3, [r3, #4]
 800037e:	4953      	ldr	r1, [pc, #332]	; (80004cc <Update_EXTI+0x1c4>)
 8000380:	428b      	cmp	r3, r1
 8000382:	d00f      	beq.n	80003a4 <Update_EXTI+0x9c>
 8000384:	687b      	ldr	r3, [r7, #4]
 8000386:	685b      	ldr	r3, [r3, #4]
 8000388:	4951      	ldr	r1, [pc, #324]	; (80004d0 <Update_EXTI+0x1c8>)
 800038a:	428b      	cmp	r3, r1
 800038c:	d008      	beq.n	80003a0 <Update_EXTI+0x98>
 800038e:	687b      	ldr	r3, [r7, #4]
 8000390:	685b      	ldr	r3, [r3, #4]
 8000392:	4950      	ldr	r1, [pc, #320]	; (80004d4 <Update_EXTI+0x1cc>)
 8000394:	428b      	cmp	r3, r1
 8000396:	d101      	bne.n	800039c <Update_EXTI+0x94>
 8000398:	2303      	movs	r3, #3
 800039a:	e006      	b.n	80003aa <Update_EXTI+0xa2>
 800039c:	2300      	movs	r3, #0
 800039e:	e004      	b.n	80003aa <Update_EXTI+0xa2>
 80003a0:	2302      	movs	r3, #2
 80003a2:	e002      	b.n	80003aa <Update_EXTI+0xa2>
 80003a4:	2301      	movs	r3, #1
 80003a6:	e000      	b.n	80003aa <Update_EXTI+0xa2>
 80003a8:	2300      	movs	r3, #0
 80003aa:	7bb9      	ldrb	r1, [r7, #14]
 80003ac:	408b      	lsls	r3, r1
 80003ae:	4618      	mov	r0, r3
 80003b0:	4944      	ldr	r1, [pc, #272]	; (80004c4 <Update_EXTI+0x1bc>)
 80003b2:	7bfb      	ldrb	r3, [r7, #15]
 80003b4:	4302      	orrs	r2, r0
 80003b6:	3302      	adds	r3, #2
 80003b8:	f841 2023 	str.w	r2, [r1, r3, lsl #2]
 80003bc:	4b46      	ldr	r3, [pc, #280]	; (80004d8 <Update_EXTI+0x1d0>)
 80003be:	689b      	ldr	r3, [r3, #8]
 80003c0:	687a      	ldr	r2, [r7, #4]
 80003c2:	8812      	ldrh	r2, [r2, #0]
 80003c4:	4611      	mov	r1, r2
 80003c6:	2201      	movs	r2, #1
 80003c8:	408a      	lsls	r2, r1
 80003ca:	43d2      	mvns	r2, r2
 80003cc:	4611      	mov	r1, r2
 80003ce:	4a42      	ldr	r2, [pc, #264]	; (80004d8 <Update_EXTI+0x1d0>)
 80003d0:	400b      	ands	r3, r1
 80003d2:	6093      	str	r3, [r2, #8]
 80003d4:	4b40      	ldr	r3, [pc, #256]	; (80004d8 <Update_EXTI+0x1d0>)
 80003d6:	68db      	ldr	r3, [r3, #12]
 80003d8:	687a      	ldr	r2, [r7, #4]
 80003da:	8812      	ldrh	r2, [r2, #0]
 80003dc:	4611      	mov	r1, r2
 80003de:	2201      	movs	r2, #1
 80003e0:	408a      	lsls	r2, r1
 80003e2:	43d2      	mvns	r2, r2
 80003e4:	4611      	mov	r1, r2
 80003e6:	4a3c      	ldr	r2, [pc, #240]	; (80004d8 <Update_EXTI+0x1d0>)
 80003e8:	400b      	ands	r3, r1
 80003ea:	60d3      	str	r3, [r2, #12]
 80003ec:	687b      	ldr	r3, [r7, #4]
 80003ee:	7b1b      	ldrb	r3, [r3, #12]
 80003f0:	2b00      	cmp	r3, #0
 80003f2:	d10b      	bne.n	800040c <Update_EXTI+0x104>
 80003f4:	4b38      	ldr	r3, [pc, #224]	; (80004d8 <Update_EXTI+0x1d0>)
 80003f6:	689b      	ldr	r3, [r3, #8]
 80003f8:	687a      	ldr	r2, [r7, #4]
 80003fa:	8812      	ldrh	r2, [r2, #0]
 80003fc:	4611      	mov	r1, r2
 80003fe:	2201      	movs	r2, #1
 8000400:	408a      	lsls	r2, r1
 8000402:	4611      	mov	r1, r2
 8000404:	4a34      	ldr	r2, [pc, #208]	; (80004d8 <Update_EXTI+0x1d0>)
 8000406:	430b      	orrs	r3, r1
 8000408:	6093      	str	r3, [r2, #8]
 800040a:	e029      	b.n	8000460 <Update_EXTI+0x158>
 800040c:	687b      	ldr	r3, [r7, #4]
 800040e:	7b1b      	ldrb	r3, [r3, #12]
 8000410:	2b01      	cmp	r3, #1
 8000412:	d10b      	bne.n	800042c <Update_EXTI+0x124>
 8000414:	4b30      	ldr	r3, [pc, #192]	; (80004d8 <Update_EXTI+0x1d0>)
 8000416:	68db      	ldr	r3, [r3, #12]
 8000418:	687a      	ldr	r2, [r7, #4]
 800041a:	8812      	ldrh	r2, [r2, #0]
 800041c:	4611      	mov	r1, r2
 800041e:	2201      	movs	r2, #1
 8000420:	408a      	lsls	r2, r1
 8000422:	4611      	mov	r1, r2
 8000424:	4a2c      	ldr	r2, [pc, #176]	; (80004d8 <Update_EXTI+0x1d0>)
 8000426:	430b      	orrs	r3, r1
 8000428:	60d3      	str	r3, [r2, #12]
 800042a:	e019      	b.n	8000460 <Update_EXTI+0x158>
 800042c:	687b      	ldr	r3, [r7, #4]
 800042e:	7b1b      	ldrb	r3, [r3, #12]
 8000430:	2b02      	cmp	r3, #2
 8000432:	d115      	bne.n	8000460 <Update_EXTI+0x158>
 8000434:	4b28      	ldr	r3, [pc, #160]	; (80004d8 <Update_EXTI+0x1d0>)
 8000436:	689b      	ldr	r3, [r3, #8]
 8000438:	687a      	ldr	r2, [r7, #4]
 800043a:	8812      	ldrh	r2, [r2, #0]
 800043c:	4611      	mov	r1, r2
 800043e:	2201      	movs	r2, #1
 8000440:	408a      	lsls	r2, r1
 8000442:	4611      	mov	r1, r2
 8000444:	4a24      	ldr	r2, [pc, #144]	; (80004d8 <Update_EXTI+0x1d0>)
 8000446:	430b      	orrs	r3, r1
 8000448:	6093      	str	r3, [r2, #8]
 800044a:	4b23      	ldr	r3, [pc, #140]	; (80004d8 <Update_EXTI+0x1d0>)
 800044c:	68db      	ldr	r3, [r3, #12]
 800044e:	687a      	ldr	r2, [r7, #4]
 8000450:	8812      	ldrh	r2, [r2, #0]
 8000452:	4611      	mov	r1, r2
 8000454:	2201      	movs	r2, #1
 8000456:	408a      	lsls	r2, r1
 8000458:	4611      	mov	r1, r2
 800045a:	4a1f      	ldr	r2, [pc, #124]	; (80004d8 <Update_EXTI+0x1d0>)
 800045c:	430b      	orrs	r3, r1
 800045e:	60d3      	str	r3, [r2, #12]
 8000460:	687b      	ldr	r3, [r7, #4]
 8000462:	881b      	ldrh	r3, [r3, #0]
 8000464:	4619      	mov	r1, r3
 8000466:	687b      	ldr	r3, [r7, #4]
 8000468:	691b      	ldr	r3, [r3, #16]
 800046a:	4a1c      	ldr	r2, [pc, #112]	; (80004dc <Update_EXTI+0x1d4>)
 800046c:	f842 3021 	str.w	r3, [r2, r1, lsl #2]
 8000470:	687b      	ldr	r3, [r7, #4]
 8000472:	7b5b      	ldrb	r3, [r3, #13]
 8000474:	2b00      	cmp	r3, #0
 8000476:	d110      	bne.n	800049a <Update_EXTI+0x192>
 8000478:	4b17      	ldr	r3, [pc, #92]	; (80004d8 <Update_EXTI+0x1d0>)
 800047a:	681b      	ldr	r3, [r3, #0]
 800047c:	687a      	ldr	r2, [r7, #4]
 800047e:	8812      	ldrh	r2, [r2, #0]
 8000480:	4611      	mov	r1, r2
 8000482:	2201      	movs	r2, #1
 8000484:	408a      	lsls	r2, r1
 8000486:	4611      	mov	r1, r2
 8000488:	4a13      	ldr	r2, [pc, #76]	; (80004d8 <Update_EXTI+0x1d0>)
 800048a:	430b      	orrs	r3, r1
 800048c:	6013      	str	r3, [r2, #0]
 800048e:	687b      	ldr	r3, [r7, #4]
 8000490:	881b      	ldrh	r3, [r3, #0]
 8000492:	4618      	mov	r0, r3
 8000494:	f7ff fe6c 	bl	8000170 <Enable_NVIC>
 8000498:	e010      	b.n	80004bc <Update_EXTI+0x1b4>
 800049a:	4b0f      	ldr	r3, [pc, #60]	; (80004d8 <Update_EXTI+0x1d0>)
 800049c:	681b      	ldr	r3, [r3, #0]
 800049e:	687a      	ldr	r2, [r7, #4]
 80004a0:	8812      	ldrh	r2, [r2, #0]
 80004a2:	4611      	mov	r1, r2
 80004a4:	2201      	movs	r2, #1
 80004a6:	408a      	lsls	r2, r1
 80004a8:	43d2      	mvns	r2, r2
 80004aa:	4611      	mov	r1, r2
 80004ac:	4a0a      	ldr	r2, [pc, #40]	; (80004d8 <Update_EXTI+0x1d0>)
 80004ae:	400b      	ands	r3, r1
 80004b0:	6013      	str	r3, [r2, #0]
 80004b2:	687b      	ldr	r3, [r7, #4]
 80004b4:	881b      	ldrh	r3, [r3, #0]
 80004b6:	4618      	mov	r0, r3
 80004b8:	f7ff fec0 	bl	800023c <Disable_NVIC>
 80004bc:	bf00      	nop
 80004be:	3710      	adds	r7, #16
 80004c0:	46bd      	mov	sp, r7
 80004c2:	bd80      	pop	{r7, pc}
 80004c4:	40010000 	andmi	r0, r1, r0
 80004c8:	40010800 	andmi	r0, r1, r0, lsl #16
 80004cc:	40010c00 	andmi	r0, r1, r0, lsl #24
 80004d0:	40011000 	andmi	r1, r1, r0
 80004d4:	40011400 	andmi	r1, r1, r0, lsl #8
 80004d8:	40010400 	andmi	r0, r1, r0, lsl #8
 80004dc:	2000001c 	andcs	r0, r0, ip, lsl r0

080004e0 <MCAL_EXTI_GPIO_Init>:
 80004e0:	b580      	push	{r7, lr}
 80004e2:	b082      	sub	sp, #8
 80004e4:	af00      	add	r7, sp, #0
 80004e6:	6078      	str	r0, [r7, #4]
 80004e8:	6878      	ldr	r0, [r7, #4]
 80004ea:	f7ff ff0d 	bl	8000308 <Update_EXTI>
 80004ee:	bf00      	nop
 80004f0:	3708      	adds	r7, #8
 80004f2:	46bd      	mov	sp, r7
 80004f4:	bd80      	pop	{r7, pc}
	...

080004f8 <EXTI0_IRQHandler>:
 80004f8:	b580      	push	{r7, lr}
 80004fa:	af00      	add	r7, sp, #0
 80004fc:	4b05      	ldr	r3, [pc, #20]	; (8000514 <EXTI0_IRQHandler+0x1c>)
 80004fe:	695b      	ldr	r3, [r3, #20]
 8000500:	4a04      	ldr	r2, [pc, #16]	; (8000514 <EXTI0_IRQHandler+0x1c>)
 8000502:	f043 0301 	orr.w	r3, r3, #1
 8000506:	6153      	str	r3, [r2, #20]
 8000508:	4b03      	ldr	r3, [pc, #12]	; (8000518 <EXTI0_IRQHandler+0x20>)
 800050a:	681b      	ldr	r3, [r3, #0]
 800050c:	4798      	blx	r3
 800050e:	bf00      	nop
 8000510:	bd80      	pop	{r7, pc}
 8000512:	bf00      	nop
 8000514:	40010400 	andmi	r0, r1, r0, lsl #8
 8000518:	2000001c 	andcs	r0, r0, ip, lsl r0

0800051c <EXTI1_IRQHandler>:
 800051c:	b580      	push	{r7, lr}
 800051e:	af00      	add	r7, sp, #0
 8000520:	4b05      	ldr	r3, [pc, #20]	; (8000538 <EXTI1_IRQHandler+0x1c>)
 8000522:	695b      	ldr	r3, [r3, #20]
 8000524:	4a04      	ldr	r2, [pc, #16]	; (8000538 <EXTI1_IRQHandler+0x1c>)
 8000526:	f043 0302 	orr.w	r3, r3, #2
 800052a:	6153      	str	r3, [r2, #20]
 800052c:	4b03      	ldr	r3, [pc, #12]	; (800053c <EXTI1_IRQHandler+0x20>)
 800052e:	685b      	ldr	r3, [r3, #4]
 8000530:	4798      	blx	r3
 8000532:	bf00      	nop
 8000534:	bd80      	pop	{r7, pc}
 8000536:	bf00      	nop
 8000538:	40010400 	andmi	r0, r1, r0, lsl #8
 800053c:	2000001c 	andcs	r0, r0, ip, lsl r0

08000540 <EXTI2_IRQHandler>:
 8000540:	b580      	push	{r7, lr}
 8000542:	af00      	add	r7, sp, #0
 8000544:	4b05      	ldr	r3, [pc, #20]	; (800055c <EXTI2_IRQHandler+0x1c>)
 8000546:	695b      	ldr	r3, [r3, #20]
 8000548:	4a04      	ldr	r2, [pc, #16]	; (800055c <EXTI2_IRQHandler+0x1c>)
 800054a:	f043 0304 	orr.w	r3, r3, #4
 800054e:	6153      	str	r3, [r2, #20]
 8000550:	4b03      	ldr	r3, [pc, #12]	; (8000560 <EXTI2_IRQHandler+0x20>)
 8000552:	689b      	ldr	r3, [r3, #8]
 8000554:	4798      	blx	r3
 8000556:	bf00      	nop
 8000558:	bd80      	pop	{r7, pc}
 800055a:	bf00      	nop
 800055c:	40010400 	andmi	r0, r1, r0, lsl #8
 8000560:	2000001c 	andcs	r0, r0, ip, lsl r0

08000564 <EXTI3_IRQHandler>:
 8000564:	b580      	push	{r7, lr}
 8000566:	af00      	add	r7, sp, #0
 8000568:	4b05      	ldr	r3, [pc, #20]	; (8000580 <EXTI3_IRQHandler+0x1c>)
 800056a:	695b      	ldr	r3, [r3, #20]
 800056c:	4a04      	ldr	r2, [pc, #16]	; (8000580 <EXTI3_IRQHandler+0x1c>)
 800056e:	f043 0308 	orr.w	r3, r3, #8
 8000572:	6153      	str	r3, [r2, #20]
 8000574:	4b03      	ldr	r3, [pc, #12]	; (8000584 <EXTI3_IRQHandler+0x20>)
 8000576:	68db      	ldr	r3, [r3, #12]
 8000578:	4798      	blx	r3
 800057a:	bf00      	nop
 800057c:	bd80      	pop	{r7, pc}
 800057e:	bf00      	nop
 8000580:	40010400 	andmi	r0, r1, r0, lsl #8
 8000584:	2000001c 	andcs	r0, r0, ip, lsl r0

08000588 <EXTI4_IRQHandler>:
 8000588:	b580      	push	{r7, lr}
 800058a:	af00      	add	r7, sp, #0
 800058c:	4b05      	ldr	r3, [pc, #20]	; (80005a4 <EXTI4_IRQHandler+0x1c>)
 800058e:	695b      	ldr	r3, [r3, #20]
 8000590:	4a04      	ldr	r2, [pc, #16]	; (80005a4 <EXTI4_IRQHandler+0x1c>)
 8000592:	f043 0310 	orr.w	r3, r3, #16
 8000596:	6153      	str	r3, [r2, #20]
 8000598:	4b03      	ldr	r3, [pc, #12]	; (80005a8 <EXTI4_IRQHandler+0x20>)
 800059a:	691b      	ldr	r3, [r3, #16]
 800059c:	4798      	blx	r3
 800059e:	bf00      	nop
 80005a0:	bd80      	pop	{r7, pc}
 80005a2:	bf00      	nop
 80005a4:	40010400 	andmi	r0, r1, r0, lsl #8
 80005a8:	2000001c 	andcs	r0, r0, ip, lsl r0

080005ac <EXTI9_5_IRQHandler>:
 80005ac:	b580      	push	{r7, lr}
 80005ae:	af00      	add	r7, sp, #0
 80005b0:	4b26      	ldr	r3, [pc, #152]	; (800064c <EXTI9_5_IRQHandler+0xa0>)
 80005b2:	695b      	ldr	r3, [r3, #20]
 80005b4:	f003 0320 	and.w	r3, r3, #32
 80005b8:	2b00      	cmp	r3, #0
 80005ba:	d008      	beq.n	80005ce <EXTI9_5_IRQHandler+0x22>
 80005bc:	4b23      	ldr	r3, [pc, #140]	; (800064c <EXTI9_5_IRQHandler+0xa0>)
 80005be:	695b      	ldr	r3, [r3, #20]
 80005c0:	4a22      	ldr	r2, [pc, #136]	; (800064c <EXTI9_5_IRQHandler+0xa0>)
 80005c2:	f043 0320 	orr.w	r3, r3, #32
 80005c6:	6153      	str	r3, [r2, #20]
 80005c8:	4b21      	ldr	r3, [pc, #132]	; (8000650 <EXTI9_5_IRQHandler+0xa4>)
 80005ca:	695b      	ldr	r3, [r3, #20]
 80005cc:	4798      	blx	r3
 80005ce:	4b1f      	ldr	r3, [pc, #124]	; (800064c <EXTI9_5_IRQHandler+0xa0>)
 80005d0:	695b      	ldr	r3, [r3, #20]
 80005d2:	f003 0340 	and.w	r3, r3, #64	; 0x40
 80005d6:	2b00      	cmp	r3, #0
 80005d8:	d008      	beq.n	80005ec <EXTI9_5_IRQHandler+0x40>
 80005da:	4b1c      	ldr	r3, [pc, #112]	; (800064c <EXTI9_5_IRQHandler+0xa0>)
 80005dc:	695b      	ldr	r3, [r3, #20]
 80005de:	4a1b      	ldr	r2, [pc, #108]	; (800064c <EXTI9_5_IRQHandler+0xa0>)
 80005e0:	f043 0340 	orr.w	r3, r3, #64	; 0x40
 80005e4:	6153      	str	r3, [r2, #20]
 80005e6:	4b1a      	ldr	r3, [pc, #104]	; (8000650 <EXTI9_5_IRQHandler+0xa4>)
 80005e8:	699b      	ldr	r3, [r3, #24]
 80005ea:	4798      	blx	r3
 80005ec:	4b17      	ldr	r3, [pc, #92]	; (800064c <EXTI9_5_IRQHandler+0xa0>)
 80005ee:	695b      	ldr	r3, [r3, #20]
 80005f0:	f003 0380 	and.w	r3, r3, #128	; 0x80
 80005f4:	2b00      	cmp	r3, #0
 80005f6:	d008      	beq.n	800060a <EXTI9_5_IRQHandler+0x5e>
 80005f8:	4b14      	ldr	r3, [pc, #80]	; (800064c <EXTI9_5_IRQHandler+0xa0>)
 80005fa:	695b      	ldr	r3, [r3, #20]
 80005fc:	4a13      	ldr	r2, [pc, #76]	; (800064c <EXTI9_5_IRQHandler+0xa0>)
 80005fe:	f043 0380 	orr.w	r3, r3, #128	; 0x80
 8000602:	6153      	str	r3, [r2, #20]
 8000604:	4b12      	ldr	r3, [pc, #72]	; (8000650 <EXTI9_5_IRQHandler+0xa4>)
 8000606:	69db      	ldr	r3, [r3, #28]
 8000608:	4798      	blx	r3
 800060a:	4b10      	ldr	r3, [pc, #64]	; (800064c <EXTI9_5_IRQHandler+0xa0>)
 800060c:	695b      	ldr	r3, [r3, #20]
 800060e:	f403 7380 	and.w	r3, r3, #256	; 0x100
 8000612:	2b00      	cmp	r3, #0
 8000614:	d008      	beq.n	8000628 <EXTI9_5_IRQHandler+0x7c>
 8000616:	4b0d      	ldr	r3, [pc, #52]	; (800064c <EXTI9_5_IRQHandler+0xa0>)
 8000618:	695b      	ldr	r3, [r3, #20]
 800061a:	4a0c      	ldr	r2, [pc, #48]	; (800064c <EXTI9_5_IRQHandler+0xa0>)
 800061c:	f443 7380 	orr.w	r3, r3, #256	; 0x100
 8000620:	6153      	str	r3, [r2, #20]
 8000622:	4b0b      	ldr	r3, [pc, #44]	; (8000650 <EXTI9_5_IRQHandler+0xa4>)
 8000624:	6a1b      	ldr	r3, [r3, #32]
 8000626:	4798      	blx	r3
 8000628:	4b08      	ldr	r3, [pc, #32]	; (800064c <EXTI9_5_IRQHandler+0xa0>)
 800062a:	695b      	ldr	r3, [r3, #20]
 800062c:	f403 7300 	and.w	r3, r3, #512	; 0x200
 8000630:	2b00      	cmp	r3, #0
 8000632:	d008      	beq.n	8000646 <EXTI9_5_IRQHandler+0x9a>
 8000634:	4b05      	ldr	r3, [pc, #20]	; (800064c <EXTI9_5_IRQHandler+0xa0>)
 8000636:	695b      	ldr	r3, [r3, #20]
 8000638:	4a04      	ldr	r2, [pc, #16]	; (800064c <EXTI9_5_IRQHandler+0xa0>)
 800063a:	f443 7300 	orr.w	r3, r3, #512	; 0x200
 800063e:	6153      	str	r3, [r2, #20]
 8000640:	4b03      	ldr	r3, [pc, #12]	; (8000650 <EXTI9_5_IRQHandler+0xa4>)
 8000642:	6a5b      	ldr	r3, [r3, #36]	; 0x24
 8000644:	4798      	blx	r3
 8000646:	bf00      	nop
 8000648:	bd80      	pop	{r7, pc}
 800064a:	bf00      	nop
 800064c:	40010400 	andmi	r0, r1, r0, lsl #8
 8000650:	2000001c 	andcs	r0, r0, ip, lsl r0

08000654 <EXTI15_10_IRQHandler>:
 8000654:	b580      	push	{r7, lr}
 8000656:	af00      	add	r7, sp, #0
 8000658:	4b2d      	ldr	r3, [pc, #180]	; (8000710 <EXTI15_10_IRQHandler+0xbc>)
 800065a:	695b      	ldr	r3, [r3, #20]
 800065c:	f403 6380 	and.w	r3, r3, #1024	; 0x400
 8000660:	2b00      	cmp	r3, #0
 8000662:	d008      	beq.n	8000676 <EXTI15_10_IRQHandler+0x22>
 8000664:	4b2a      	ldr	r3, [pc, #168]	; (8000710 <EXTI15_10_IRQHandler+0xbc>)
 8000666:	695b      	ldr	r3, [r3, #20]
 8000668:	4a29      	ldr	r2, [pc, #164]	; (8000710 <EXTI15_10_IRQHandler+0xbc>)
 800066a:	f443 6380 	orr.w	r3, r3, #1024	; 0x400
 800066e:	6153      	str	r3, [r2, #20]
 8000670:	4b28      	ldr	r3, [pc, #160]	; (8000714 <EXTI15_10_IRQHandler+0xc0>)
 8000672:	6a9b      	ldr	r3, [r3, #40]	; 0x28
 8000674:	4798      	blx	r3
 8000676:	4b26      	ldr	r3, [pc, #152]	; (8000710 <EXTI15_10_IRQHandler+0xbc>)
 8000678:	695b      	ldr	r3, [r3, #20]
 800067a:	f403 6300 	and.w	r3, r3, #2048	; 0x800
 800067e:	2b00      	cmp	r3, #0
 8000680:	d008      	beq.n	8000694 <EXTI15_10_IRQHandler+0x40>
 8000682:	4b23      	ldr	r3, [pc, #140]	; (8000710 <EXTI15_10_IRQHandler+0xbc>)
 8000684:	695b      	ldr	r3, [r3, #20]
 8000686:	4a22      	ldr	r2, [pc, #136]	; (8000710 <EXTI15_10_IRQHandler+0xbc>)
 8000688:	f443 6300 	orr.w	r3, r3, #2048	; 0x800
 800068c:	6153      	str	r3, [r2, #20]
 800068e:	4b21      	ldr	r3, [pc, #132]	; (8000714 <EXTI15_10_IRQHandler+0xc0>)
 8000690:	6adb      	ldr	r3, [r3, #44]	; 0x2c
 8000692:	4798      	blx	r3
 8000694:	4b1e      	ldr	r3, [pc, #120]	; (8000710 <EXTI15_10_IRQHandler+0xbc>)
 8000696:	695b      	ldr	r3, [r3, #20]
 8000698:	f403 5380 	and.w	r3, r3, #4096	; 0x1000
 800069c:	2b00      	cmp	r3, #0
 800069e:	d008      	beq.n	80006b2 <EXTI15_10_IRQHandler+0x5e>
 80006a0:	4b1b      	ldr	r3, [pc, #108]	; (8000710 <EXTI15_10_IRQHandler+0xbc>)
 80006a2:	695b      	ldr	r3, [r3, #20]
 80006a4:	4a1a      	ldr	r2, [pc, #104]	; (8000710 <EXTI15_10_IRQHandler+0xbc>)
 80006a6:	f443 5380 	orr.w	r3, r3, #4096	; 0x1000
 80006aa:	6153      	str	r3, [r2, #20]
 80006ac:	4b19      	ldr	r3, [pc, #100]	; (8000714 <EXTI15_10_IRQHandler+0xc0>)
 80006ae:	6b1b      	ldr	r3, [r3, #48]	; 0x30
 80006b0:	4798      	blx	r3
 80006b2:	4b17      	ldr	r3, [pc, #92]	; (8000710 <EXTI15_10_IRQHandler+0xbc>)
 80006b4:	695b      	ldr	r3, [r3, #20]
 80006b6:	f403 5300 	and.w	r3, r3, #8192	; 0x2000
 80006ba:	2b00      	cmp	r3, #0
 80006bc:	d008      	beq.n	80006d0 <EXTI15_10_IRQHandler+0x7c>
 80006be:	4b14      	ldr	r3, [pc, #80]	; (8000710 <EXTI15_10_IRQHandler+0xbc>)
 80006c0:	695b      	ldr	r3, [r3, #20]
 80006c2:	4a13      	ldr	r2, [pc, #76]	; (8000710 <EXTI15_10_IRQHandler+0xbc>)
 80006c4:	f443 5300 	orr.w	r3, r3, #8192	; 0x2000
 80006c8:	6153      	str	r3, [r2, #20]
 80006ca:	4b12      	ldr	r3, [pc, #72]	; (8000714 <EXTI15_10_IRQHandler+0xc0>)
 80006cc:	6b5b      	ldr	r3, [r3, #52]	; 0x34
 80006ce:	4798      	blx	r3
 80006d0:	4b0f      	ldr	r3, [pc, #60]	; (8000710 <EXTI15_10_IRQHandler+0xbc>)
 80006d2:	695b      	ldr	r3, [r3, #20]
 80006d4:	f403 4380 	and.w	r3, r3, #16384	; 0x4000
 80006d8:	2b00      	cmp	r3, #0
 80006da:	d008      	beq.n	80006ee <EXTI15_10_IRQHandler+0x9a>
 80006dc:	4b0c      	ldr	r3, [pc, #48]	; (8000710 <EXTI15_10_IRQHandler+0xbc>)
 80006de:	695b      	ldr	r3, [r3, #20]
 80006e0:	4a0b      	ldr	r2, [pc, #44]	; (8000710 <EXTI15_10_IRQHandler+0xbc>)
 80006e2:	f443 4380 	orr.w	r3, r3, #16384	; 0x4000
 80006e6:	6153      	str	r3, [r2, #20]
 80006e8:	4b0a      	ldr	r3, [pc, #40]	; (8000714 <EXTI15_10_IRQHandler+0xc0>)
 80006ea:	6b9b      	ldr	r3, [r3, #56]	; 0x38
 80006ec:	4798      	blx	r3
 80006ee:	4b08      	ldr	r3, [pc, #32]	; (8000710 <EXTI15_10_IRQHandler+0xbc>)
 80006f0:	695b      	ldr	r3, [r3, #20]
 80006f2:	f403 4300 	and.w	r3, r3, #32768	; 0x8000
 80006f6:	2b00      	cmp	r3, #0
 80006f8:	d008      	beq.n	800070c <EXTI15_10_IRQHandler+0xb8>
 80006fa:	4b05      	ldr	r3, [pc, #20]	; (8000710 <EXTI15_10_IRQHandler+0xbc>)
 80006fc:	695b      	ldr	r3, [r3, #20]
 80006fe:	4a04      	ldr	r2, [pc, #16]	; (8000710 <EXTI15_10_IRQHandler+0xbc>)
 8000700:	f443 4300 	orr.w	r3, r3, #32768	; 0x8000
 8000704:	6153      	str	r3, [r2, #20]
 8000706:	4b03      	ldr	r3, [pc, #12]	; (8000714 <EXTI15_10_IRQHandler+0xc0>)
 8000708:	6bdb      	ldr	r3, [r3, #60]	; 0x3c
 800070a:	4798      	blx	r3
 800070c:	bf00      	nop
 800070e:	bd80      	pop	{r7, pc}
 8000710:	40010400 	andmi	r0, r1, r0, lsl #8
 8000714:	2000001c 	andcs	r0, r0, ip, lsl r0

08000718 <Get_CRLH_Position>:
 8000718:	b480      	push	{r7}
 800071a:	b083      	sub	sp, #12
 800071c:	af00      	add	r7, sp, #0
 800071e:	4603      	mov	r3, r0
 8000720:	80fb      	strh	r3, [r7, #6]
 8000722:	88fb      	ldrh	r3, [r7, #6]
 8000724:	f5b3 4f00 	cmp.w	r3, #32768	; 0x8000
 8000728:	f000 80a5 	beq.w	8000876 <Get_CRLH_Position+0x15e>
 800072c:	f5b3 4f00 	cmp.w	r3, #32768	; 0x8000
 8000730:	f300 80a3 	bgt.w	800087a <Get_CRLH_Position+0x162>
 8000734:	f5b3 4f80 	cmp.w	r3, #16384	; 0x4000
 8000738:	f000 809b 	beq.w	8000872 <Get_CRLH_Position+0x15a>
 800073c:	f5b3 4f80 	cmp.w	r3, #16384	; 0x4000
 8000740:	f300 809b 	bgt.w	800087a <Get_CRLH_Position+0x162>
 8000744:	f5b3 5f00 	cmp.w	r3, #8192	; 0x2000
 8000748:	f000 8091 	beq.w	800086e <Get_CRLH_Position+0x156>
 800074c:	f5b3 5f00 	cmp.w	r3, #8192	; 0x2000
 8000750:	f300 8093 	bgt.w	800087a <Get_CRLH_Position+0x162>
 8000754:	f5b3 5f80 	cmp.w	r3, #4096	; 0x1000
 8000758:	f000 8087 	beq.w	800086a <Get_CRLH_Position+0x152>
 800075c:	f5b3 5f80 	cmp.w	r3, #4096	; 0x1000
 8000760:	f300 808b 	bgt.w	800087a <Get_CRLH_Position+0x162>
 8000764:	f5b3 6f00 	cmp.w	r3, #2048	; 0x800
 8000768:	d07d      	beq.n	8000866 <Get_CRLH_Position+0x14e>
 800076a:	f5b3 6f00 	cmp.w	r3, #2048	; 0x800
 800076e:	f300 8084 	bgt.w	800087a <Get_CRLH_Position+0x162>
 8000772:	f5b3 6f80 	cmp.w	r3, #1024	; 0x400
 8000776:	d074      	beq.n	8000862 <Get_CRLH_Position+0x14a>
 8000778:	f5b3 6f80 	cmp.w	r3, #1024	; 0x400
 800077c:	dc7d      	bgt.n	800087a <Get_CRLH_Position+0x162>
 800077e:	f5b3 7f00 	cmp.w	r3, #512	; 0x200
 8000782:	d06c      	beq.n	800085e <Get_CRLH_Position+0x146>
 8000784:	f5b3 7f00 	cmp.w	r3, #512	; 0x200
 8000788:	dc77      	bgt.n	800087a <Get_CRLH_Position+0x162>
 800078a:	f5b3 7f80 	cmp.w	r3, #256	; 0x100
 800078e:	d064      	beq.n	800085a <Get_CRLH_Position+0x142>
 8000790:	f5b3 7f80 	cmp.w	r3, #256	; 0x100
 8000794:	dc71      	bgt.n	800087a <Get_CRLH_Position+0x162>
 8000796:	2b80      	cmp	r3, #128	; 0x80
 8000798:	d05d      	beq.n	8000856 <Get_CRLH_Position+0x13e>
 800079a:	2b80      	cmp	r3, #128	; 0x80
 800079c:	dc6d      	bgt.n	800087a <Get_CRLH_Position+0x162>
 800079e:	2b20      	cmp	r3, #32
 80007a0:	dc48      	bgt.n	8000834 <Get_CRLH_Position+0x11c>
 80007a2:	2b00      	cmp	r3, #0
 80007a4:	dd69      	ble.n	800087a <Get_CRLH_Position+0x162>
 80007a6:	3b01      	subs	r3, #1
 80007a8:	2b1f      	cmp	r3, #31
 80007aa:	d866      	bhi.n	800087a <Get_CRLH_Position+0x162>
 80007ac:	a201      	add	r2, pc, #4	; (adr r2, 80007b4 <Get_CRLH_Position+0x9c>)
 80007ae:	f852 f023 	ldr.w	pc, [r2, r3, lsl #2]
 80007b2:	bf00      	nop
 80007b4:	0800083b 	stmdaeq	r0, {r0, r1, r3, r4, r5, fp}
 80007b8:	0800083f 	stmdaeq	r0, {r0, r1, r2, r3, r4, r5, fp}
 80007bc:	0800087b 	stmdaeq	r0, {r0, r1, r3, r4, r5, r6, fp}
 80007c0:	08000843 	stmdaeq	r0, {r0, r1, r6, fp}
 80007c4:	0800087b 	stmdaeq	r0, {r0, r1, r3, r4, r5, r6, fp}
 80007c8:	0800087b 	stmdaeq	r0, {r0, r1, r3, r4, r5, r6, fp}
 80007cc:	0800087b 	stmdaeq	r0, {r0, r1, r3, r4, r5, r6, fp}
 80007d0:	08000847 	stmdaeq	r0, {r0, r1, r2, r6, fp}
 80007d4:	0800087b 	stmdaeq	r0, {r0, r1, r3, r4, r5, r6, fp}
 80007d8:	0800087b 	stmdaeq	r0, {r0, r1, r3, r4, r5, r6, fp}
 80007dc:	0800087b 	stmdaeq	r0, {r0, r1, r3, r4, r5, r6, fp}
 80007e0:	0800087b 	stmdaeq	r0, {r0, r1, r3, r4, r5, r6, fp}
 80007e4:	0800087b 	stmdaeq	r0, {r0, r1, r3, r4, r5, r6, fp}
 80007e8:	0800087b 	stmdaeq	r0, {r0, r1, r3, r4, r5, r6, fp}
 80007ec:	0800087b 	stmdaeq	r0, {r0, r1, r3, r4, r5, r6, fp}
 80007f0:	0800084b 	stmdaeq	r0, {r0, r1, r3, r6, fp}
 80007f4:	0800087b 	stmdaeq	r0, {r0, r1, r3, r4, r5, r6, fp}
 80007f8:	0800087b 	stmdaeq	r0, {r0, r1, r3, r4, r5, r6, fp}
 80007fc:	0800087b 	stmdaeq	r0, {r0, r1, r3, r4, r5, r6, fp}
 8000800:	0800087b 	stmdaeq	r0, {r0, r1, r3, r4, r5, r6, fp}
 8000804:	0800087b 	stmdaeq	r0, {r0, r1, r3, r4, r5, r6, fp}
 8000808:	0800087b 	stmdaeq	r0, {r0, r1, r3, r4, r5, r6, fp}
 800080c:	0800087b 	stmdaeq	r0, {r0, r1, r3, r4, r5, r6, fp}
 8000810:	0800087b 	stmdaeq	r0, {r0, r1, r3, r4, r5, r6, fp}
 8000814:	0800087b 	stmdaeq	r0, {r0, r1, r3, r4, r5, r6, fp}
 8000818:	0800087b 	stmdaeq	r0, {r0, r1, r3, r4, r5, r6, fp}
 800081c:	0800087b 	stmdaeq	r0, {r0, r1, r3, r4, r5, r6, fp}
 8000820:	0800087b 	stmdaeq	r0, {r0, r1, r3, r4, r5, r6, fp}
 8000824:	0800087b 	stmdaeq	r0, {r0, r1, r3, r4, r5, r6, fp}
 8000828:	0800087b 	stmdaeq	r0, {r0, r1, r3, r4, r5, r6, fp}
 800082c:	0800087b 	stmdaeq	r0, {r0, r1, r3, r4, r5, r6, fp}
 8000830:	0800084f 	stmdaeq	r0, {r0, r1, r2, r3, r6, fp}
 8000834:	2b40      	cmp	r3, #64	; 0x40
 8000836:	d00c      	beq.n	8000852 <Get_CRLH_Position+0x13a>
 8000838:	e01f      	b.n	800087a <Get_CRLH_Position+0x162>
 800083a:	2300      	movs	r3, #0
 800083c:	e01e      	b.n	800087c <Get_CRLH_Position+0x164>
 800083e:	2304      	movs	r3, #4
 8000840:	e01c      	b.n	800087c <Get_CRLH_Position+0x164>
 8000842:	2308      	movs	r3, #8
 8000844:	e01a      	b.n	800087c <Get_CRLH_Position+0x164>
 8000846:	230c      	movs	r3, #12
 8000848:	e018      	b.n	800087c <Get_CRLH_Position+0x164>
 800084a:	2310      	movs	r3, #16
 800084c:	e016      	b.n	800087c <Get_CRLH_Position+0x164>
 800084e:	2314      	movs	r3, #20
 8000850:	e014      	b.n	800087c <Get_CRLH_Position+0x164>
 8000852:	2318      	movs	r3, #24
 8000854:	e012      	b.n	800087c <Get_CRLH_Position+0x164>
 8000856:	231c      	movs	r3, #28
 8000858:	e010      	b.n	800087c <Get_CRLH_Position+0x164>
 800085a:	2300      	movs	r3, #0
 800085c:	e00e      	b.n	800087c <Get_CRLH_Position+0x164>
 800085e:	2304      	movs	r3, #4
 8000860:	e00c      	b.n	800087c <Get_CRLH_Position+0x164>
 8000862:	2308      	movs	r3, #8
 8000864:	e00a      	b.n	800087c <Get_CRLH_Position+0x164>
 8000866:	230c      	movs	r3, #12
 8000868:	e008      	b.n	800087c <Get_CRLH_Position+0x164>
 800086a:	2310      	movs	r3, #16
 800086c:	e006      	b.n	800087c <Get_CRLH_Position+0x164>
 800086e:	2314      	movs	r3, #20
 8000870:	e004      	b.n	800087c <Get_CRLH_Position+0x164>
 8000872:	2318      	movs	r3, #24
 8000874:	e002      	b.n	800087c <Get_CRLH_Position+0x164>
 8000876:	231c      	movs	r3, #28
 8000878:	e000      	b.n	800087c <Get_CRLH_Position+0x164>
 800087a:	2300      	movs	r3, #0
 800087c:	4618      	mov	r0, r3
 800087e:	370c      	adds	r7, #12
 8000880:	46bd      	mov	sp, r7
 8000882:	bc80      	pop	{r7}
 8000884:	4770      	bx	lr
 8000886:	bf00      	nop

08000888 <MCAL_GPIO_Init>:
 8000888:	b590      	push	{r4, r7, lr}
 800088a:	b085      	sub	sp, #20
 800088c:	af00      	add	r7, sp, #0
 800088e:	6078      	str	r0, [r7, #4]
 8000890:	6039      	str	r1, [r7, #0]
 8000892:	2300      	movs	r3, #0
 8000894:	60bb      	str	r3, [r7, #8]
 8000896:	683b      	ldr	r3, [r7, #0]
 8000898:	881b      	ldrh	r3, [r3, #0]
 800089a:	2bff      	cmp	r3, #255	; 0xff
 800089c:	d801      	bhi.n	80008a2 <MCAL_GPIO_Init+0x1a>
 800089e:	687b      	ldr	r3, [r7, #4]
 80008a0:	e001      	b.n	80008a6 <MCAL_GPIO_Init+0x1e>
 80008a2:	687b      	ldr	r3, [r7, #4]
 80008a4:	3304      	adds	r3, #4
 80008a6:	60bb      	str	r3, [r7, #8]
 80008a8:	683b      	ldr	r3, [r7, #0]
 80008aa:	881b      	ldrh	r3, [r3, #0]
 80008ac:	4618      	mov	r0, r3
 80008ae:	f7ff ff33 	bl	8000718 <Get_CRLH_Position>
 80008b2:	4603      	mov	r3, r0
 80008b4:	461a      	mov	r2, r3
 80008b6:	230f      	movs	r3, #15
 80008b8:	4093      	lsls	r3, r2
 80008ba:	43da      	mvns	r2, r3
 80008bc:	68bb      	ldr	r3, [r7, #8]
 80008be:	681b      	ldr	r3, [r3, #0]
 80008c0:	401a      	ands	r2, r3
 80008c2:	68bb      	ldr	r3, [r7, #8]
 80008c4:	601a      	str	r2, [r3, #0]
 80008c6:	683b      	ldr	r3, [r7, #0]
 80008c8:	789b      	ldrb	r3, [r3, #2]
 80008ca:	2b04      	cmp	r3, #4
 80008cc:	d00b      	beq.n	80008e6 <MCAL_GPIO_Init+0x5e>
 80008ce:	683b      	ldr	r3, [r7, #0]
 80008d0:	789b      	ldrb	r3, [r3, #2]
 80008d2:	2b05      	cmp	r3, #5
 80008d4:	d007      	beq.n	80008e6 <MCAL_GPIO_Init+0x5e>
 80008d6:	683b      	ldr	r3, [r7, #0]
 80008d8:	789b      	ldrb	r3, [r3, #2]
 80008da:	2b06      	cmp	r3, #6
 80008dc:	d003      	beq.n	80008e6 <MCAL_GPIO_Init+0x5e>
 80008de:	683b      	ldr	r3, [r7, #0]
 80008e0:	789b      	ldrb	r3, [r3, #2]
 80008e2:	2b07      	cmp	r3, #7
 80008e4:	d10e      	bne.n	8000904 <MCAL_GPIO_Init+0x7c>
 80008e6:	683b      	ldr	r3, [r7, #0]
 80008e8:	789b      	ldrb	r3, [r3, #2]
 80008ea:	3b04      	subs	r3, #4
 80008ec:	009b      	lsls	r3, r3, #2
 80008ee:	b25a      	sxtb	r2, r3
 80008f0:	683b      	ldr	r3, [r7, #0]
 80008f2:	78db      	ldrb	r3, [r3, #3]
 80008f4:	b25b      	sxtb	r3, r3
 80008f6:	4313      	orrs	r3, r2
 80008f8:	b25b      	sxtb	r3, r3
 80008fa:	b2db      	uxtb	r3, r3
 80008fc:	f003 030f 	and.w	r3, r3, #15
 8000900:	73fb      	strb	r3, [r7, #15]
 8000902:	e02c      	b.n	800095e <MCAL_GPIO_Init+0xd6>
 8000904:	683b      	ldr	r3, [r7, #0]
 8000906:	789b      	ldrb	r3, [r3, #2]
 8000908:	2b00      	cmp	r3, #0
 800090a:	d003      	beq.n	8000914 <MCAL_GPIO_Init+0x8c>
 800090c:	683b      	ldr	r3, [r7, #0]
 800090e:	789b      	ldrb	r3, [r3, #2]
 8000910:	2b01      	cmp	r3, #1
 8000912:	d107      	bne.n	8000924 <MCAL_GPIO_Init+0x9c>
 8000914:	683b      	ldr	r3, [r7, #0]
 8000916:	789b      	ldrb	r3, [r3, #2]
 8000918:	009b      	lsls	r3, r3, #2
 800091a:	b2db      	uxtb	r3, r3
 800091c:	f003 030f 	and.w	r3, r3, #15
 8000920:	73fb      	strb	r3, [r7, #15]
 8000922:	e01c      	b.n	800095e <MCAL_GPIO_Init+0xd6>
 8000924:	683b      	ldr	r3, [r7, #0]
 8000926:	789b      	ldrb	r3, [r3, #2]
 8000928:	2b08      	cmp	r3, #8
 800092a:	d102      	bne.n	8000932 <MCAL_GPIO_Init+0xaa>
 800092c:	2304      	movs	r3, #4
 800092e:	73fb      	strb	r3, [r7, #15]
 8000930:	e015      	b.n	800095e <MCAL_GPIO_Init+0xd6>
 8000932:	230c      	movs	r3, #12
 8000934:	73fb      	strb	r3, [r7, #15]
 8000936:	683b      	ldr	r3, [r7, #0]
 8000938:	789b      	ldrb	r3, [r3, #2]
 800093a:	2b02      	cmp	r3, #2
 800093c:	d107      	bne.n	800094e <MCAL_GPIO_Init+0xc6>
 800093e:	687b      	ldr	r3, [r7, #4]
 8000940:	68db      	ldr	r3, [r3, #12]
 8000942:	683a      	ldr	r2, [r7, #0]
 8000944:	8812      	ldrh	r2, [r2, #0]
 8000946:	431a      	orrs	r2, r3
 8000948:	687b      	ldr	r3, [r7, #4]
 800094a:	60da      	str	r2, [r3, #12]
 800094c:	e007      	b.n	800095e <MCAL_GPIO_Init+0xd6>
 800094e:	687b      	ldr	r3, [r7, #4]
 8000950:	68db      	ldr	r3, [r3, #12]
 8000952:	683a      	ldr	r2, [r7, #0]
 8000954:	8812      	ldrh	r2, [r2, #0]
 8000956:	43d2      	mvns	r2, r2
 8000958:	401a      	ands	r2, r3
 800095a:	687b      	ldr	r3, [r7, #4]
 800095c:	60da      	str	r2, [r3, #12]
 800095e:	7bfc      	ldrb	r4, [r7, #15]
 8000960:	683b      	ldr	r3, [r7, #0]
 8000962:	881b      	ldrh	r3, [r3, #0]
 8000964:	4618      	mov	r0, r3
 8000966:	f7ff fed7 	bl	8000718 <Get_CRLH_Position>
 800096a:	4603      	mov	r3, r0
 800096c:	fa04 f203 	lsl.w	r2, r4, r3
 8000970:	68bb      	ldr	r3, [r7, #8]
 8000972:	681b      	ldr	r3, [r3, #0]
 8000974:	431a      	orrs	r2, r3
 8000976:	68bb      	ldr	r3, [r7, #8]
 8000978:	601a      	str	r2, [r3, #0]
 800097a:	bf00      	nop
 800097c:	3714      	adds	r7, #20
 800097e:	46bd      	mov	sp, r7
 8000980:	bd90      	pop	{r4, r7, pc}
	...

08000984 <EXTI9_IRQ_fun>:
 8000984:	b480      	push	{r7}
 8000986:	af00      	add	r7, sp, #0
 8000988:	4b05      	ldr	r3, [pc, #20]	; (80009a0 <EXTI9_IRQ_fun+0x1c>)
 800098a:	2201      	movs	r2, #1
 800098c:	701a      	strb	r2, [r3, #0]
 800098e:	f3ef 8305 	mrs	r3, IPSR
 8000992:	4a04      	ldr	r2, [pc, #16]	; (80009a4 <EXTI9_IRQ_fun+0x20>)
 8000994:	6013      	str	r3, [r2, #0]
 8000996:	bf00      	nop
 8000998:	46bd      	mov	sp, r7
 800099a:	bc80      	pop	{r7}
 800099c:	4770      	bx	lr
 800099e:	bf00      	nop
 80009a0:	20000058 	andcs	r0, r0, r8, asr r0
 80009a4:	20000060 	andcs	r0, r0, r0, rrx

080009a8 <main>:
 80009a8:	b580      	push	{r7, lr}
 80009aa:	b088      	sub	sp, #32
 80009ac:	af00      	add	r7, sp, #0
 80009ae:	4b17      	ldr	r3, [pc, #92]	; (8000a0c <main+0x64>)
 80009b0:	699b      	ldr	r3, [r3, #24]
 80009b2:	4a16      	ldr	r2, [pc, #88]	; (8000a0c <main+0x64>)
 80009b4:	f043 0308 	orr.w	r3, r3, #8
 80009b8:	6193      	str	r3, [r2, #24]
 80009ba:	4b14      	ldr	r3, [pc, #80]	; (8000a0c <main+0x64>)
 80009bc:	699b      	ldr	r3, [r3, #24]
 80009be:	4a13      	ldr	r2, [pc, #76]	; (8000a0c <main+0x64>)
 80009c0:	f043 0301 	orr.w	r3, r3, #1
 80009c4:	6193      	str	r3, [r2, #24]
 80009c6:	4a12      	ldr	r2, [pc, #72]	; (8000a10 <main+0x68>)
 80009c8:	f107 030c 	add.w	r3, r7, #12
 80009cc:	ca07      	ldmia	r2, {r0, r1, r2}
 80009ce:	e883 0007 	stmia.w	r3, {r0, r1, r2}
 80009d2:	2300      	movs	r3, #0
 80009d4:	763b      	strb	r3, [r7, #24]
 80009d6:	2300      	movs	r3, #0
 80009d8:	767b      	strb	r3, [r7, #25]
 80009da:	4b0e      	ldr	r3, [pc, #56]	; (8000a14 <main+0x6c>)
 80009dc:	61fb      	str	r3, [r7, #28]
 80009de:	f107 030c 	add.w	r3, r7, #12
 80009e2:	4618      	mov	r0, r3
 80009e4:	f7ff fd7c 	bl	80004e0 <MCAL_EXTI_GPIO_Init>
 80009e8:	4b0b      	ldr	r3, [pc, #44]	; (8000a18 <main+0x70>)
 80009ea:	2201      	movs	r2, #1
 80009ec:	701a      	strb	r2, [r3, #0]
 80009ee:	bf00      	nop
 80009f0:	bf00      	nop
 80009f2:	bf00      	nop
 80009f4:	f3ef 8314 	mrs	r3, CONTROL
 80009f8:	4a08      	ldr	r2, [pc, #32]	; (8000a1c <main+0x74>)
 80009fa:	6013      	str	r3, [r2, #0]
 80009fc:	4b06      	ldr	r3, [pc, #24]	; (8000a18 <main+0x70>)
 80009fe:	781b      	ldrb	r3, [r3, #0]
 8000a00:	2b00      	cmp	r3, #0
 8000a02:	d0fb      	beq.n	80009fc <main+0x54>
 8000a04:	4b04      	ldr	r3, [pc, #16]	; (8000a18 <main+0x70>)
 8000a06:	2200      	movs	r2, #0
 8000a08:	701a      	strb	r2, [r3, #0]
 8000a0a:	e7f7      	b.n	80009fc <main+0x54>
 8000a0c:	40021000 	andmi	r1, r2, r0
 8000a10:	08000ad4 	stmdaeq	r0, {r2, r4, r6, r7, r9, fp}
 8000a14:	08000985 	stmdaeq	r0, {r0, r2, r7, r8, fp}
 8000a18:	20000058 	andcs	r0, r0, r8, asr r0
 8000a1c:	2000005c 	andcs	r0, r0, ip, asr r0

08000a20 <Reset_Handler>:
 8000a20:	480d      	ldr	r0, [pc, #52]	; (8000a58 <LoopForever+0x2>)
 8000a22:	4685      	mov	sp, r0
 8000a24:	f3af 8000 	nop.w
 8000a28:	480c      	ldr	r0, [pc, #48]	; (8000a5c <LoopForever+0x6>)
 8000a2a:	490d      	ldr	r1, [pc, #52]	; (8000a60 <LoopForever+0xa>)
 8000a2c:	4a0d      	ldr	r2, [pc, #52]	; (8000a64 <LoopForever+0xe>)
 8000a2e:	2300      	movs	r3, #0
 8000a30:	e002      	b.n	8000a38 <LoopCopyDataInit>

08000a32 <CopyDataInit>:
 8000a32:	58d4      	ldr	r4, [r2, r3]
 8000a34:	50c4      	str	r4, [r0, r3]
 8000a36:	3304      	adds	r3, #4

08000a38 <LoopCopyDataInit>:
 8000a38:	18c4      	adds	r4, r0, r3
 8000a3a:	428c      	cmp	r4, r1
 8000a3c:	d3f9      	bcc.n	8000a32 <CopyDataInit>
 8000a3e:	4a0a      	ldr	r2, [pc, #40]	; (8000a68 <LoopForever+0x12>)
 8000a40:	4c0a      	ldr	r4, [pc, #40]	; (8000a6c <LoopForever+0x16>)
 8000a42:	2300      	movs	r3, #0
 8000a44:	e001      	b.n	8000a4a <LoopFillZerobss>

08000a46 <FillZerobss>:
 8000a46:	6013      	str	r3, [r2, #0]
 8000a48:	3204      	adds	r2, #4

08000a4a <LoopFillZerobss>:
 8000a4a:	42a2      	cmp	r2, r4
 8000a4c:	d3fb      	bcc.n	8000a46 <FillZerobss>
 8000a4e:	f000 f811 	bl	8000a74 <__libc_init_array>
 8000a52:	f7ff ffa9 	bl	80009a8 <main>

08000a56 <LoopForever>:
 8000a56:	e7fe      	b.n	8000a56 <LoopForever>
 8000a58:	20005000 	andcs	r5, r0, r0
 8000a5c:	20000000 	andcs	r0, r0, r0
 8000a60:	20000000 	andcs	r0, r0, r0
 8000a64:	08000ae8 	stmdaeq	r0, {r3, r5, r6, r7, r9, fp}
 8000a68:	20000000 	andcs	r0, r0, r0
 8000a6c:	20000064 	andcs	r0, r0, r4, rrx

08000a70 <ADC1_2_IRQHandler>:
 8000a70:	e7fe      	b.n	8000a70 <ADC1_2_IRQHandler>
	...

08000a74 <__libc_init_array>:
 8000a74:	b570      	push	{r4, r5, r6, lr}
 8000a76:	2600      	movs	r6, #0
 8000a78:	4d0c      	ldr	r5, [pc, #48]	; (8000aac <__libc_init_array+0x38>)
 8000a7a:	4c0d      	ldr	r4, [pc, #52]	; (8000ab0 <__libc_init_array+0x3c>)
 8000a7c:	1b64      	subs	r4, r4, r5
 8000a7e:	10a4      	asrs	r4, r4, #2
 8000a80:	42a6      	cmp	r6, r4
 8000a82:	d109      	bne.n	8000a98 <__libc_init_array+0x24>
 8000a84:	f000 f81a 	bl	8000abc <_init>
 8000a88:	2600      	movs	r6, #0
 8000a8a:	4d0a      	ldr	r5, [pc, #40]	; (8000ab4 <__libc_init_array+0x40>)
 8000a8c:	4c0a      	ldr	r4, [pc, #40]	; (8000ab8 <__libc_init_array+0x44>)
 8000a8e:	1b64      	subs	r4, r4, r5
 8000a90:	10a4      	asrs	r4, r4, #2
 8000a92:	42a6      	cmp	r6, r4
 8000a94:	d105      	bne.n	8000aa2 <__libc_init_array+0x2e>
 8000a96:	bd70      	pop	{r4, r5, r6, pc}
 8000a98:	f855 3b04 	ldr.w	r3, [r5], #4
 8000a9c:	4798      	blx	r3
 8000a9e:	3601      	adds	r6, #1
 8000aa0:	e7ee      	b.n	8000a80 <__libc_init_array+0xc>
 8000aa2:	f855 3b04 	ldr.w	r3, [r5], #4
 8000aa6:	4798      	blx	r3
 8000aa8:	3601      	adds	r6, #1
 8000aaa:	e7f2      	b.n	8000a92 <__libc_init_array+0x1e>
 8000aac:	08000ae0 	stmdaeq	r0, {r5, r6, r7, r9, fp}
 8000ab0:	08000ae0 	stmdaeq	r0, {r5, r6, r7, r9, fp}
 8000ab4:	08000ae0 	stmdaeq	r0, {r5, r6, r7, r9, fp}
 8000ab8:	08000ae4 	stmdaeq	r0, {r2, r5, r6, r7, r9, fp}

08000abc <_init>:
 8000abc:	b5f8      	push	{r3, r4, r5, r6, r7, lr}
 8000abe:	bf00      	nop
 8000ac0:	bcf8      	pop	{r3, r4, r5, r6, r7}
 8000ac2:	bc08      	pop	{r3}
 8000ac4:	469e      	mov	lr, r3
 8000ac6:	4770      	bx	lr

08000ac8 <_fini>:
 8000ac8:	b5f8      	push	{r3, r4, r5, r6, r7, lr}
 8000aca:	bf00      	nop
 8000acc:	bcf8      	pop	{r3, r4, r5, r6, r7}
 8000ace:	bc08      	pop	{r3}
 8000ad0:	469e      	mov	lr, r3
 8000ad2:	4770      	bx	lr

Disassembly of section .rodata:

08000ad4 <.rodata>:
 8000ad4:	00000009 	andeq	r0, r0, r9
 8000ad8:	40010c00 	andmi	r0, r1, r0, lsl #24
 8000adc:	00170200 	andseq	r0, r7, r0, lsl #4

Disassembly of section .init_array:

08000ae0 <__frame_dummy_init_array_entry>:
 8000ae0:	08000155 	stmdaeq	r0, {r0, r2, r4, r6, r8}

Disassembly of section .fini_array:

08000ae4 <__do_global_dtors_aux_fini_array_entry>:
 8000ae4:	08000131 	stmdaeq	r0, {r0, r4, r5, r8}

Disassembly of section .bss:

20000000 <__bss_start__>:
20000000:	00000000 	andeq	r0, r0, r0

20000004 <object.0>:
	...

2000001c <GP_IRQ_CallBack>:
	...

20000058 <IRQ_Flag>:
20000058:	00000000 	andeq	r0, r0, r0

2000005c <control_val>:
2000005c:	00000000 	andeq	r0, r0, r0

20000060 <ipsr_val>:
20000060:	00000000 	andeq	r0, r0, r0

Disassembly of section ._user_heap_stack:

20000064 <_end-0x4>:
20000064:	00000000 	andeq	r0, r0, r0

20000068 <_end>:
	...

Disassembly of section .ARM.attributes:

00000000 <.ARM.attributes>:
   0:	00002841 	andeq	r2, r0, r1, asr #16
   4:	61656100 	cmnvs	r5, r0, lsl #2
   8:	01006962 	tsteq	r0, r2, ror #18
   c:	0000001e 	andeq	r0, r0, lr, lsl r0
  10:	4d2d3705 	stcmi	7, cr3, [sp, #-20]!	; 0xffffffec
  14:	070a0600 	streq	r0, [sl, -r0, lsl #12]
  18:	1202094d 	andne	r0, r2, #1261568	; 0x134000
  1c:	15011404 	strne	r1, [r1, #-1028]	; 0xfffffbfc
  20:	18031701 	stmdane	r3, {r0, r8, r9, sl, ip}
  24:	22011a01 	andcs	r1, r1, #4096	; 0x1000
  28:	Address 0x0000000000000028 is out of bounds.


Disassembly of section .comment:

00000000 <.comment>:
   0:	3a434347 	bcc	10d0d24 <_Min_Stack_Size+0x10d0924>
   4:	4e472820 	cdpmi	8, 4, cr2, cr7, cr0, {1}
   8:	6f542055 	svcvs	0x00542055
   c:	20736c6f 	rsbscs	r6, r3, pc, ror #24
  10:	20726f66 	rsbscs	r6, r2, r6, ror #30
  14:	334d5453 	movtcc	r5, #54355	; 0xd453
  18:	31312032 	teqcc	r1, r2, lsr r0
  1c:	722e332e 	eorvc	r3, lr, #-1207959552	; 0xb8000000
  20:	2e316c65 	cdpcs	12, 3, cr6, cr1, cr5, {3}
  24:	33323032 	teqcc	r2, #50	; 0x32
  28:	32313930 	eorscc	r3, r1, #48, 18	; 0xc0000
  2c:	3036312d 	eorscc	r3, r6, sp, lsr #2
  30:	31202930 			; <UNDEFINED> instruction: 0x31202930
  34:	2e332e31 	mrccs	14, 1, r2, cr3, cr1, {1}
  38:	30322031 	eorscc	r2, r2, r1, lsr r0
  3c:	37303232 			; <UNDEFINED> instruction: 0x37303232
  40:	Address 0x0000000000000040 is out of bounds.


Disassembly of section .debug_info:

00000000 <.debug_info>:
   0:	00000525 	andeq	r0, r0, r5, lsr #10
   4:	00000002 	andeq	r0, r0, r2
   8:	01040000 	mrseq	r0, (UNDEF: 4)
   c:	00001b4b 	andeq	r1, r0, fp, asr #22
  10:	006c070c 	rsbeq	r0, ip, ip, lsl #14
  14:	004c3500 	subeq	r3, ip, r0, lsl #10
	...
  2c:	07040200 	streq	r0, [r4, -r0, lsl #4]
  30:	0000277f 	andeq	r2, r0, pc, ror r7
  34:	69050403 	stmdbvs	r5, {r0, r1, sl}
  38:	0200746e 	andeq	r7, r0, #1845493760	; 0x6e000000
  3c:	5a150508 	bpl	541464 <_Min_Stack_Size+0x541064>
  40:	08020000 	stmdaeq	r2, {}	; <UNPREDICTABLE>
  44:	00041c04 	andeq	r1, r4, r4, lsl #24
  48:	06010200 	streq	r0, [r1], -r0, lsl #4
  4c:	0000081a 	andeq	r0, r0, sl, lsl r8
  50:	00157404 	andseq	r7, r5, r4, lsl #8
  54:	182b0200 	stmdane	fp!, {r9}
  58:	0000005c 	andeq	r0, r0, ip, asr r0
  5c:	ef080102 	svc	0x00080102
  60:	02000037 	andeq	r0, r0, #55	; 0x37
  64:	0b240502 	bleq	901474 <_Min_Stack_Size+0x901074>
  68:	90040000 	andls	r0, r4, r0
  6c:	02000030 	andeq	r0, r0, #48	; 0x30
  70:	00761939 	rsbseq	r1, r6, r9, lsr r9
  74:	02020000 	andeq	r0, r2, #0
  78:	0076ca07 	rsbseq	ip, r6, r7, lsl #20
  7c:	05040200 	streq	r0, [r4, #-512]	; 0xfffffe00
  80:	00007b10 	andeq	r7, r0, r0, lsl fp
  84:	00474804 	subeq	r4, r7, r4, lsl #16
  88:	194f0200 	stmdbne	pc, {r9}^	; <UNPREDICTABLE>
  8c:	00000090 	muleq	r0, r0, r0
  90:	f0070402 			; <UNDEFINED> instruction: 0xf0070402
  94:	0200001e 	andeq	r0, r0, #30
  98:	85120708 	ldrhi	r0, [r2, #-1800]	; 0xfffff8f8
  9c:	04050000 	streq	r0, [r5], #-0
  a0:	000000a4 	andeq	r0, r0, r4, lsr #1
  a4:	01020106 	tsteq	r2, r6, lsl #2
  a8:	00082108 	andeq	r2, r8, r8, lsl #2
  ac:	15760400 	ldrbne	r0, [r6, #-1024]!	; 0xfffffc00
  b0:	18030000 	stmdane	r3, {}	; <UNPREDICTABLE>
  b4:	00005013 	andeq	r5, r0, r3, lsl r0
  b8:	30920400 	addscc	r0, r2, r0, lsl #8
  bc:	24030000 	strcs	r0, [r3], #-0
  c0:	00006a14 	andeq	r6, r0, r4, lsl sl
  c4:	474a0400 	strbmi	r0, [sl, -r0, lsl #8]
  c8:	30030000 	andcc	r0, r3, r0
  cc:	00008414 	andeq	r8, r0, r4, lsl r4
  d0:	00c50700 	sbceq	r0, r5, r0, lsl #14
  d4:	1c080000 	stcne	0, cr0, [r8], {-0}
  d8:	49094e04 	stmdbmi	r9, {r2, r9, sl, fp, lr}
  dc:	09000001 	stmdbeq	r0, {r0}
  e0:	004c5243 	subeq	r5, ip, r3, asr #4
  e4:	d1145004 	tstle	r4, r4
  e8:	02000000 	andeq	r0, r0, #0
  ec:	43090023 	movwmi	r0, #36899	; 0x9023
  f0:	04004852 	streq	r4, [r0], #-2130	; 0xfffff7ae
  f4:	00d11451 	sbcseq	r1, r1, r1, asr r4
  f8:	23020000 	movwcs	r0, #8192	; 0x2000
  fc:	44490904 	strbmi	r0, [r9], #-2308	; 0xfffff6fc
 100:	52040052 	andpl	r0, r4, #82	; 0x52
 104:	0000d114 	andeq	sp, r0, r4, lsl r1
 108:	08230200 	stmdaeq	r3!, {r9}
 10c:	52444f09 	subpl	r4, r4, #9, 30	; 0x24
 110:	14530400 	ldrbne	r0, [r3], #-1024	; 0xfffffc00
 114:	000000d1 	ldrdeq	r0, [r0], -r1
 118:	0a0c2302 	beq	308d28 <_Min_Stack_Size+0x308928>
 11c:	00008ec7 	andeq	r8, r0, r7, asr #29
 120:	d1145404 	tstle	r4, r4, lsl #8
 124:	02000000 	andeq	r0, r0, #0
 128:	42091023 	andmi	r1, r9, #35	; 0x23
 12c:	04005252 	streq	r5, [r0], #-594	; 0xfffffdae
 130:	00d11455 	sbcseq	r1, r1, r5, asr r4
 134:	23020000 	movwcs	r0, #8192	; 0x2000
 138:	4bb60a14 	blmi	fed82990 <_estack+0xded7d990>
 13c:	56040000 	strpl	r0, [r4], -r0
 140:	0000d114 	andeq	sp, r0, r4, lsl r1
 144:	18230200 	stmdane	r3!, {r9}
 148:	35b70400 	ldrcc	r0, [r7, #1024]!	; 0x400
 14c:	58040000 	stmdapl	r4, {}	; <UNPREDICTABLE>
 150:	0000d602 	andeq	sp, r0, r2, lsl #12
 154:	04180800 	ldreq	r0, [r8], #-2048	; 0xfffff800
 158:	01b8096f 			; <UNDEFINED> instruction: 0x01b8096f
 15c:	49090000 	stmdbmi	r9, {}	; <UNPREDICTABLE>
 160:	0400524d 	streq	r5, [r0], #-589	; 0xfffffdb3
 164:	00d11471 	sbcseq	r1, r1, r1, ror r4
 168:	23020000 	movwcs	r0, #8192	; 0x2000
 16c:	4d450900 	vstrmi.16	s1, [r5, #-0]	; <UNPREDICTABLE>
 170:	72040052 	andvc	r0, r4, #82	; 0x52
 174:	0000d114 	andeq	sp, r0, r4, lsl r1
 178:	04230200 	strteq	r0, [r3], #-512	; 0xfffffe00
 17c:	001e760a 	andseq	r7, lr, sl, lsl #12
 180:	14730400 	ldrbtne	r0, [r3], #-1024	; 0xfffffc00
 184:	000000d1 	ldrdeq	r0, [r0], -r1
 188:	0a082302 	beq	208d98 <_Min_Stack_Size+0x208998>
 18c:	000013d8 	ldrdeq	r1, [r0], -r8
 190:	d1147404 	tstle	r4, r4, lsl #8
 194:	02000000 	andeq	r0, r0, #0
 198:	6f0a0c23 	svcvs	0x000a0c23
 19c:	04000070 	streq	r0, [r0], #-112	; 0xffffff90
 1a0:	00d11475 	sbcseq	r1, r1, r5, ror r4
 1a4:	23020000 	movwcs	r0, #8192	; 0x2000
 1a8:	52500910 	subspl	r0, r0, #16, 18	; 0x40000
 1ac:	14760400 	ldrbtne	r0, [r6], #-1024	; 0xfffffc00
 1b0:	000000d1 	ldrdeq	r0, [r0], -r1
 1b4:	00142302 	andseq	r2, r4, r2, lsl #6
 1b8:	006a7904 	rsbeq	r7, sl, r4, lsl #18
 1bc:	02780400 	rsbseq	r0, r8, #0, 8
 1c0:	00000155 	andeq	r0, r0, r5, asr r1
 1c4:	7d042008 	stcvc	0, cr2, [r4, #-32]	; 0xffffffe0
 1c8:	00021909 	andeq	r1, r2, r9, lsl #18
 1cc:	92af0a00 	adcls	r0, pc, #0, 20
 1d0:	7f040000 	svcvc	0x00040000
 1d4:	0000d114 	andeq	sp, r0, r4, lsl r1
 1d8:	00230200 	eoreq	r0, r3, r0, lsl #4
 1dc:	00786b0a 	rsbseq	r6, r8, sl, lsl #22
 1e0:	14800400 	strne	r0, [r0], #1024	; 0x400
 1e4:	000000d1 	ldrdeq	r0, [r0], -r1
 1e8:	0a042302 	beq	108df8 <_Min_Stack_Size+0x1089f8>
 1ec:	0000029c 	muleq	r0, ip, r2
 1f0:	29148104 	ldmdbcs	r4, {r2, r8, pc}
 1f4:	02000002 	andeq	r0, r0, #2
 1f8:	600a0823 	andvs	r0, sl, r3, lsr #16
 1fc:	04000027 	streq	r0, [r0], #-39	; 0xffffffd9
 200:	00c50d82 	sbceq	r0, r5, r2, lsl #27
 204:	23020000 	movwcs	r0, #8192	; 0x2000
 208:	34b90a18 	ldrtcc	r0, [r9], #2584	; 0xa18
 20c:	83040000 	movwhi	r0, #16384	; 0x4000
 210:	0000d114 	andeq	sp, r0, r4, lsl r1
 214:	1c230200 	sfmne	f0, 4, [r3], #-0
 218:	00d10b00 	sbcseq	r0, r1, r0, lsl #22
 21c:	02290000 	eoreq	r0, r9, #0
 220:	2d0c0000 	stccs	0, cr0, [ip, #-0]
 224:	03000000 	movweq	r0, #0
 228:	02190700 	andseq	r0, r9, #0, 14
 22c:	44040000 	strmi	r0, [r4], #-0
 230:	0400002f 	streq	r0, [r0], #-47	; 0xffffffd1
 234:	01c40285 	biceq	r0, r4, r5, lsl #5
 238:	04080000 	streq	r0, [r8], #-0
 23c:	71090e05 	tstvc	r9, r5, lsl #28
 240:	0a000002 	beq	250 <_Min_Heap_Size+0x50>
 244:	0000833f 	andeq	r8, r0, pc, lsr r3
 248:	b90b1005 	stmdblt	fp, {r0, r2, ip}
 24c:	02000000 	andeq	r0, r0, #0
 250:	eb0a0023 	bl	2802e4 <_Min_Stack_Size+0x27fee4>
 254:	05000079 	streq	r0, [r0, #-121]	; 0xffffff87
 258:	00ad0a13 	adceq	r0, sp, r3, lsl sl
 25c:	23020000 	movwcs	r0, #8192	; 0x2000
 260:	037e0a02 	cmneq	lr, #8192	; 0x2000
 264:	16050000 	strne	r0, [r5], -r0
 268:	0000ad0a 	andeq	sl, r0, sl, lsl #26
 26c:	03230200 			; <UNDEFINED> instruction: 0x03230200
 270:	30df0400 	sbcscc	r0, pc, r0, lsl #8
 274:	18050000 	stmdane	r5, {}	; <UNPREDICTABLE>
 278:	00023a02 	andeq	r3, r2, r2, lsl #20
 27c:	060c0800 	streq	r0, [ip], -r0, lsl #16
 280:	02c3090e 	sbceq	r0, r3, #229376	; 0x38000
 284:	4e0a0000 	cdpmi	0, 0, cr0, cr10, cr0, {0}
 288:	06000058 			; <UNDEFINED> instruction: 0x06000058
 28c:	00b90c10 	adcseq	r0, r9, r0, lsl ip
 290:	23020000 	movwcs	r0, #8192	; 0x2000
 294:	223f0a00 	eorscs	r0, pc, #0, 20
 298:	11060000 	mrsne	r0, (UNDEF: 6)
 29c:	0002c310 	andeq	ip, r2, r0, lsl r3
 2a0:	04230200 	strteq	r0, [r3], #-512	; 0xfffffe00
 2a4:	007c750a 	rsbseq	r7, ip, sl, lsl #10
 2a8:	0c120600 	ldceq	6, cr0, [r2], {-0}
 2ac:	000000b9 	strheq	r0, [r0], -r9
 2b0:	0a082302 	beq	208ec0 <_Min_Stack_Size+0x208ac0>
 2b4:	00009f6a 	andeq	r9, r0, sl, ror #30
 2b8:	ad0c1306 	stcge	3, cr1, [ip, #-24]	; 0xffffffe8
 2bc:	02000000 	andeq	r0, r0, #0
 2c0:	05000a23 	streq	r0, [r0, #-2595]	; 0xfffff5dd
 2c4:	00014904 	andeq	r4, r1, r4, lsl #18
 2c8:	0fac0400 	svceq	0x00ac0400
 2cc:	14060000 	strne	r0, [r6], #-0
 2d0:	00027d02 	andeq	r7, r2, r2, lsl #26
 2d4:	06140800 	ldreq	r0, [r4], -r0, lsl #16
 2d8:	031b0916 	tsteq	fp, #360448	; 0x58000
 2dc:	650a0000 	strvs	r0, [sl, #-0]
 2e0:	0600005a 			; <UNDEFINED> instruction: 0x0600005a
 2e4:	02c91518 	sbceq	r1, r9, #24, 10	; 0x6000000
 2e8:	23020000 	movwcs	r0, #8192	; 0x2000
 2ec:	391d0a00 	ldmdbcc	sp, {r9, fp}
 2f0:	1b060000 	blne	1802f8 <_Min_Stack_Size+0x17fef8>
 2f4:	0000ad0d 	andeq	sl, r0, sp, lsl #26
 2f8:	0c230200 	sfmeq	f0, 4, [r3], #-0
 2fc:	00773d0a 	rsbseq	r3, r7, sl, lsl #26
 300:	0d1e0600 	ldceq	6, cr0, [lr, #-0]
 304:	000000ad 	andeq	r0, r0, sp, lsr #1
 308:	0a0d2302 	beq	348f18 <_Min_Stack_Size+0x348b18>
 30c:	000069e8 	andeq	r6, r0, r8, ror #19
 310:	9e092106 	adflse	f2, f1, f6
 314:	02000000 	andeq	r0, r0, #0
 318:	04001023 	streq	r1, [r0], #-35	; 0xffffffdd
 31c:	00003237 	andeq	r3, r0, r7, lsr r2
 320:	d5022206 	strle	r2, [r2, #-518]	; 0xfffffdfa
 324:	0b000002 	bleq	334 <_Min_Heap_Size+0x134>
 328:	0000009e 	muleq	r0, lr, r0
 32c:	00000337 	andeq	r0, r0, r7, lsr r3
 330:	00002d0c 	andeq	r2, r0, ip, lsl #26
 334:	0d000e00 	stceq	14, cr0, [r0, #-0]
 338:	000069e7 	andeq	r6, r0, r7, ror #19
 33c:	27081001 	strcs	r1, [r8, -r1]
 340:	01000003 	tsteq	r0, r3
 344:	001c0305 	andseq	r0, ip, r5, lsl #6
 348:	010e2000 	mrseq	r2, (UNDEF: 14)
 34c:	0000011d 	andeq	r0, r0, sp, lsl r1
 350:	01066005 	tsteq	r6, r5
 354:	00036401 	andeq	r6, r3, r1, lsl #8
 358:	02c30f00 	sbceq	r0, r3, #0, 30
 35c:	640f0000 	strvs	r0, [pc], #-0	; 364 <_Min_Heap_Size+0x164>
 360:	00000003 	andeq	r0, r0, r3
 364:	02710405 	rsbseq	r0, r1, #83886080	; 0x5000000
 368:	01100000 	tsteq	r0, r0
 36c:	000093f7 	strdeq	r9, [r0], -r7
 370:	0106f601 	tsteq	r6, r1, lsl #12	; <UNPREDICTABLE>
 374:	08000654 	stmdaeq	r0, {r2, r4, r6, r9, sl}
 378:	08000718 	stmdaeq	r0, {r3, r4, r8, r9, sl}
 37c:	00000000 	andeq	r0, r0, r0
 380:	6d011001 	stcvs	0, cr1, [r1, #-4]
 384:	0100007e 	tsteq	r0, lr, ror r0
 388:	ac0106ea 	stcge	6, cr0, [r1], {234}	; 0xea
 38c:	54080005 	strpl	r0, [r8], #-5
 390:	2c080006 	stccs	0, cr0, [r8], {6}
 394:	01000000 	mrseq	r0, (UNDEF: 0)
 398:	2dc20110 	stfcse	f0, [r2, #64]	; 0x40
 39c:	e5010000 	str	r0, [r1, #-0]
 3a0:	05880106 	streq	r0, [r8, #262]	; 0x106
 3a4:	05ac0800 	streq	r0, [ip, #2048]!	; 0x800
 3a8:	00580800 	subseq	r0, r8, r0, lsl #16
 3ac:	10010000 	andne	r0, r1, r0
 3b0:	008b8e01 	addeq	r8, fp, r1, lsl #28
 3b4:	06e00100 	strbteq	r0, [r0], r0, lsl #2
 3b8:	00056401 	andeq	r6, r5, r1, lsl #8
 3bc:	00058808 	andeq	r8, r5, r8, lsl #16
 3c0:	00008408 	andeq	r8, r0, r8, lsl #8
 3c4:	01100100 	tsteq	r0, r0, lsl #2
 3c8:	000078ed 	andeq	r7, r0, sp, ror #17
 3cc:	0106db01 	tsteq	r6, r1, lsl #22
 3d0:	08000540 	stmdaeq	r0, {r6, r8, sl}
 3d4:	08000564 	stmdaeq	r0, {r2, r5, r6, r8, sl}
 3d8:	000000b0 	strheq	r0, [r0], -r0	; <UNPREDICTABLE>
 3dc:	3c011001 	stccc	0, cr1, [r1], {1}
 3e0:	010000a0 	smlatbeq	r0, r0, r0, r0
 3e4:	1c0106d6 	stcne	6, cr0, [r1], {214}	; 0xd6
 3e8:	40080005 	andmi	r0, r8, r5
 3ec:	dc080005 	stcle	0, cr0, [r8], {5}
 3f0:	01000000 	mrseq	r0, (UNDEF: 0)
 3f4:	8f490110 	svchi	0x00490110
 3f8:	d1010000 	mrsle	r0, (UNDEF: 1)
 3fc:	04f80106 	ldrbteq	r0, [r8], #262	; 0x106
 400:	051c0800 	ldreq	r0, [ip, #-2048]	; 0xfffff800
 404:	01080800 	tsteq	r8, r0, lsl #16
 408:	11010000 	mrsne	r0, (UNDEF: 1)
 40c:	00104f01 	andseq	r4, r0, r1, lsl #30
 410:	06c70100 	strbeq	r0, [r7], r0, lsl #2
 414:	00000001 	andeq	r0, r0, r1
 418:	00000000 	andeq	r0, r0, r0
 41c:	00013400 	andeq	r3, r1, r0, lsl #8
 420:	04360100 	ldrteq	r0, [r6], #-256	; 0xffffff00
 424:	f8120000 			; <UNDEFINED> instruction: 0xf8120000
 428:	0100002d 	tsteq	r0, sp, lsr #32
 42c:	04362ec7 	ldrteq	r2, [r6], #-3783	; 0xfffff139
 430:	91020000 	mrsls	r0, (UNDEF: 2)
 434:	04050074 	streq	r0, [r5], #-116	; 0xffffff8c
 438:	0000031b 	andeq	r0, r0, fp, lsl r3
 43c:	519f0113 	orrspl	r0, pc, r3, lsl r1	; <UNPREDICTABLE>
 440:	b8010000 	stmdalt	r1, {}	; <UNPREDICTABLE>
 444:	04e00106 	strbteq	r0, [r0], #262	; 0x106
 448:	04f60800 	ldrbteq	r0, [r6], #2048	; 0x800
 44c:	01900800 	orrseq	r0, r0, r0, lsl #16
 450:	67010000 	strvs	r0, [r1, -r0]
 454:	12000004 	andne	r0, r0, #4
 458:	00002df8 	strdeq	r2, [r0], -r8
 45c:	362cb801 	strtcc	fp, [ip], -r1, lsl #16
 460:	02000004 	andeq	r0, r0, #4
 464:	14007491 	strne	r7, [r0], #-1169	; 0xfffffb6f
 468:	00386001 	eorseq	r6, r8, r1
 46c:	069b0100 	ldreq	r0, [fp], r0, lsl #2
 470:	00000001 	andeq	r0, r0, r1
 474:	00000000 	andeq	r0, r0, r0
 478:	0001e000 	andeq	lr, r1, r0
 47c:	01130100 	tsteq	r3, r0, lsl #2
 480:	00001c02 	andeq	r1, r0, r2, lsl #24
 484:	01065c01 	tsteq	r6, r1, lsl #24
 488:	08000308 	stmdaeq	r0, {r3, r8, r9}
 48c:	080004e0 	stmdaeq	r0, {r5, r6, r7, sl}
 490:	00000224 	andeq	r0, r0, r4, lsr #4
 494:	0004d601 	andeq	sp, r4, r1, lsl #12
 498:	2df81200 	lfmcs	f1, 2, [r8]
 49c:	5c010000 	stcpl	0, cr0, [r1], {-0}
 4a0:	00043624 	andeq	r3, r4, r4, lsr #12
 4a4:	6c910200 	lfmvs	f0, 4, [r1], {0}
 4a8:	00246a15 	eoreq	r6, r4, r5, lsl sl
 4ac:	135f0100 	cmpne	pc, #0, 2
 4b0:	00000271 	andeq	r0, r0, r1, ror r2
 4b4:	15709102 	ldrbne	r9, [r0, #-258]!	; 0xfffffefe
 4b8:	00008e87 	andeq	r8, r0, r7, lsl #29
 4bc:	ad0a6701 	stcge	7, cr6, [sl, #-4]
 4c0:	02000000 	andeq	r0, r0, #0
 4c4:	81157791 			; <UNDEFINED> instruction: 0x81157791
 4c8:	0100009a 	swpeq	r0, sl, [r0]	; <UNPREDICTABLE>
 4cc:	00ad0a68 	adceq	r0, sp, r8, ror #20
 4d0:	91020000 	mrsls	r0, (UNDEF: 2)
 4d4:	01110076 	tsteq	r1, r6, ror r0
 4d8:	00009fb4 			; <UNDEFINED> instruction: 0x00009fb4
 4dc:	01063701 	tsteq	r6, r1, lsl #14
 4e0:	0800023c 	stmdaeq	r0, {r2, r3, r4, r5, r9}
 4e4:	08000308 	stmdaeq	r0, {r3, r8, r9}
 4e8:	00000274 	andeq	r0, r0, r4, ror r2
 4ec:	00050101 	andeq	r0, r5, r1, lsl #2
 4f0:	52491600 	subpl	r1, r9, #0, 12
 4f4:	37010051 	smlsdcc	r1, r1, r0, r0
 4f8:	0000b91c 	andeq	fp, r0, ip, lsl r9
 4fc:	76910200 	ldrvc	r0, [r1], r0, lsl #4
 500:	d8011700 	stmdale	r1, {r8, r9, sl, ip}
 504:	010000a3 	smlatbeq	r0, r3, r0, r0
 508:	70010612 	andvc	r0, r1, r2, lsl r6
 50c:	3c080001 	stccc	0, cr0, [r8], {1}
 510:	d0080002 	andle	r0, r8, r2
 514:	01000002 	tsteq	r0, r2
 518:	51524916 	cmppl	r2, r6, lsl r9
 51c:	1b120100 	blne	480924 <_Min_Stack_Size+0x480524>
 520:	000000b9 	strheq	r0, [r0], -r9
 524:	00769102 	rsbseq	r9, r6, r2, lsl #2
 528:	00049700 	andeq	r9, r4, r0, lsl #14
 52c:	80000200 	andhi	r0, r0, r0, lsl #4
 530:	04000001 	streq	r0, [r0], #-1
 534:	001b4b01 	andseq	r4, fp, r1, lsl #22
 538:	a5e00c00 	strbge	r0, [r0, #3072]!	; 0xc00
 53c:	4c350000 	ldcmi	0, cr0, [r5], #-0
 540:	00700000 	rsbseq	r0, r0, r0
	...
 54c:	09ef0000 	stmibeq	pc!, {}^	; <UNPREDICTABLE>
 550:	22600000 	rsbcs	r0, r0, #0
 554:	04020000 	streq	r0, [r2], #-0
 558:	00277f07 	eoreq	r7, r7, r7, lsl #30
 55c:	05040300 	streq	r0, [r4, #-768]	; 0xfffffd00
 560:	00746e69 	rsbseq	r6, r4, r9, ror #28
 564:	15050802 	strne	r0, [r5, #-2050]	; 0xfffff7fe
 568:	0200005a 	andeq	r0, r0, #90	; 0x5a
 56c:	041c0408 	ldreq	r0, [ip], #-1032	; 0xfffffbf8
 570:	01020000 	mrseq	r0, (UNDEF: 2)
 574:	00081a06 	andeq	r1, r8, r6, lsl #20
 578:	15740400 	ldrbne	r0, [r4, #-1024]!	; 0xfffffc00
 57c:	2b020000 	blcs	80584 <_Min_Stack_Size+0x80184>
 580:	00005c18 	andeq	r5, r0, r8, lsl ip
 584:	08010200 	stmdaeq	r1, {r9}
 588:	000037ef 	andeq	r3, r0, pc, ror #15
 58c:	24050202 	strcs	r0, [r5], #-514	; 0xfffffdfe
 590:	0400000b 	streq	r0, [r0], #-11
 594:	00003090 	muleq	r0, r0, r0
 598:	76193902 	ldrvc	r3, [r9], -r2, lsl #18
 59c:	02000000 	andeq	r0, r0, #0
 5a0:	76ca0702 	strbvc	r0, [sl], r2, lsl #14
 5a4:	04020000 	streq	r0, [r2], #-0
 5a8:	007b1005 	rsbseq	r1, fp, r5
 5ac:	47480400 	strbmi	r0, [r8, -r0, lsl #8]
 5b0:	4f020000 	svcmi	0x00020000
 5b4:	00009019 	andeq	r9, r0, r9, lsl r0
 5b8:	07040200 	streq	r0, [r4, -r0, lsl #4]
 5bc:	00001ef0 	strdeq	r1, [r0], -r0
 5c0:	12070802 	andne	r0, r7, #131072	; 0x20000
 5c4:	02000085 	andeq	r0, r0, #133	; 0x85
 5c8:	08210801 	stmdaeq	r1!, {r0, fp}
 5cc:	76040000 	strvc	r0, [r4], -r0
 5d0:	03000015 	movweq	r0, #21
 5d4:	00501318 	subseq	r1, r0, r8, lsl r3
 5d8:	92040000 	andls	r0, r4, #0
 5dc:	03000030 	movweq	r0, #48	; 0x30
 5e0:	006a1424 	rsbeq	r1, sl, r4, lsr #8
 5e4:	4a040000 	bmi	1005ec <_Min_Stack_Size+0x1001ec>
 5e8:	03000047 	movweq	r0, #71	; 0x47
 5ec:	00841430 	addeq	r1, r4, r0, lsr r4
 5f0:	bd050000 	stclt	0, cr0, [r5, #-0]
 5f4:	06000000 	streq	r0, [r0], -r0
 5f8:	094e041c 	stmdbeq	lr, {r2, r3, r4, sl}^
 5fc:	00000141 	andeq	r0, r0, r1, asr #2
 600:	4c524307 	mrrcmi	3, 0, r4, r2, cr7
 604:	14500400 	ldrbne	r0, [r0], #-1024	; 0xfffffc00
 608:	000000c9 	andeq	r0, r0, r9, asr #1
 60c:	07002302 	streq	r2, [r0, -r2, lsl #6]
 610:	00485243 	subeq	r5, r8, r3, asr #4
 614:	c9145104 	ldmdbgt	r4, {r2, r8, ip, lr}
 618:	02000000 	andeq	r0, r0, #0
 61c:	49070423 	stmdbmi	r7, {r0, r1, r5, sl}
 620:	04005244 	streq	r5, [r0], #-580	; 0xfffffdbc
 624:	00c91452 	sbceq	r1, r9, r2, asr r4
 628:	23020000 	movwcs	r0, #8192	; 0x2000
 62c:	444f0708 	strbmi	r0, [pc], #-1800	; 634 <_Min_Stack_Size+0x234>
 630:	53040052 	movwpl	r0, #16466	; 0x4052
 634:	0000c914 	andeq	ip, r0, r4, lsl r9
 638:	0c230200 	sfmeq	f0, 4, [r3], #-0
 63c:	008ec708 	addeq	ip, lr, r8, lsl #14
 640:	14540400 	ldrbne	r0, [r4], #-1024	; 0xfffffc00
 644:	000000c9 	andeq	r0, r0, r9, asr #1
 648:	07102302 	ldreq	r2, [r0, -r2, lsl #6]
 64c:	00525242 	subseq	r5, r2, r2, asr #4
 650:	c9145504 	ldmdbgt	r4, {r2, r8, sl, ip, lr}
 654:	02000000 	andeq	r0, r0, #0
 658:	b6081423 	strlt	r1, [r8], -r3, lsr #8
 65c:	0400004b 	streq	r0, [r0], #-75	; 0xffffffb5
 660:	00c91456 	sbceq	r1, r9, r6, asr r4
 664:	23020000 	movwcs	r0, #8192	; 0x2000
 668:	b7040018 	smladlt	r4, r8, r0, r0
 66c:	04000035 	streq	r0, [r0], #-53	; 0xffffffcb
 670:	00ce0258 	sbceq	r0, lr, r8, asr r2
 674:	28060000 	stmdacs	r6, {}	; <UNPREDICTABLE>
 678:	ec095d04 	stc	13, cr5, [r9], {4}
 67c:	07000001 	streq	r0, [r0, -r1]
 680:	04005243 	streq	r5, [r0], #-579	; 0xfffffdbd
 684:	00c9145f 	sbceq	r1, r9, pc, asr r4
 688:	23020000 	movwcs	r0, #8192	; 0x2000
 68c:	a4eb0800 	strbtge	r0, [fp], #2048	; 0x800
 690:	60040000 	andvs	r0, r4, r0
 694:	0000c914 	andeq	ip, r0, r4, lsl r9
 698:	04230200 	strteq	r0, [r3], #-512	; 0xfffffe00
 69c:	52494307 	subpl	r4, r9, #469762048	; 0x1c000000
 6a0:	14610400 	strbtne	r0, [r1], #-1024	; 0xfffffc00
 6a4:	000000c9 	andeq	r0, r0, r9, asr #1
 6a8:	08082302 	stmdaeq	r8, {r1, r8, r9, sp}
 6ac:	0000a596 	muleq	r0, r6, r5
 6b0:	c9146204 	ldmdbgt	r4, {r2, r9, sp, lr}
 6b4:	02000000 	andeq	r0, r0, #0
 6b8:	b3080c23 	movwlt	r0, #35875	; 0x8c23
 6bc:	040000a5 	streq	r0, [r0], #-165	; 0xffffff5b
 6c0:	00c91463 	sbceq	r1, r9, r3, ror #8
 6c4:	23020000 	movwcs	r0, #8192	; 0x2000
 6c8:	a6080810 			; <UNDEFINED> instruction: 0xa6080810
 6cc:	64040000 	strvs	r0, [r4], #-0
 6d0:	0000c914 	andeq	ip, r0, r4, lsl r9
 6d4:	14230200 	strtne	r0, [r3], #-512	; 0xfffffe00
 6d8:	00a50208 	adceq	r0, r5, r8, lsl #4
 6dc:	14650400 	strbtne	r0, [r5], #-1024	; 0xfffffc00
 6e0:	000000c9 	andeq	r0, r0, r9, asr #1
 6e4:	08182302 	ldmdaeq	r8, {r1, r8, r9, sp}
 6e8:	0000a5bc 			; <UNDEFINED> instruction: 0x0000a5bc
 6ec:	c9146604 	ldmdbgt	r4, {r2, r9, sl, sp, lr}
 6f0:	02000000 	andeq	r0, r0, #0
 6f4:	3d081c23 	stccc	12, cr1, [r8, #-140]	; 0xffffff74
 6f8:	040000a5 	streq	r0, [r0], #-165	; 0xffffff5b
 6fc:	00c91467 	sbceq	r1, r9, r7, ror #8
 700:	23020000 	movwcs	r0, #8192	; 0x2000
 704:	53430720 	movtpl	r0, #14112	; 0x3720
 708:	68040052 	stmdavs	r4, {r1, r4, r6}
 70c:	0000c914 	andeq	ip, r0, r4, lsl r9
 710:	24230200 	strtcs	r0, [r3], #-512	; 0xfffffe00
 714:	a50a0400 	strge	r0, [sl, #-1024]	; 0xfffffc00
 718:	6a040000 	bvs	100720 <_Min_Stack_Size+0x100320>
 71c:	00014d02 	andeq	r4, r1, r2, lsl #26
 720:	05040600 	streq	r0, [r4, #-1536]	; 0xfffffa00
 724:	022f090e 	eoreq	r0, pc, #229376	; 0x38000
 728:	3f080000 	svccc	0x00080000
 72c:	05000083 	streq	r0, [r0, #-131]	; 0xffffff7d
 730:	00b10b10 	adcseq	r0, r1, r0, lsl fp
 734:	23020000 	movwcs	r0, #8192	; 0x2000
 738:	79eb0800 	stmibvc	fp!, {fp}^
 73c:	13050000 	movwne	r0, #20480	; 0x5000
 740:	0000a50a 	andeq	sl, r0, sl, lsl #10
 744:	02230200 	eoreq	r0, r3, #0, 4
 748:	00037e08 	andeq	r7, r3, r8, lsl #28
 74c:	0a160500 	beq	581b54 <_Min_Stack_Size+0x581754>
 750:	000000a5 	andeq	r0, r0, r5, lsr #1
 754:	00032302 	andeq	r2, r3, r2, lsl #6
 758:	0030df04 	eorseq	sp, r0, r4, lsl #30
 75c:	02180500 	andseq	r0, r8, #0, 10
 760:	000001f8 	strdeq	r0, [r0], -r8
 764:	a5650109 	strbge	r0, [r5, #-265]!	; 0xfffffef7
 768:	26010000 	strcs	r0, [r1], -r0
 76c:	a5010901 	strge	r0, [r1, #-2305]	; 0xfffff6ff
	...
 778:	2c000000 	stccs	0, cr0, [r0], {-0}
 77c:	01000003 	tsteq	r0, r3
 780:	0000028c 	andeq	r0, r0, ip, lsl #5
 784:	00a5420a 	adceq	r4, r5, sl, lsl #4
 788:	01260100 			; <UNDEFINED> instruction: 0x01260100
 78c:	00028c29 	andeq	r8, r2, r9, lsr #24
 790:	6c910200 	lfmvs	f0, 4, [r1], {0}
 794:	0083440a 	addeq	r4, r3, sl, lsl #8
 798:	01260100 			; <UNDEFINED> instruction: 0x01260100
 79c:	0000b139 	andeq	fp, r0, r9, lsr r1
 7a0:	6a910200 	bvs	fe440fa8 <_estack+0xde43bfa8>
 7a4:	00a6280b 	adceq	r2, r6, fp, lsl #16
 7a8:	013a0100 	teqeq	sl, r0, lsl #2
 7ac:	0000c914 	andeq	ip, r0, r4, lsl r9
 7b0:	74910200 	ldrvc	r0, [r1], #512	; 0x200
 7b4:	41040c00 	tstmi	r4, r0, lsl #24
 7b8:	0d000001 	stceq	0, cr0, [r0, #-4]
 7bc:	00a51601 	adceq	r1, r5, r1, lsl #12
 7c0:	01170100 	tsteq	r7, r0, lsl #2
 7c4:	00000106 	andeq	r0, r0, r6, lsl #2
 7c8:	00000000 	andeq	r0, r0, r0
 7cc:	03880000 	orreq	r0, r8, #0
 7d0:	cf010000 	svcgt	0x00010000
 7d4:	0a000002 	beq	7e4 <_Min_Stack_Size+0x3e4>
 7d8:	0000a542 	andeq	sl, r0, r2, asr #10
 7dc:	28011701 	stmdacs	r1, {r0, r8, r9, sl, ip}
 7e0:	0000028c 	andeq	r0, r0, ip, lsl #5
 7e4:	0a749102 	beq	1d24bf4 <_Min_Stack_Size+0x1d247f4>
 7e8:	00008344 	andeq	r8, r0, r4, asr #6
 7ec:	38011701 	stmdacc	r1, {r0, r8, r9, sl, ip}
 7f0:	000000b1 	strheq	r0, [r0], -r1
 7f4:	00729102 	rsbseq	r9, r2, r2, lsl #2
 7f8:	a59f010d 	ldrge	r0, [pc, #269]	; 90d <_Min_Stack_Size+0x50d>
 7fc:	08010000 	stmdaeq	r1, {}	; <UNPREDICTABLE>
 800:	00010601 	andeq	r0, r1, r1, lsl #12
 804:	00000000 	andeq	r0, r0, r0
 808:	e4000000 	str	r0, [r0], #-0
 80c:	01000003 	tsteq	r0, r3
 810:	0000030c 	andeq	r0, r0, ip, lsl #6
 814:	00a5420a 	adceq	r4, r5, sl, lsl #4
 818:	01080100 	mrseq	r0, (UNDEF: 24)
 81c:	00028c28 	andeq	r8, r2, r8, lsr #24
 820:	74910200 	ldrvc	r0, [r1], #512	; 0x200
 824:	00a6220a 	adceq	r2, r6, sl, lsl #4
 828:	01080100 	mrseq	r0, (UNDEF: 24)
 82c:	0000b138 	andeq	fp, r0, r8, lsr r1
 830:	72910200 	addsvc	r0, r1, #0, 4
 834:	2a010e00 	bcs	4403c <_Min_Stack_Size+0x43c3c>
 838:	010000a5 	smlatbeq	r0, r5, r0, r0
 83c:	000106e0 	andeq	r0, r1, r0, ror #13
 840:	00000000 	andeq	r0, r0, r0
 844:	40000000 	andmi	r0, r0, r0
 848:	01000004 	tsteq	r0, r4
 84c:	00000355 	andeq	r0, r0, r5, asr r3
 850:	00a5420f 	adceq	r4, r5, pc, lsl #4
 854:	27e00100 	strbcs	r0, [r0, r0, lsl #2]!
 858:	0000028c 	andeq	r0, r0, ip, lsl #5
 85c:	0f749102 	svceq	0x00749102
 860:	00008344 	andeq	r8, r0, r4, asr #6
 864:	b137e001 	teqlt	r7, r1
 868:	02000000 	andeq	r0, r0, #0
 86c:	220f7291 	andcs	r7, pc, #268435465	; 0x10000009
 870:	010000a6 	smlatbeq	r0, r6, r0, r0
 874:	00a54ae0 	adceq	r4, r5, r0, ror #21
 878:	91020000 	mrsls	r0, (UNDEF: 2)
 87c:	01100071 	tsteq	r0, r1, ror r0
 880:	0000a60f 	andeq	sl, r0, pc, lsl #12
 884:	010ace01 	tsteq	sl, r1, lsl #28
 888:	000000b1 	strheq	r0, [r0], -r1
	...
 894:	0000049c 	muleq	r0, ip, r4
 898:	00039301 	andeq	r9, r3, r1, lsl #6
 89c:	a5420f00 	strbge	r0, [r2, #-3840]	; 0xfffff100
 8a0:	ce010000 	cdpgt	0, 0, cr0, cr1, cr0, {0}
 8a4:	00028c2b 	andeq	r8, r2, fp, lsr #24
 8a8:	6c910200 	lfmvs	f0, 4, [r1], {0}
 8ac:	00a5d511 	adceq	sp, r5, r1, lsl r5
 8b0:	0bd00100 	bleq	ff400cb8 <_estack+0xdf3fbcb8>
 8b4:	000000b1 	strheq	r0, [r0], -r1
 8b8:	00769102 	rsbseq	r9, r6, r2, lsl #2
 8bc:	a5530110 	ldrbge	r0, [r3, #-272]	; 0xfffffef0
 8c0:	b7010000 	strlt	r0, [r1, -r0]
 8c4:	00a50109 	adceq	r0, r5, r9, lsl #2
	...
 8d0:	04f80000 	ldrbteq	r0, [r8], #0
 8d4:	e0010000 	and	r0, r1, r0
 8d8:	0f000003 	svceq	0x00000003
 8dc:	0000a542 	andeq	sl, r0, r2, asr #10
 8e0:	8c29b701 	stchi	7, cr11, [r9], #-4
 8e4:	02000002 	andeq	r0, r0, #2
 8e8:	440f6c91 	strmi	r6, [pc], #-3217	; 8f0 <_Min_Stack_Size+0x4f0>
 8ec:	01000083 	smlabbeq	r0, r3, r0, r0
 8f0:	00b139b7 	ldrhteq	r3, [r1], r7
 8f4:	91020000 	mrsls	r0, (UNDEF: 2)
 8f8:	a5fe116a 	ldrbge	r1, [lr, #362]!	; 0x16a
 8fc:	b9010000 	stmdblt	r1, {}	; <UNPREDICTABLE>
 900:	0000a50a 	andeq	sl, r0, sl, lsl #10
 904:	77910200 	ldrvc	r0, [r1, r0, lsl #4]
 908:	c4010e00 	strgt	r0, [r1], #-3584	; 0xfffff200
 90c:	010000a5 	smlatbeq	r0, r5, r0, r0
 910:	00010685 	andeq	r0, r1, r5, lsl #13
 914:	00000000 	andeq	r0, r0, r0
 918:	54000000 	strpl	r0, [r0], #-0
 91c:	01000005 	tsteq	r0, r5
 920:	0000040b 	andeq	r0, r0, fp, lsl #8
 924:	00a5420f 	adceq	r4, r5, pc, lsl #4
 928:	25850100 	strcs	r0, [r5, #256]	; 0x100
 92c:	0000028c 	andeq	r0, r0, ip, lsl #5
 930:	00749102 	rsbseq	r9, r4, r2, lsl #2
 934:	011d0112 	tsteq	sp, r2, lsl r1
 938:	4d010000 	stcmi	0, cr0, [r1, #-0]
 93c:	08880106 	stmeq	r8, {r1, r2, r8}
 940:	09820800 	stmibeq	r2, {fp}
 944:	05b00800 	ldreq	r0, [r0, #2048]!	; 0x800
 948:	63010000 	movwvs	r0, #4096	; 0x1000
 94c:	0f000004 	svceq	0x00000004
 950:	0000a542 	andeq	sl, r0, r2, asr #10
 954:	8c234d01 	stchi	13, cr4, [r3], #-4
 958:	02000002 	andeq	r0, r0, #2
 95c:	770f6491 			; <UNDEFINED> instruction: 0x770f6491
 960:	010000a5 	smlatbeq	r0, r5, r0, r0
 964:	04633c4d 	strbteq	r3, [r3], #-3149	; 0xfffff3b3
 968:	91020000 	mrsls	r0, (UNDEF: 2)
 96c:	a5861160 	strge	r1, [r6, #352]	; 0x160
 970:	51010000 	mrspl	r0, (UNDEF: 1)
 974:	00046915 	andeq	r6, r4, r5, lsl r9
 978:	68910200 	ldmvs	r1, {r9}
 97c:	00a54811 	adceq	r4, r5, r1, lsl r8
 980:	0a530100 	beq	14c0d88 <_Min_Stack_Size+0x14c0988>
 984:	000000a5 	andeq	r0, r0, r5, lsr #1
 988:	006f9102 	rsbeq	r9, pc, r2, lsl #2
 98c:	022f040c 	eoreq	r0, pc, #12, 8	; 0xc000000
 990:	040c0000 	streq	r0, [ip], #-0
 994:	000000c9 	andeq	r0, r0, r9, asr #1
 998:	a4f00113 	ldrbtge	r0, [r0], #275	; 0x113
 99c:	15010000 	strne	r0, [r1, #-0]
 9a0:	00a50109 	adceq	r0, r5, r9, lsl #2
 9a4:	07180000 	ldreq	r0, [r8, -r0]
 9a8:	08860800 	stmeq	r6, {fp}
 9ac:	06000800 	streq	r0, [r0], -r0, lsl #16
 9b0:	0f010000 	svceq	0x00010000
 9b4:	00008344 	andeq	r8, r0, r4, asr #6
 9b8:	b1241501 			; <UNDEFINED> instruction: 0xb1241501
 9bc:	02000000 	andeq	r0, r0, #0
 9c0:	00007691 	muleq	r0, r1, r6
 9c4:	00000379 	andeq	r0, r0, r9, ror r3
 9c8:	02ef0002 	rsceq	r0, pc, #2
 9cc:	01040000 	mrseq	r0, (UNDEF: 4)
 9d0:	00001b4b 	andeq	r1, r0, fp, asr #22
 9d4:	00a66d0c 	adceq	r6, r6, ip, lsl #26
 9d8:	004c3500 	subeq	r3, ip, r0, lsl #10
 9dc:	0000c000 	andeq	ip, r0, r0
	...
 9e8:	00121000 	andseq	r1, r2, r0
 9ec:	00247600 	eoreq	r7, r4, r0, lsl #12
 9f0:	07040200 	streq	r0, [r4, -r0, lsl #4]
 9f4:	0000277f 	andeq	r2, r0, pc, ror r7
 9f8:	69050403 	stmdbvs	r5, {r0, r1, sl}
 9fc:	0200746e 	andeq	r7, r0, #1845493760	; 0x6e000000
 a00:	5a150508 	bpl	541e28 <_Min_Stack_Size+0x541a28>
 a04:	08020000 	stmdaeq	r2, {}	; <UNPREDICTABLE>
 a08:	00041c04 	andeq	r1, r4, r4, lsl #24
 a0c:	06010200 	streq	r0, [r1], -r0, lsl #4
 a10:	0000081a 	andeq	r0, r0, sl, lsl r8
 a14:	00157404 	andseq	r7, r5, r4, lsl #8
 a18:	182b0200 	stmdane	fp!, {r9}
 a1c:	0000005c 	andeq	r0, r0, ip, asr r0
 a20:	ef080102 	svc	0x00080102
 a24:	02000037 	andeq	r0, r0, #55	; 0x37
 a28:	0b240502 	bleq	901e38 <_Min_Stack_Size+0x901a38>
 a2c:	90040000 	andls	r0, r4, r0
 a30:	02000030 	andeq	r0, r0, #48	; 0x30
 a34:	00761939 	rsbseq	r1, r6, r9, lsr r9
 a38:	02020000 	andeq	r0, r2, #0
 a3c:	0076ca07 	rsbseq	ip, r6, r7, lsl #20
 a40:	05040200 	streq	r0, [r4, #-512]	; 0xfffffe00
 a44:	00007b10 	andeq	r7, r0, r0, lsl fp
 a48:	00474804 	subeq	r4, r7, r4, lsl #16
 a4c:	194f0200 	stmdbne	pc, {r9}^	; <UNPREDICTABLE>
 a50:	00000090 	muleq	r0, r0, r0
 a54:	f0070402 			; <UNDEFINED> instruction: 0xf0070402
 a58:	0200001e 	andeq	r0, r0, #30
 a5c:	85120708 	ldrhi	r0, [r2, #-1800]	; 0xfffff8f8
 a60:	04050000 	streq	r0, [r5], #-0
 a64:	000000a4 	andeq	r0, r0, r4, lsr #1
 a68:	01020106 	tsteq	r2, r6, lsl #2
 a6c:	00082108 	andeq	r2, r8, r8, lsl #2
 a70:	15760400 	ldrbne	r0, [r6, #-1024]!	; 0xfffffc00
 a74:	18030000 	stmdane	r3, {}	; <UNPREDICTABLE>
 a78:	00005013 	andeq	r5, r0, r3, lsl r0
 a7c:	30920400 	addscc	r0, r2, r0, lsl #8
 a80:	24030000 	strcs	r0, [r3], #-0
 a84:	00006a14 	andeq	r6, r0, r4, lsl sl
 a88:	474a0400 	strbmi	r0, [sl, -r0, lsl #8]
 a8c:	30030000 	andcc	r0, r3, r0
 a90:	00008414 	andeq	r8, r0, r4, lsl r4
 a94:	00c50700 	sbceq	r0, r5, r0, lsl #14
 a98:	1c080000 	stcne	0, cr0, [r8], {-0}
 a9c:	49094e04 	stmdbmi	r9, {r2, r9, sl, fp, lr}
 aa0:	09000001 	stmdbeq	r0, {r0}
 aa4:	004c5243 	subeq	r5, ip, r3, asr #4
 aa8:	d1145004 	tstle	r4, r4
 aac:	02000000 	andeq	r0, r0, #0
 ab0:	43090023 	movwmi	r0, #36899	; 0x9023
 ab4:	04004852 	streq	r4, [r0], #-2130	; 0xfffff7ae
 ab8:	00d11451 	sbcseq	r1, r1, r1, asr r4
 abc:	23020000 	movwcs	r0, #8192	; 0x2000
 ac0:	44490904 	strbmi	r0, [r9], #-2308	; 0xfffff6fc
 ac4:	52040052 	andpl	r0, r4, #82	; 0x52
 ac8:	0000d114 	andeq	sp, r0, r4, lsl r1
 acc:	08230200 	stmdaeq	r3!, {r9}
 ad0:	52444f09 	subpl	r4, r4, #9, 30	; 0x24
 ad4:	14530400 	ldrbne	r0, [r3], #-1024	; 0xfffffc00
 ad8:	000000d1 	ldrdeq	r0, [r0], -r1
 adc:	0a0c2302 	beq	3096ec <_Min_Stack_Size+0x3092ec>
 ae0:	00008ec7 	andeq	r8, r0, r7, asr #29
 ae4:	d1145404 	tstle	r4, r4, lsl #8
 ae8:	02000000 	andeq	r0, r0, #0
 aec:	42091023 	andmi	r1, r9, #35	; 0x23
 af0:	04005252 	streq	r5, [r0], #-594	; 0xfffffdae
 af4:	00d11455 	sbcseq	r1, r1, r5, asr r4
 af8:	23020000 	movwcs	r0, #8192	; 0x2000
 afc:	4bb60a14 	blmi	fed83354 <_estack+0xded7e354>
 b00:	56040000 	strpl	r0, [r4], -r0
 b04:	0000d114 	andeq	sp, r0, r4, lsl r1
 b08:	18230200 	stmdane	r3!, {r9}
 b0c:	35b70400 	ldrcc	r0, [r7, #1024]!	; 0x400
 b10:	58040000 	stmdapl	r4, {}	; <UNPREDICTABLE>
 b14:	0000d602 	andeq	sp, r0, r2, lsl #12
 b18:	04280800 	strteq	r0, [r8], #-2048	; 0xfffff800
 b1c:	01f4095d 	mvnseq	r0, sp, asr r9
 b20:	43090000 	movwmi	r0, #36864	; 0x9000
 b24:	5f040052 	svcpl	0x00040052
 b28:	0000d114 	andeq	sp, r0, r4, lsl r1
 b2c:	00230200 	eoreq	r0, r3, r0, lsl #4
 b30:	00a4eb0a 	adceq	lr, r4, sl, lsl #22
 b34:	14600400 	strbtne	r0, [r0], #-1024	; 0xfffffc00
 b38:	000000d1 	ldrdeq	r0, [r0], -r1
 b3c:	09042302 	stmdbeq	r4, {r1, r8, r9, sp}
 b40:	00524943 	subseq	r4, r2, r3, asr #18
 b44:	d1146104 	tstle	r4, r4, lsl #2
 b48:	02000000 	andeq	r0, r0, #0
 b4c:	960a0823 	strls	r0, [sl], -r3, lsr #16
 b50:	040000a5 	streq	r0, [r0], #-165	; 0xffffff5b
 b54:	00d11462 	sbcseq	r1, r1, r2, ror #8
 b58:	23020000 	movwcs	r0, #8192	; 0x2000
 b5c:	a5b30a0c 	ldrge	r0, [r3, #2572]!	; 0xa0c
 b60:	63040000 	movwvs	r0, #16384	; 0x4000
 b64:	0000d114 	andeq	sp, r0, r4, lsl r1
 b68:	10230200 	eorne	r0, r3, r0, lsl #4
 b6c:	00a6080a 	adceq	r0, r6, sl, lsl #16
 b70:	14640400 	strbtne	r0, [r4], #-1024	; 0xfffffc00
 b74:	000000d1 	ldrdeq	r0, [r0], -r1
 b78:	0a142302 	beq	509788 <_Min_Stack_Size+0x509388>
 b7c:	0000a502 	andeq	sl, r0, r2, lsl #10
 b80:	d1146504 	tstle	r4, r4, lsl #10
 b84:	02000000 	andeq	r0, r0, #0
 b88:	bc0a1823 	stclt	8, cr1, [sl], {35}	; 0x23
 b8c:	040000a5 	streq	r0, [r0], #-165	; 0xffffff5b
 b90:	00d11466 	sbcseq	r1, r1, r6, ror #8
 b94:	23020000 	movwcs	r0, #8192	; 0x2000
 b98:	a53d0a1c 	ldrge	r0, [sp, #-2588]!	; 0xfffff5e4
 b9c:	67040000 	strvs	r0, [r4, -r0]
 ba0:	0000d114 	andeq	sp, r0, r4, lsl r1
 ba4:	20230200 	eorcs	r0, r3, r0, lsl #4
 ba8:	52534309 	subspl	r4, r3, #603979776	; 0x24000000
 bac:	14680400 	strbtne	r0, [r8], #-1024	; 0xfffffc00
 bb0:	000000d1 	ldrdeq	r0, [r0], -r1
 bb4:	00242302 	eoreq	r2, r4, r2, lsl #6
 bb8:	00a50a04 	adceq	r0, r5, r4, lsl #20
 bbc:	026a0400 	rsbeq	r0, sl, #0, 8
 bc0:	00000155 	andeq	r0, r0, r5, asr r1
 bc4:	0e050c08 	cdpeq	12, 0, cr0, cr5, cr8, {0}
 bc8:	00024609 	andeq	r4, r2, r9, lsl #12
 bcc:	584e0a00 	stmdapl	lr, {r9, fp}^
 bd0:	10050000 	andne	r0, r5, r0
 bd4:	0000b90c 	andeq	fp, r0, ip, lsl #18
 bd8:	00230200 	eoreq	r0, r3, r0, lsl #4
 bdc:	00223f0a 	eoreq	r3, r2, sl, lsl #30
 be0:	10110500 	andsne	r0, r1, r0, lsl #10
 be4:	00000246 	andeq	r0, r0, r6, asr #4
 be8:	0a042302 	beq	1097f8 <_Min_Stack_Size+0x1093f8>
 bec:	00007c75 	andeq	r7, r0, r5, ror ip
 bf0:	b90c1205 	stmdblt	ip, {r0, r2, r9, ip}
 bf4:	02000000 	andeq	r0, r0, #0
 bf8:	6a0a0823 	bvs	282c8c <_Min_Stack_Size+0x28288c>
 bfc:	0500009f 	streq	r0, [r0, #-159]	; 0xffffff61
 c00:	00ad0c13 	adceq	r0, sp, r3, lsl ip
 c04:	23020000 	movwcs	r0, #8192	; 0x2000
 c08:	0405000a 	streq	r0, [r5], #-10
 c0c:	00000149 	andeq	r0, r0, r9, asr #2
 c10:	000fac04 	andeq	sl, pc, r4, lsl #24
 c14:	02140500 	andseq	r0, r4, #0, 10
 c18:	00000200 	andeq	r0, r0, r0, lsl #4
 c1c:	16051408 	strne	r1, [r5], -r8, lsl #8
 c20:	00029e09 	andeq	r9, r2, r9, lsl #28
 c24:	5a650a00 	bpl	194342c <_Min_Stack_Size+0x194302c>
 c28:	18050000 	stmdane	r5, {}	; <UNPREDICTABLE>
 c2c:	00024c15 	andeq	r4, r2, r5, lsl ip
 c30:	00230200 	eoreq	r0, r3, r0, lsl #4
 c34:	00391d0a 	eorseq	r1, r9, sl, lsl #26
 c38:	0d1b0500 	cfldr32eq	mvfx0, [fp, #-0]
 c3c:	000000ad 	andeq	r0, r0, sp, lsr #1
 c40:	0a0c2302 	beq	309850 <_Min_Stack_Size+0x309450>
 c44:	0000773d 	andeq	r7, r0, sp, lsr r7
 c48:	ad0d1e05 	stcge	14, cr1, [sp, #-20]	; 0xffffffec
 c4c:	02000000 	andeq	r0, r0, #0
 c50:	e80a0d23 	stmda	sl, {r0, r1, r5, r8, sl, fp}
 c54:	05000069 	streq	r0, [r0, #-105]	; 0xffffff97
 c58:	009e0921 	addseq	r0, lr, r1, lsr #18
 c5c:	23020000 	movwcs	r0, #8192	; 0x2000
 c60:	37040010 	smladcc	r4, r0, r0, r0
 c64:	05000032 	streq	r0, [r0, #-50]	; 0xffffffce
 c68:	02580222 	subseq	r0, r8, #536870914	; 0x20000002
 c6c:	640b0000 	strvs	r0, [fp], #-0
 c70:	010000a6 	smlatbeq	r0, r6, r0, r0
 c74:	00ad0905 	adceq	r0, sp, r5, lsl #18
 c78:	05010000 	streq	r0, [r1, #-0]
 c7c:	00005803 	andeq	r5, r0, r3, lsl #16
 c80:	a6440b20 	strbge	r0, [r4], -r0, lsr #22
 c84:	06010000 	streq	r0, [r1], -r0
 c88:	00003405 	andeq	r3, r0, r5, lsl #8
 c8c:	03050100 	movweq	r0, #20736	; 0x5100
 c90:	00000000 	andeq	r0, r0, r0
 c94:	00a6490b 	adceq	r4, r6, fp, lsl #18
 c98:	05070100 	streq	r0, [r7, #-256]	; 0xffffff00
 c9c:	00000034 	andeq	r0, r0, r4, lsr r0
 ca0:	00030501 	andeq	r0, r3, r1, lsl #10
 ca4:	0b000000 	bleq	cac <_Min_Stack_Size+0x8ac>
 ca8:	0000a64e 	andeq	sl, r0, lr, asr #12
 cac:	34050801 	strcc	r0, [r5], #-2049	; 0xfffff7ff
 cb0:	01000000 	mrseq	r0, (UNDEF: 0)
 cb4:	00000305 	andeq	r0, r0, r5, lsl #6
 cb8:	580b0000 	stmdapl	fp, {}	; <UNPREDICTABLE>
 cbc:	010000a6 	smlatbeq	r0, r6, r0, r0
 cc0:	00340509 	eorseq	r0, r4, r9, lsl #10
 cc4:	05010000 	streq	r0, [r1, #-0]
 cc8:	00005c03 	andeq	r5, r0, r3, lsl #24
 ccc:	a63b0b20 	ldrtge	r0, [fp], -r0, lsr #22
 cd0:	0a010000 	beq	40cd8 <_Min_Stack_Size+0x408d8>
 cd4:	00003405 	andeq	r3, r0, r5, lsl #8
 cd8:	03050100 	movweq	r0, #20736	; 0x5100
 cdc:	20000060 	andcs	r0, r0, r0, rrx
 ce0:	519f010c 	orrspl	r0, pc, ip, lsl #2
 ce4:	a7050000 	strge	r0, [r5, -r0]
 ce8:	31010106 	tstcc	r1, r6, lsl #2
 cec:	0d000003 	stceq	0, cr0, [r0, #-12]
 cf0:	00000331 	andeq	r0, r0, r1, lsr r3
 cf4:	9e040500 	cfsh32ls	mvfx0, mvfx4, #0
 cf8:	0e000002 	cdpeq	0, 0, cr0, cr0, cr2, {0}
 cfc:	00a65301 	adceq	r5, r6, r1, lsl #6
 d00:	05150100 	ldreq	r0, [r5, #-256]	; 0xffffff00
 d04:	00000034 	andeq	r0, r0, r4, lsr r0
 d08:	080009a8 	stmdaeq	r0, {r3, r5, r7, r8, fp}
 d0c:	08000a20 	stmdaeq	r0, {r5, r9, fp}
 d10:	0000065c 	andeq	r0, r0, ip, asr r6
 d14:	00036501 	andeq	r6, r3, r1, lsl #10
 d18:	a67b0f00 	ldrbtge	r0, [fp], -r0, lsl #30
 d1c:	1b010000 	blne	40d24 <_Min_Stack_Size+0x40924>
 d20:	00029e13 	andeq	r9, r2, r3, lsl lr
 d24:	64910200 	ldrvs	r0, [r1], #512	; 0x200
 d28:	2d011000 	stccs	0, cr1, [r1, #-0]
 d2c:	010000a6 	smlatbeq	r0, r6, r0, r0
 d30:	8401060c 	strhi	r0, [r1], #-1548	; 0xfffff9f4
 d34:	a8080009 	stmdage	r8, {r0, r3}
 d38:	94080009 	strls	r0, [r8], #-9
 d3c:	01000006 	tsteq	r0, r6
 d40:	00001e00 	andeq	r1, r0, r0, lsl #28
 d44:	eb000200 	bl	154c <_Min_Stack_Size+0x114c>
 d48:	04000003 	streq	r0, [r0], #-3
 d4c:	00183301 	andseq	r3, r8, r1, lsl #6
 d50:	0000d800 	andeq	sp, r0, r0, lsl #16
 d54:	00a68400 	adceq	r8, r6, r0, lsl #8
 d58:	004c3500 	subeq	r3, ip, r0, lsl #10
 d5c:	00a6a700 	adceq	sl, r6, r0, lsl #14
 d60:	Address 0x0000000000000d60 is out of bounds.


Disassembly of section .debug_abbrev:

00000000 <.debug_abbrev>:
   0:	25011101 	strcs	r1, [r1, #-257]	; 0xfffffeff
   4:	030b130e 	movweq	r1, #45838	; 0xb30e
   8:	550e1b0e 	strpl	r1, [lr, #-2830]	; 0xfffff4f2
   c:	52011106 	andpl	r1, r1, #-2147483647	; 0x80000001
  10:	99061001 	stmdbls	r6, {r0, ip}
  14:	00000642 	andeq	r0, r0, r2, asr #12
  18:	0b002402 	bleq	9028 <_Min_Stack_Size+0x8c28>
  1c:	030b3e0b 	movweq	r3, #48651	; 0xbe0b
  20:	0300000e 	movweq	r0, #14
  24:	0b0b0024 	bleq	2c00bc <_Min_Stack_Size+0x2bfcbc>
  28:	08030b3e 	stmdaeq	r3, {r1, r2, r3, r4, r5, r8, r9, fp}
  2c:	16040000 	strne	r0, [r4], -r0
  30:	3a0e0300 	bcc	380c38 <_Min_Stack_Size+0x380838>
  34:	390b3b0b 	stmdbcc	fp, {r0, r1, r3, r8, r9, fp, ip, sp}
  38:	0013490b 	andseq	r4, r3, fp, lsl #18
  3c:	000f0500 	andeq	r0, pc, r0, lsl #10
  40:	13490b0b 	movtne	r0, #39691	; 0x9b0b
  44:	15060000 	strne	r0, [r6, #-0]
  48:	000c2700 	andeq	r2, ip, r0, lsl #14
  4c:	00350700 	eorseq	r0, r5, r0, lsl #14
  50:	00001349 	andeq	r1, r0, r9, asr #6
  54:	0b011308 	bleq	44c7c <_Min_Stack_Size+0x4487c>
  58:	3b0b3a0b 	blcc	2ce88c <_Min_Stack_Size+0x2ce48c>
  5c:	010b390b 	tsteq	fp, fp, lsl #18
  60:	09000013 	stmdbeq	r0, {r0, r1, r4}
  64:	0803000d 	stmdaeq	r3, {r0, r2, r3}
  68:	0b3b0b3a 	bleq	ec2d58 <_Min_Stack_Size+0xec2958>
  6c:	13490b39 	movtne	r0, #39737	; 0x9b39
  70:	00000a38 	andeq	r0, r0, r8, lsr sl
  74:	03000d0a 	movweq	r0, #3338	; 0xd0a
  78:	3b0b3a0e 	blcc	2ce8b8 <_Min_Stack_Size+0x2ce4b8>
  7c:	490b390b 	stmdbmi	fp, {r0, r1, r3, r8, fp, ip, sp}
  80:	000a3813 	andeq	r3, sl, r3, lsl r8
  84:	01010b00 	tsteq	r1, r0, lsl #22
  88:	13011349 	movwne	r1, #4937	; 0x1349
  8c:	210c0000 	mrscs	r0, (UNDEF: 12)
  90:	2f134900 	svccs	0x00134900
  94:	0d00000b 	stceq	0, cr0, [r0, #-44]	; 0xffffffd4
  98:	0e030034 	mcreq	0, 0, r0, cr3, cr4, {1}
  9c:	0b3b0b3a 	bleq	ec2d8c <_Min_Stack_Size+0xec298c>
  a0:	13490b39 	movtne	r0, #39737	; 0x9b39
  a4:	0a020c3f 	beq	831a8 <_Min_Stack_Size+0x82da8>
  a8:	2e0e0000 	cdpcs	0, 0, cr0, cr14, cr0, {0}
  ac:	030c3f01 	movweq	r3, #52993	; 0xcf01
  b0:	3b0b3a0e 	blcc	2ce8f0 <_Min_Stack_Size+0x2ce4f0>
  b4:	270b390b 	strcs	r3, [fp, -fp, lsl #18]
  b8:	010c3c0c 	tsteq	ip, ip, lsl #24
  bc:	0f000013 	svceq	0x00000013
  c0:	13490005 	movtne	r0, #36869	; 0x9005
  c4:	2e100000 	cdpcs	0, 1, cr0, cr0, cr0, {0}
  c8:	030c3f00 	movweq	r3, #52992	; 0xcf00
  cc:	3b0b3a0e 	blcc	2ce90c <_Min_Stack_Size+0x2ce50c>
  d0:	270b390b 	strcs	r3, [fp, -fp, lsl #18]
  d4:	1201110c 	andne	r1, r1, #12, 2
  d8:	96064001 	strls	r4, [r6], -r1
  dc:	00000c42 	andeq	r0, r0, r2, asr #24
  e0:	3f012e11 	svccc	0x00012e11
  e4:	3a0e030c 	bcc	380d1c <_Min_Stack_Size+0x38091c>
  e8:	390b3b0b 	stmdbcc	fp, {r0, r1, r3, r8, r9, fp, ip, sp}
  ec:	110c270b 	tstne	ip, fp, lsl #14
  f0:	40011201 	andmi	r1, r1, r1, lsl #4
  f4:	0c429706 	mcrreq	7, 0, r9, r2, cr6
  f8:	00001301 	andeq	r1, r0, r1, lsl #6
  fc:	03000512 	movweq	r0, #1298	; 0x512
 100:	3b0b3a0e 	blcc	2ce940 <_Min_Stack_Size+0x2ce540>
 104:	490b390b 	stmdbmi	fp, {r0, r1, r3, r8, fp, ip, sp}
 108:	000a0213 	andeq	r0, sl, r3, lsl r2
 10c:	012e1300 			; <UNDEFINED> instruction: 0x012e1300
 110:	0e030c3f 	mcreq	12, 0, r0, cr3, cr15, {1}
 114:	0b3b0b3a 	bleq	ec2e04 <_Min_Stack_Size+0xec2a04>
 118:	0c270b39 			; <UNDEFINED> instruction: 0x0c270b39
 11c:	01120111 	tsteq	r2, r1, lsl r1
 120:	42960640 	addsmi	r0, r6, #64, 12	; 0x4000000
 124:	0013010c 	andseq	r0, r3, ip, lsl #2
 128:	002e1400 	eoreq	r1, lr, r0, lsl #8
 12c:	0e030c3f 	mcreq	12, 0, r0, cr3, cr15, {1}
 130:	0b3b0b3a 	bleq	ec2e20 <_Min_Stack_Size+0xec2a20>
 134:	0c270b39 			; <UNDEFINED> instruction: 0x0c270b39
 138:	01120111 	tsteq	r2, r1, lsl r1
 13c:	42970640 	addsmi	r0, r7, #64, 12	; 0x4000000
 140:	1500000c 	strne	r0, [r0, #-12]
 144:	0e030034 	mcreq	0, 0, r0, cr3, cr4, {1}
 148:	0b3b0b3a 	bleq	ec2e38 <_Min_Stack_Size+0xec2a38>
 14c:	13490b39 	movtne	r0, #39737	; 0x9b39
 150:	00000a02 	andeq	r0, r0, r2, lsl #20
 154:	03000516 	movweq	r0, #1302	; 0x516
 158:	3b0b3a08 	blcc	2ce980 <_Min_Stack_Size+0x2ce580>
 15c:	490b390b 	stmdbmi	fp, {r0, r1, r3, r8, fp, ip, sp}
 160:	000a0213 	andeq	r0, sl, r3, lsl r2
 164:	012e1700 			; <UNDEFINED> instruction: 0x012e1700
 168:	0e030c3f 	mcreq	12, 0, r0, cr3, cr15, {1}
 16c:	0b3b0b3a 	bleq	ec2e5c <_Min_Stack_Size+0xec2a5c>
 170:	0c270b39 			; <UNDEFINED> instruction: 0x0c270b39
 174:	01120111 	tsteq	r2, r1, lsl r1
 178:	42970640 	addsmi	r0, r7, #64, 12	; 0x4000000
 17c:	0000000c 	andeq	r0, r0, ip
 180:	25011101 	strcs	r1, [r1, #-257]	; 0xfffffeff
 184:	030b130e 	movweq	r1, #45838	; 0xb30e
 188:	550e1b0e 	strpl	r1, [lr, #-2830]	; 0xfffff4f2
 18c:	52011106 	andpl	r1, r1, #-2147483647	; 0x80000001
 190:	99061001 	stmdbls	r6, {r0, ip}
 194:	00000642 	andeq	r0, r0, r2, asr #12
 198:	0b002402 	bleq	91a8 <_Min_Stack_Size+0x8da8>
 19c:	030b3e0b 	movweq	r3, #48651	; 0xbe0b
 1a0:	0300000e 	movweq	r0, #14
 1a4:	0b0b0024 	bleq	2c023c <_Min_Stack_Size+0x2bfe3c>
 1a8:	08030b3e 	stmdaeq	r3, {r1, r2, r3, r4, r5, r8, r9, fp}
 1ac:	16040000 	strne	r0, [r4], -r0
 1b0:	3a0e0300 	bcc	380db8 <_Min_Stack_Size+0x3809b8>
 1b4:	390b3b0b 	stmdbcc	fp, {r0, r1, r3, r8, r9, fp, ip, sp}
 1b8:	0013490b 	andseq	r4, r3, fp, lsl #18
 1bc:	00350500 	eorseq	r0, r5, r0, lsl #10
 1c0:	00001349 	andeq	r1, r0, r9, asr #6
 1c4:	0b011306 	bleq	44de4 <_Min_Stack_Size+0x449e4>
 1c8:	3b0b3a0b 	blcc	2ce9fc <_Min_Stack_Size+0x2ce5fc>
 1cc:	010b390b 	tsteq	fp, fp, lsl #18
 1d0:	07000013 	smladeq	r0, r3, r0, r0
 1d4:	0803000d 	stmdaeq	r3, {r0, r2, r3}
 1d8:	0b3b0b3a 	bleq	ec2ec8 <_Min_Stack_Size+0xec2ac8>
 1dc:	13490b39 	movtne	r0, #39737	; 0x9b39
 1e0:	00000a38 	andeq	r0, r0, r8, lsr sl
 1e4:	03000d08 	movweq	r0, #3336	; 0xd08
 1e8:	3b0b3a0e 	blcc	2cea28 <_Min_Stack_Size+0x2ce628>
 1ec:	490b390b 	stmdbmi	fp, {r0, r1, r3, r8, fp, ip, sp}
 1f0:	000a3813 	andeq	r3, sl, r3, lsl r8
 1f4:	012e0900 			; <UNDEFINED> instruction: 0x012e0900
 1f8:	0e030c3f 	mcreq	12, 0, r0, cr3, cr15, {1}
 1fc:	053b0b3a 	ldreq	r0, [fp, #-2874]!	; 0xfffff4c6
 200:	0c270b39 			; <UNDEFINED> instruction: 0x0c270b39
 204:	01111349 	tsteq	r1, r9, asr #6
 208:	06400112 			; <UNDEFINED> instruction: 0x06400112
 20c:	010c4297 			; <UNDEFINED> instruction: 0x010c4297
 210:	0a000013 	beq	264 <_Min_Heap_Size+0x64>
 214:	0e030005 	cdpeq	0, 0, cr0, cr3, cr5, {0}
 218:	053b0b3a 	ldreq	r0, [fp, #-2874]!	; 0xfffff4c6
 21c:	13490b39 	movtne	r0, #39737	; 0x9b39
 220:	00000a02 	andeq	r0, r0, r2, lsl #20
 224:	0300340b 	movweq	r3, #1035	; 0x40b
 228:	3b0b3a0e 	blcc	2cea68 <_Min_Stack_Size+0x2ce668>
 22c:	490b3905 	stmdbmi	fp, {r0, r2, r8, fp, ip, sp}
 230:	000a0213 	andeq	r0, sl, r3, lsl r2
 234:	000f0c00 	andeq	r0, pc, r0, lsl #24
 238:	13490b0b 	movtne	r0, #39691	; 0x9b0b
 23c:	2e0d0000 	cdpcs	0, 0, cr0, cr13, cr0, {0}
 240:	030c3f01 	movweq	r3, #52993	; 0xcf01
 244:	3b0b3a0e 	blcc	2cea84 <_Min_Stack_Size+0x2ce684>
 248:	270b3905 	strcs	r3, [fp, -r5, lsl #18]
 24c:	1201110c 	andne	r1, r1, #12, 2
 250:	97064001 	strls	r4, [r6, -r1]
 254:	13010c42 	movwne	r0, #7234	; 0x1c42
 258:	2e0e0000 	cdpcs	0, 0, cr0, cr14, cr0, {0}
 25c:	030c3f01 	movweq	r3, #52993	; 0xcf01
 260:	3b0b3a0e 	blcc	2ceaa0 <_Min_Stack_Size+0x2ce6a0>
 264:	270b390b 	strcs	r3, [fp, -fp, lsl #18]
 268:	1201110c 	andne	r1, r1, #12, 2
 26c:	97064001 	strls	r4, [r6, -r1]
 270:	13010c42 	movwne	r0, #7234	; 0x1c42
 274:	050f0000 	streq	r0, [pc, #-0]	; 27c <_Min_Heap_Size+0x7c>
 278:	3a0e0300 	bcc	380e80 <_Min_Stack_Size+0x380a80>
 27c:	390b3b0b 	stmdbcc	fp, {r0, r1, r3, r8, r9, fp, ip, sp}
 280:	0213490b 	andseq	r4, r3, #180224	; 0x2c000
 284:	1000000a 	andne	r0, r0, sl
 288:	0c3f012e 	ldfeqs	f0, [pc], #-184	; 1d8 <_Min_Heap_Size-0x28>
 28c:	0b3a0e03 	bleq	e83aa0 <_Min_Stack_Size+0xe836a0>
 290:	0b390b3b 	bleq	e42f84 <_Min_Stack_Size+0xe42b84>
 294:	13490c27 	movtne	r0, #39975	; 0x9c27
 298:	01120111 	tsteq	r2, r1, lsl r1
 29c:	42970640 	addsmi	r0, r7, #64, 12	; 0x4000000
 2a0:	0013010c 	andseq	r0, r3, ip, lsl #2
 2a4:	00341100 	eorseq	r1, r4, r0, lsl #2
 2a8:	0b3a0e03 	bleq	e83abc <_Min_Stack_Size+0xe836bc>
 2ac:	0b390b3b 	bleq	e42fa0 <_Min_Stack_Size+0xe42ba0>
 2b0:	0a021349 	beq	84fdc <_Min_Stack_Size+0x84bdc>
 2b4:	2e120000 	cdpcs	0, 1, cr0, cr2, cr0, {0}
 2b8:	030c3f01 	movweq	r3, #52993	; 0xcf01
 2bc:	3b0b3a0e 	blcc	2ceafc <_Min_Stack_Size+0x2ce6fc>
 2c0:	270b390b 	strcs	r3, [fp, -fp, lsl #18]
 2c4:	1201110c 	andne	r1, r1, #12, 2
 2c8:	96064001 	strls	r4, [r6], -r1
 2cc:	13010c42 	movwne	r0, #7234	; 0x1c42
 2d0:	2e130000 	cdpcs	0, 1, cr0, cr3, cr0, {0}
 2d4:	030c3f01 	movweq	r3, #52993	; 0xcf01
 2d8:	3b0b3a0e 	blcc	2ceb18 <_Min_Stack_Size+0x2ce718>
 2dc:	270b390b 	strcs	r3, [fp, -fp, lsl #18]
 2e0:	1113490c 	tstne	r3, ip, lsl #18
 2e4:	40011201 	andmi	r1, r1, r1, lsl #4
 2e8:	0c429706 	mcrreq	7, 0, r9, r2, cr6
 2ec:	01000000 	mrseq	r0, (UNDEF: 0)
 2f0:	0e250111 	mcreq	1, 1, r0, cr5, cr1, {0}
 2f4:	0e030b13 	vmoveq.32	d3[0], r0
 2f8:	06550e1b 			; <UNDEFINED> instruction: 0x06550e1b
 2fc:	01520111 	cmpeq	r2, r1, lsl r1
 300:	42990610 	addsmi	r0, r9, #16, 12	; 0x1000000
 304:	02000006 	andeq	r0, r0, #6
 308:	0b0b0024 	bleq	2c03a0 <_Min_Stack_Size+0x2bffa0>
 30c:	0e030b3e 	vmoveq.16	d3[0], r0
 310:	24030000 	strcs	r0, [r3], #-0
 314:	3e0b0b00 	vmlacc.f64	d0, d11, d0
 318:	0008030b 	andeq	r0, r8, fp, lsl #6
 31c:	00160400 	andseq	r0, r6, r0, lsl #8
 320:	0b3a0e03 	bleq	e83b34 <_Min_Stack_Size+0xe83734>
 324:	0b390b3b 	bleq	e43018 <_Min_Stack_Size+0xe42c18>
 328:	00001349 	andeq	r1, r0, r9, asr #6
 32c:	0b000f05 	bleq	3f48 <_Min_Stack_Size+0x3b48>
 330:	0013490b 	andseq	r4, r3, fp, lsl #18
 334:	00150600 	andseq	r0, r5, r0, lsl #12
 338:	00000c27 	andeq	r0, r0, r7, lsr #24
 33c:	49003507 	stmdbmi	r0, {r0, r1, r2, r8, sl, ip, sp}
 340:	08000013 	stmdaeq	r0, {r0, r1, r4}
 344:	0b0b0113 	bleq	2c0798 <_Min_Stack_Size+0x2c0398>
 348:	0b3b0b3a 	bleq	ec3038 <_Min_Stack_Size+0xec2c38>
 34c:	13010b39 	movwne	r0, #6969	; 0x1b39
 350:	0d090000 	stceq	0, cr0, [r9, #-0]
 354:	3a080300 	bcc	200f5c <_Min_Stack_Size+0x200b5c>
 358:	390b3b0b 	stmdbcc	fp, {r0, r1, r3, r8, r9, fp, ip, sp}
 35c:	3813490b 	ldmdacc	r3, {r0, r1, r3, r8, fp, lr}
 360:	0a00000a 	beq	390 <_Min_Heap_Size+0x190>
 364:	0e03000d 	cdpeq	0, 0, cr0, cr3, cr13, {0}
 368:	0b3b0b3a 	bleq	ec3058 <_Min_Stack_Size+0xec2c58>
 36c:	13490b39 	movtne	r0, #39737	; 0x9b39
 370:	00000a38 	andeq	r0, r0, r8, lsr sl
 374:	0300340b 	movweq	r3, #1035	; 0x40b
 378:	3b0b3a0e 	blcc	2cebb8 <_Min_Stack_Size+0x2ce7b8>
 37c:	490b390b 	stmdbmi	fp, {r0, r1, r3, r8, fp, ip, sp}
 380:	020c3f13 	andeq	r3, ip, #19, 30	; 0x4c
 384:	0c00000a 	stceq	0, cr0, [r0], {10}
 388:	0c3f012e 	ldfeqs	f0, [pc], #-184	; 2d8 <_Min_Heap_Size+0xd8>
 38c:	0b3a0e03 	bleq	e83ba0 <_Min_Stack_Size+0xe837a0>
 390:	0b390b3b 	bleq	e43084 <_Min_Stack_Size+0xe42c84>
 394:	0c3c0c27 	ldceq	12, cr0, [ip], #-156	; 0xffffff64
 398:	00001301 	andeq	r1, r0, r1, lsl #6
 39c:	4900050d 	stmdbmi	r0, {r0, r2, r3, r8, sl}
 3a0:	0e000013 	mcreq	0, 0, r0, cr0, cr3, {0}
 3a4:	0c3f012e 	ldfeqs	f0, [pc], #-184	; 2f4 <_Min_Heap_Size+0xf4>
 3a8:	0b3a0e03 	bleq	e83bbc <_Min_Stack_Size+0xe837bc>
 3ac:	0b390b3b 	bleq	e430a0 <_Min_Stack_Size+0xe42ca0>
 3b0:	01111349 	tsteq	r1, r9, asr #6
 3b4:	06400112 			; <UNDEFINED> instruction: 0x06400112
 3b8:	010c4296 			; <UNDEFINED> instruction: 0x010c4296
 3bc:	0f000013 	svceq	0x00000013
 3c0:	0e030034 	mcreq	0, 0, r0, cr3, cr4, {1}
 3c4:	0b3b0b3a 	bleq	ec30b4 <_Min_Stack_Size+0xec2cb4>
 3c8:	13490b39 	movtne	r0, #39737	; 0x9b39
 3cc:	00000a02 	andeq	r0, r0, r2, lsl #20
 3d0:	3f002e10 	svccc	0x00002e10
 3d4:	3a0e030c 	bcc	38100c <_Min_Stack_Size+0x380c0c>
 3d8:	390b3b0b 	stmdbcc	fp, {r0, r1, r3, r8, r9, fp, ip, sp}
 3dc:	110c270b 	tstne	ip, fp, lsl #14
 3e0:	40011201 	andmi	r1, r1, r1, lsl #4
 3e4:	0c429706 	mcrreq	7, 0, r9, r2, cr6
 3e8:	01000000 	mrseq	r0, (UNDEF: 0)
 3ec:	06100011 			; <UNDEFINED> instruction: 0x06100011
 3f0:	0e030655 	mcreq	6, 0, r0, cr3, cr5, {2}
 3f4:	0e250e1b 	mcreq	14, 1, r0, cr5, cr11, {0}
 3f8:	00000513 	andeq	r0, r0, r3, lsl r5
	...

Disassembly of section .debug_loc:

00000000 <.debug_loc>:
   0:	08000654 	stmdaeq	r0, {r2, r4, r6, r9, sl}
   4:	08000656 	stmdaeq	r0, {r1, r2, r4, r6, r9, sl}
   8:	007d0002 	rsbseq	r0, sp, r2
   c:	08000656 	stmdaeq	r0, {r1, r2, r4, r6, r9, sl}
  10:	08000658 	stmdaeq	r0, {r3, r4, r6, r9, sl}
  14:	087d0002 	ldmdaeq	sp!, {r1}^
  18:	08000658 	stmdaeq	r0, {r3, r4, r6, r9, sl}
  1c:	08000718 	stmdaeq	r0, {r3, r4, r8, r9, sl}
  20:	08770002 	ldmdaeq	r7!, {r1}^
	...
  2c:	080005ac 	stmdaeq	r0, {r2, r3, r5, r7, r8, sl}
  30:	080005ae 	stmdaeq	r0, {r1, r2, r3, r5, r7, r8, sl}
  34:	007d0002 	rsbseq	r0, sp, r2
  38:	080005ae 	stmdaeq	r0, {r1, r2, r3, r5, r7, r8, sl}
  3c:	080005b0 	stmdaeq	r0, {r4, r5, r7, r8, sl}
  40:	087d0002 	ldmdaeq	sp!, {r1}^
  44:	080005b0 	stmdaeq	r0, {r4, r5, r7, r8, sl}
  48:	08000654 	stmdaeq	r0, {r2, r4, r6, r9, sl}
  4c:	08770002 	ldmdaeq	r7!, {r1}^
	...
  58:	08000588 	stmdaeq	r0, {r3, r7, r8, sl}
  5c:	0800058a 	stmdaeq	r0, {r1, r3, r7, r8, sl}
  60:	007d0002 	rsbseq	r0, sp, r2
  64:	0800058a 	stmdaeq	r0, {r1, r3, r7, r8, sl}
  68:	0800058c 	stmdaeq	r0, {r2, r3, r7, r8, sl}
  6c:	087d0002 	ldmdaeq	sp!, {r1}^
  70:	0800058c 	stmdaeq	r0, {r2, r3, r7, r8, sl}
  74:	080005ac 	stmdaeq	r0, {r2, r3, r5, r7, r8, sl}
  78:	08770002 	ldmdaeq	r7!, {r1}^
	...
  84:	08000564 	stmdaeq	r0, {r2, r5, r6, r8, sl}
  88:	08000566 	stmdaeq	r0, {r1, r2, r5, r6, r8, sl}
  8c:	007d0002 	rsbseq	r0, sp, r2
  90:	08000566 	stmdaeq	r0, {r1, r2, r5, r6, r8, sl}
  94:	08000568 	stmdaeq	r0, {r3, r5, r6, r8, sl}
  98:	087d0002 	ldmdaeq	sp!, {r1}^
  9c:	08000568 	stmdaeq	r0, {r3, r5, r6, r8, sl}
  a0:	08000588 	stmdaeq	r0, {r3, r7, r8, sl}
  a4:	08770002 	ldmdaeq	r7!, {r1}^
	...
  b0:	08000540 	stmdaeq	r0, {r6, r8, sl}
  b4:	08000542 	stmdaeq	r0, {r1, r6, r8, sl}
  b8:	007d0002 	rsbseq	r0, sp, r2
  bc:	08000542 	stmdaeq	r0, {r1, r6, r8, sl}
  c0:	08000544 	stmdaeq	r0, {r2, r6, r8, sl}
  c4:	087d0002 	ldmdaeq	sp!, {r1}^
  c8:	08000544 	stmdaeq	r0, {r2, r6, r8, sl}
  cc:	08000564 	stmdaeq	r0, {r2, r5, r6, r8, sl}
  d0:	08770002 	ldmdaeq	r7!, {r1}^
	...
  dc:	0800051c 	stmdaeq	r0, {r2, r3, r4, r8, sl}
  e0:	0800051e 	stmdaeq	r0, {r1, r2, r3, r4, r8, sl}
  e4:	007d0002 	rsbseq	r0, sp, r2
  e8:	0800051e 	stmdaeq	r0, {r1, r2, r3, r4, r8, sl}
  ec:	08000520 	stmdaeq	r0, {r5, r8, sl}
  f0:	087d0002 	ldmdaeq	sp!, {r1}^
  f4:	08000520 	stmdaeq	r0, {r5, r8, sl}
  f8:	08000540 	stmdaeq	r0, {r6, r8, sl}
  fc:	08770002 	ldmdaeq	r7!, {r1}^
	...
 108:	080004f8 	stmdaeq	r0, {r3, r4, r5, r6, r7, sl}
 10c:	080004fa 	stmdaeq	r0, {r1, r3, r4, r5, r6, r7, sl}
 110:	007d0002 	rsbseq	r0, sp, r2
 114:	080004fa 	stmdaeq	r0, {r1, r3, r4, r5, r6, r7, sl}
 118:	080004fc 	stmdaeq	r0, {r2, r3, r4, r5, r6, r7, sl}
 11c:	087d0002 	ldmdaeq	sp!, {r1}^
 120:	080004fc 	stmdaeq	r0, {r2, r3, r4, r5, r6, r7, sl}
 124:	0800051c 	stmdaeq	r0, {r2, r3, r4, r8, sl}
 128:	08770002 	ldmdaeq	r7!, {r1}^
	...
 13c:	007d0002 	rsbseq	r0, sp, r2
	...
 148:	047d0002 	ldrbteq	r0, [sp], #-2
	...
 154:	107d0002 	rsbsne	r0, sp, r2
	...
 160:	10770002 	rsbsne	r0, r7, r2
	...
 16c:	04770002 	ldrbteq	r0, [r7], #-2
	...
 178:	047d0002 	ldrbteq	r0, [sp], #-2
	...
 184:	007d0002 	rsbseq	r0, sp, r2
	...
 190:	080004e0 	stmdaeq	r0, {r5, r6, r7, sl}
 194:	080004e2 	stmdaeq	r0, {r1, r5, r6, r7, sl}
 198:	007d0002 	rsbseq	r0, sp, r2
 19c:	080004e2 	stmdaeq	r0, {r1, r5, r6, r7, sl}
 1a0:	080004e4 	stmdaeq	r0, {r2, r5, r6, r7, sl}
 1a4:	087d0002 	ldmdaeq	sp!, {r1}^
 1a8:	080004e4 	stmdaeq	r0, {r2, r5, r6, r7, sl}
 1ac:	080004e6 	stmdaeq	r0, {r1, r2, r5, r6, r7, sl}
 1b0:	107d0002 	rsbsne	r0, sp, r2
 1b4:	080004e6 	stmdaeq	r0, {r1, r2, r5, r6, r7, sl}
 1b8:	080004f2 	stmdaeq	r0, {r1, r4, r5, r6, r7, sl}
 1bc:	10770002 	rsbsne	r0, r7, r2
 1c0:	080004f2 	stmdaeq	r0, {r1, r4, r5, r6, r7, sl}
 1c4:	080004f4 	stmdaeq	r0, {r2, r4, r5, r6, r7, sl}
 1c8:	08770002 	ldmdaeq	r7!, {r1}^
 1cc:	080004f4 	stmdaeq	r0, {r2, r4, r5, r6, r7, sl}
 1d0:	080004f6 	stmdaeq	r0, {r1, r2, r4, r5, r6, r7, sl}
 1d4:	087d0002 	ldmdaeq	sp!, {r1}^
	...
 1e8:	007d0002 	rsbseq	r0, sp, r2
	...
 1f4:	047d0002 	ldrbteq	r0, [sp], #-2
	...
 200:	04770002 	ldrbteq	r0, [r7], #-2
	...
 20c:	047d0002 	ldrbteq	r0, [sp], #-2
	...
 218:	007d0002 	rsbseq	r0, sp, r2
	...
 224:	08000308 	stmdaeq	r0, {r3, r8, r9}
 228:	0800030a 	stmdaeq	r0, {r1, r3, r8, r9}
 22c:	007d0002 	rsbseq	r0, sp, r2
 230:	0800030a 	stmdaeq	r0, {r1, r3, r8, r9}
 234:	0800030c 	stmdaeq	r0, {r2, r3, r8, r9}
 238:	087d0002 	ldmdaeq	sp!, {r1}^
 23c:	0800030c 	stmdaeq	r0, {r2, r3, r8, r9}
 240:	0800030e 	stmdaeq	r0, {r1, r2, r3, r8, r9}
 244:	187d0002 	ldmdane	sp!, {r1}^
 248:	0800030e 	stmdaeq	r0, {r1, r2, r3, r8, r9}
 24c:	080004c0 	stmdaeq	r0, {r6, r7, sl}
 250:	18770002 	ldmdane	r7!, {r1}^
 254:	080004c0 	stmdaeq	r0, {r6, r7, sl}
 258:	080004c2 	stmdaeq	r0, {r1, r6, r7, sl}
 25c:	08770002 	ldmdaeq	r7!, {r1}^
 260:	080004c2 	stmdaeq	r0, {r1, r6, r7, sl}
 264:	080004e0 	stmdaeq	r0, {r5, r6, r7, sl}
 268:	087d0002 	ldmdaeq	sp!, {r1}^
	...
 274:	0800023c 	stmdaeq	r0, {r2, r3, r4, r5, r9}
 278:	0800023e 	stmdaeq	r0, {r1, r2, r3, r4, r5, r9}
 27c:	007d0002 	rsbseq	r0, sp, r2
 280:	0800023e 	stmdaeq	r0, {r1, r2, r3, r4, r5, r9}
 284:	08000240 	stmdaeq	r0, {r6, r9}
 288:	047d0002 	ldrbteq	r0, [sp], #-2
 28c:	08000240 	stmdaeq	r0, {r6, r9}
 290:	08000242 	stmdaeq	r0, {r1, r6, r9}
 294:	107d0002 	rsbsne	r0, sp, r2
 298:	08000242 	stmdaeq	r0, {r1, r6, r9}
 29c:	080002fa 	stmdaeq	r0, {r1, r3, r4, r5, r6, r7, r9}
 2a0:	10770002 	rsbsne	r0, r7, r2
 2a4:	080002fa 	stmdaeq	r0, {r1, r3, r4, r5, r6, r7, r9}
 2a8:	080002fc 	stmdaeq	r0, {r2, r3, r4, r5, r6, r7, r9}
 2ac:	04770002 	ldrbteq	r0, [r7], #-2
 2b0:	080002fc 	stmdaeq	r0, {r2, r3, r4, r5, r6, r7, r9}
 2b4:	080002fe 	stmdaeq	r0, {r1, r2, r3, r4, r5, r6, r7, r9}
 2b8:	047d0002 	ldrbteq	r0, [sp], #-2
 2bc:	080002fe 	stmdaeq	r0, {r1, r2, r3, r4, r5, r6, r7, r9}
 2c0:	08000308 	stmdaeq	r0, {r3, r8, r9}
 2c4:	007d0002 	rsbseq	r0, sp, r2
	...
 2d0:	08000170 	stmdaeq	r0, {r4, r5, r6, r8}
 2d4:	08000172 	stmdaeq	r0, {r1, r4, r5, r6, r8}
 2d8:	007d0002 	rsbseq	r0, sp, r2
 2dc:	08000172 	stmdaeq	r0, {r1, r4, r5, r6, r8}
 2e0:	08000174 	stmdaeq	r0, {r2, r4, r5, r6, r8}
 2e4:	047d0002 	ldrbteq	r0, [sp], #-2
 2e8:	08000174 	stmdaeq	r0, {r2, r4, r5, r6, r8}
 2ec:	08000176 	stmdaeq	r0, {r1, r2, r4, r5, r6, r8}
 2f0:	107d0002 	rsbsne	r0, sp, r2
 2f4:	08000176 	stmdaeq	r0, {r1, r2, r4, r5, r6, r8}
 2f8:	0800022e 	stmdaeq	r0, {r1, r2, r3, r5, r9}
 2fc:	10770002 	rsbsne	r0, r7, r2
 300:	0800022e 	stmdaeq	r0, {r1, r2, r3, r5, r9}
 304:	08000230 	stmdaeq	r0, {r4, r5, r9}
 308:	04770002 	ldrbteq	r0, [r7], #-2
 30c:	08000230 	stmdaeq	r0, {r4, r5, r9}
 310:	08000232 	stmdaeq	r0, {r1, r4, r5, r9}
 314:	047d0002 	ldrbteq	r0, [sp], #-2
 318:	08000232 	stmdaeq	r0, {r1, r4, r5, r9}
 31c:	0800023c 	stmdaeq	r0, {r2, r3, r4, r5, r9}
 320:	007d0002 	rsbseq	r0, sp, r2
	...
 334:	007d0002 	rsbseq	r0, sp, r2
	...
 340:	047d0002 	ldrbteq	r0, [sp], #-2
	...
 34c:	187d0002 	ldmdane	sp!, {r1}^
	...
 358:	18770002 	ldmdane	r7!, {r1}^
	...
 364:	04770002 	ldrbteq	r0, [r7], #-2
	...
 370:	047d0002 	ldrbteq	r0, [sp], #-2
	...
 37c:	007d0002 	rsbseq	r0, sp, r2
	...
 390:	007d0002 	rsbseq	r0, sp, r2
	...
 39c:	047d0002 	ldrbteq	r0, [sp], #-2
	...
 3a8:	107d0002 	rsbsne	r0, sp, r2
	...
 3b4:	10770002 	rsbsne	r0, r7, r2
	...
 3c0:	04770002 	ldrbteq	r0, [r7], #-2
	...
 3cc:	047d0002 	ldrbteq	r0, [sp], #-2
	...
 3d8:	007d0002 	rsbseq	r0, sp, r2
	...
 3ec:	007d0002 	rsbseq	r0, sp, r2
	...
 3f8:	047d0002 	ldrbteq	r0, [sp], #-2
	...
 404:	107d0002 	rsbsne	r0, sp, r2
	...
 410:	10770002 	rsbsne	r0, r7, r2
	...
 41c:	04770002 	ldrbteq	r0, [r7], #-2
	...
 428:	047d0002 	ldrbteq	r0, [sp], #-2
	...
 434:	007d0002 	rsbseq	r0, sp, r2
	...
 448:	007d0002 	rsbseq	r0, sp, r2
	...
 454:	047d0002 	ldrbteq	r0, [sp], #-2
	...
 460:	107d0002 	rsbsne	r0, sp, r2
	...
 46c:	10770002 	rsbsne	r0, r7, r2
	...
 478:	04770002 	ldrbteq	r0, [r7], #-2
	...
 484:	047d0002 	ldrbteq	r0, [sp], #-2
	...
 490:	007d0002 	rsbseq	r0, sp, r2
	...
 4a4:	007d0002 	rsbseq	r0, sp, r2
	...
 4b0:	047d0002 	ldrbteq	r0, [sp], #-2
	...
 4bc:	187d0002 	ldmdane	sp!, {r1}^
	...
 4c8:	18770002 	ldmdane	r7!, {r1}^
	...
 4d4:	04770002 	ldrbteq	r0, [r7], #-2
	...
 4e0:	047d0002 	ldrbteq	r0, [sp], #-2
	...
 4ec:	007d0002 	rsbseq	r0, sp, r2
	...
 500:	007d0002 	rsbseq	r0, sp, r2
	...
 50c:	047d0002 	ldrbteq	r0, [sp], #-2
	...
 518:	187d0002 	ldmdane	sp!, {r1}^
	...
 524:	18770002 	ldmdane	r7!, {r1}^
	...
 530:	04770002 	ldrbteq	r0, [r7], #-2
	...
 53c:	047d0002 	ldrbteq	r0, [sp], #-2
	...
 548:	007d0002 	rsbseq	r0, sp, r2
	...
 55c:	007d0002 	rsbseq	r0, sp, r2
	...
 568:	047d0002 	ldrbteq	r0, [sp], #-2
	...
 574:	107d0002 	rsbsne	r0, sp, r2
	...
 580:	10770002 	rsbsne	r0, r7, r2
	...
 58c:	04770002 	ldrbteq	r0, [r7], #-2
	...
 598:	047d0002 	ldrbteq	r0, [sp], #-2
	...
 5a4:	007d0002 	rsbseq	r0, sp, r2
	...
 5b0:	08000888 	stmdaeq	r0, {r3, r7, fp}
 5b4:	0800088a 	stmdaeq	r0, {r1, r3, r7, fp}
 5b8:	007d0002 	rsbseq	r0, sp, r2
 5bc:	0800088a 	stmdaeq	r0, {r1, r3, r7, fp}
 5c0:	0800088c 	stmdaeq	r0, {r2, r3, r7, fp}
 5c4:	0c7d0002 	ldcleq	0, cr0, [sp], #-8
 5c8:	0800088c 	stmdaeq	r0, {r2, r3, r7, fp}
 5cc:	0800088e 	stmdaeq	r0, {r1, r2, r3, r7, fp}
 5d0:	207d0002 	rsbscs	r0, sp, r2
 5d4:	0800088e 	stmdaeq	r0, {r1, r2, r3, r7, fp}
 5d8:	0800097e 	stmdaeq	r0, {r1, r2, r3, r4, r5, r6, r8, fp}
 5dc:	20770002 	rsbscs	r0, r7, r2
 5e0:	0800097e 	stmdaeq	r0, {r1, r2, r3, r4, r5, r6, r8, fp}
 5e4:	08000980 	stmdaeq	r0, {r7, r8, fp}
 5e8:	0c770002 	ldcleq	0, cr0, [r7], #-8
 5ec:	08000980 	stmdaeq	r0, {r7, r8, fp}
 5f0:	08000982 	stmdaeq	r0, {r1, r7, r8, fp}
 5f4:	0c7d0002 	ldcleq	0, cr0, [sp], #-8
	...
 600:	08000718 	stmdaeq	r0, {r3, r4, r8, r9, sl}
 604:	0800071a 	stmdaeq	r0, {r1, r3, r4, r8, r9, sl}
 608:	007d0002 	rsbseq	r0, sp, r2
 60c:	0800071a 	stmdaeq	r0, {r1, r3, r4, r8, r9, sl}
 610:	0800071c 	stmdaeq	r0, {r2, r3, r4, r8, r9, sl}
 614:	047d0002 	ldrbteq	r0, [sp], #-2
 618:	0800071c 	stmdaeq	r0, {r2, r3, r4, r8, r9, sl}
 61c:	0800071e 	stmdaeq	r0, {r1, r2, r3, r4, r8, r9, sl}
 620:	107d0002 	rsbsne	r0, sp, r2
 624:	0800071e 	stmdaeq	r0, {r1, r2, r3, r4, r8, r9, sl}
 628:	08000880 	stmdaeq	r0, {r7, fp}
 62c:	10770002 	rsbsne	r0, r7, r2
 630:	08000880 	stmdaeq	r0, {r7, fp}
 634:	08000882 	stmdaeq	r0, {r1, r7, fp}
 638:	04770002 	ldrbteq	r0, [r7], #-2
 63c:	08000882 	stmdaeq	r0, {r1, r7, fp}
 640:	08000884 	stmdaeq	r0, {r2, r7, fp}
 644:	047d0002 	ldrbteq	r0, [sp], #-2
 648:	08000884 	stmdaeq	r0, {r2, r7, fp}
 64c:	08000886 	stmdaeq	r0, {r1, r2, r7, fp}
 650:	007d0002 	rsbseq	r0, sp, r2
	...
 65c:	080009a8 	stmdaeq	r0, {r3, r5, r7, r8, fp}
 660:	080009aa 	stmdaeq	r0, {r1, r3, r5, r7, r8, fp}
 664:	007d0002 	rsbseq	r0, sp, r2
 668:	080009aa 	stmdaeq	r0, {r1, r3, r5, r7, r8, fp}
 66c:	080009ac 	stmdaeq	r0, {r2, r3, r5, r7, r8, fp}
 670:	087d0002 	ldmdaeq	sp!, {r1}^
 674:	080009ac 	stmdaeq	r0, {r2, r3, r5, r7, r8, fp}
 678:	080009ae 	stmdaeq	r0, {r1, r2, r3, r5, r7, r8, fp}
 67c:	287d0002 	ldmdacs	sp!, {r1}^
 680:	080009ae 	stmdaeq	r0, {r1, r2, r3, r5, r7, r8, fp}
 684:	08000a20 	stmdaeq	r0, {r5, r9, fp}
 688:	28770002 	ldmdacs	r7!, {r1}^
	...
 694:	08000984 	stmdaeq	r0, {r2, r7, r8, fp}
 698:	08000986 	stmdaeq	r0, {r1, r2, r7, r8, fp}
 69c:	007d0002 	rsbseq	r0, sp, r2
 6a0:	08000986 	stmdaeq	r0, {r1, r2, r7, r8, fp}
 6a4:	08000988 	stmdaeq	r0, {r3, r7, r8, fp}
 6a8:	047d0002 	ldrbteq	r0, [sp], #-2
 6ac:	08000988 	stmdaeq	r0, {r3, r7, r8, fp}
 6b0:	0800099a 	stmdaeq	r0, {r1, r3, r4, r7, r8, fp}
 6b4:	04770002 	ldrbteq	r0, [r7], #-2
 6b8:	0800099a 	stmdaeq	r0, {r1, r3, r4, r7, r8, fp}
 6bc:	0800099c 	stmdaeq	r0, {r2, r3, r4, r7, r8, fp}
 6c0:	047d0002 	ldrbteq	r0, [sp], #-2
 6c4:	0800099c 	stmdaeq	r0, {r2, r3, r4, r7, r8, fp}
 6c8:	080009a8 	stmdaeq	r0, {r3, r5, r7, r8, fp}
 6cc:	007d0002 	rsbseq	r0, sp, r2
	...

Disassembly of section .debug_aranges:

00000000 <.debug_aranges>:
   0:	0000007c 	andeq	r0, r0, ip, ror r0
   4:	00000002 	andeq	r0, r0, r2
   8:	00040000 	andeq	r0, r4, r0
   c:	00000000 	andeq	r0, r0, r0
  10:	08000170 	stmdaeq	r0, {r4, r5, r6, r8}
  14:	000000cc 	andeq	r0, r0, ip, asr #1
  18:	0800023c 	stmdaeq	r0, {r2, r3, r4, r5, r9}
  1c:	000000cc 	andeq	r0, r0, ip, asr #1
  20:	08000308 	stmdaeq	r0, {r3, r8, r9}
  24:	000001d8 	ldrdeq	r0, [r0], -r8
  28:	00000000 	andeq	r0, r0, r0
  2c:	00000094 	muleq	r0, r4, r0
  30:	080004e0 	stmdaeq	r0, {r5, r6, r7, sl}
  34:	00000016 	andeq	r0, r0, r6, lsl r0
  38:	00000000 	andeq	r0, r0, r0
  3c:	00000012 	andeq	r0, r0, r2, lsl r0
  40:	080004f8 	stmdaeq	r0, {r3, r4, r5, r6, r7, sl}
  44:	00000024 	andeq	r0, r0, r4, lsr #32
  48:	0800051c 	stmdaeq	r0, {r2, r3, r4, r8, sl}
  4c:	00000024 	andeq	r0, r0, r4, lsr #32
  50:	08000540 	stmdaeq	r0, {r6, r8, sl}
  54:	00000024 	andeq	r0, r0, r4, lsr #32
  58:	08000564 	stmdaeq	r0, {r2, r5, r6, r8, sl}
  5c:	00000024 	andeq	r0, r0, r4, lsr #32
  60:	08000588 	stmdaeq	r0, {r3, r7, r8, sl}
  64:	00000024 	andeq	r0, r0, r4, lsr #32
  68:	080005ac 	stmdaeq	r0, {r2, r3, r5, r7, r8, sl}
  6c:	000000a8 	andeq	r0, r0, r8, lsr #1
  70:	08000654 	stmdaeq	r0, {r2, r4, r6, r9, sl}
  74:	000000c4 	andeq	r0, r0, r4, asr #1
	...
  80:	0000005c 	andeq	r0, r0, ip, asr r0
  84:	05290002 	streq	r0, [r9, #-2]!
  88:	00040000 	andeq	r0, r4, r0
  8c:	00000000 	andeq	r0, r0, r0
  90:	08000718 	stmdaeq	r0, {r3, r4, r8, r9, sl}
  94:	0000016e 	andeq	r0, r0, lr, ror #2
  98:	08000888 	stmdaeq	r0, {r3, r7, fp}
  9c:	000000fa 	strdeq	r0, [r0], -sl
  a0:	00000000 	andeq	r0, r0, r0
  a4:	000000fc 	strdeq	r0, [r0], -ip
  a8:	00000000 	andeq	r0, r0, r0
  ac:	0000002e 	andeq	r0, r0, lr, lsr #32
  b0:	00000000 	andeq	r0, r0, r0
  b4:	0000001a 	andeq	r0, r0, sl, lsl r0
  b8:	00000000 	andeq	r0, r0, r0
  bc:	0000002e 	andeq	r0, r0, lr, lsr #32
  c0:	00000000 	andeq	r0, r0, r0
  c4:	00000022 	andeq	r0, r0, r2, lsr #32
  c8:	00000000 	andeq	r0, r0, r0
  cc:	00000028 	andeq	r0, r0, r8, lsr #32
  d0:	00000000 	andeq	r0, r0, r0
  d4:	0000004e 	andeq	r0, r0, lr, asr #32
	...
  e0:	00000024 	andeq	r0, r0, r4, lsr #32
  e4:	09c40002 	stmibeq	r4, {r1}^
  e8:	00040000 	andeq	r0, r4, r0
  ec:	00000000 	andeq	r0, r0, r0
  f0:	08000984 	stmdaeq	r0, {r2, r7, r8, fp}
  f4:	00000024 	andeq	r0, r0, r4, lsr #32
  f8:	080009a8 	stmdaeq	r0, {r3, r5, r7, r8, fp}
  fc:	00000078 	andeq	r0, r0, r8, ror r0
	...
 108:	00000024 	andeq	r0, r0, r4, lsr #32
 10c:	0d410002 	stcleq	0, cr0, [r1, #-8]
 110:	00040000 	andeq	r0, r4, r0
 114:	00000000 	andeq	r0, r0, r0
 118:	08000a20 	stmdaeq	r0, {r5, r9, fp}
 11c:	00000050 	andeq	r0, r0, r0, asr r0
 120:	08000a70 	stmdaeq	r0, {r4, r5, r6, r9, fp}
 124:	00000002 	andeq	r0, r0, r2
	...

Disassembly of section .debug_ranges:

00000000 <.debug_ranges>:
   0:	08000170 	stmdaeq	r0, {r4, r5, r6, r8}
   4:	0800023c 	stmdaeq	r0, {r2, r3, r4, r5, r9}
   8:	0800023c 	stmdaeq	r0, {r2, r3, r4, r5, r9}
   c:	08000308 	stmdaeq	r0, {r3, r8, r9}
  10:	08000308 	stmdaeq	r0, {r3, r8, r9}
  14:	080004e0 	stmdaeq	r0, {r5, r6, r7, sl}
  18:	00000001 	andeq	r0, r0, r1
  1c:	00000001 	andeq	r0, r0, r1
  20:	080004e0 	stmdaeq	r0, {r5, r6, r7, sl}
  24:	080004f6 	stmdaeq	r0, {r1, r2, r4, r5, r6, r7, sl}
  28:	00000001 	andeq	r0, r0, r1
  2c:	00000001 	andeq	r0, r0, r1
  30:	080004f8 	stmdaeq	r0, {r3, r4, r5, r6, r7, sl}
  34:	0800051c 	stmdaeq	r0, {r2, r3, r4, r8, sl}
  38:	0800051c 	stmdaeq	r0, {r2, r3, r4, r8, sl}
  3c:	08000540 	stmdaeq	r0, {r6, r8, sl}
  40:	08000540 	stmdaeq	r0, {r6, r8, sl}
  44:	08000564 	stmdaeq	r0, {r2, r5, r6, r8, sl}
  48:	08000564 	stmdaeq	r0, {r2, r5, r6, r8, sl}
  4c:	08000588 	stmdaeq	r0, {r3, r7, r8, sl}
  50:	08000588 	stmdaeq	r0, {r3, r7, r8, sl}
  54:	080005ac 	stmdaeq	r0, {r2, r3, r5, r7, r8, sl}
  58:	080005ac 	stmdaeq	r0, {r2, r3, r5, r7, r8, sl}
  5c:	08000654 	stmdaeq	r0, {r2, r4, r6, r9, sl}
  60:	08000654 	stmdaeq	r0, {r2, r4, r6, r9, sl}
  64:	08000718 	stmdaeq	r0, {r3, r4, r8, r9, sl}
	...
  70:	08000718 	stmdaeq	r0, {r3, r4, r8, r9, sl}
  74:	08000886 	stmdaeq	r0, {r1, r2, r7, fp}
  78:	08000888 	stmdaeq	r0, {r3, r7, fp}
  7c:	08000982 	stmdaeq	r0, {r1, r7, r8, fp}
  80:	00000001 	andeq	r0, r0, r1
  84:	00000001 	andeq	r0, r0, r1
  88:	00000001 	andeq	r0, r0, r1
  8c:	00000001 	andeq	r0, r0, r1
  90:	00000001 	andeq	r0, r0, r1
  94:	00000001 	andeq	r0, r0, r1
  98:	00000001 	andeq	r0, r0, r1
  9c:	00000001 	andeq	r0, r0, r1
  a0:	00000001 	andeq	r0, r0, r1
  a4:	00000001 	andeq	r0, r0, r1
  a8:	00000001 	andeq	r0, r0, r1
  ac:	00000001 	andeq	r0, r0, r1
  b0:	00000001 	andeq	r0, r0, r1
  b4:	00000001 	andeq	r0, r0, r1
	...
  c0:	08000984 	stmdaeq	r0, {r2, r7, r8, fp}
  c4:	080009a8 	stmdaeq	r0, {r3, r5, r7, r8, fp}
  c8:	080009a8 	stmdaeq	r0, {r3, r5, r7, r8, fp}
  cc:	08000a20 	stmdaeq	r0, {r5, r9, fp}
	...
  d8:	ffffffff 			; <UNDEFINED> instruction: 0xffffffff
  dc:	00000000 	andeq	r0, r0, r0
  e0:	08000a20 	stmdaeq	r0, {r5, r9, fp}
  e4:	08000a70 	stmdaeq	r0, {r4, r5, r6, r9, fp}
  e8:	08000a70 	stmdaeq	r0, {r4, r5, r6, r9, fp}
  ec:	08000a72 	stmdaeq	r0, {r1, r4, r5, r6, r9, fp}
	...

Disassembly of section .debug_macro:

00000000 <.debug_macro>:
       0:	00020004 	andeq	r0, r2, r4
       4:	07000000 	streq	r0, [r0, -r0]
       8:	0000015f 	andeq	r0, r0, pc, asr r1
       c:	03010003 	movweq	r0, #4099	; 0x1003
      10:	09050608 	stmdbeq	r5, {r3, r9, sl}
      14:	00005fa5 	andeq	r5, r0, r5, lsr #31
      18:	05040b03 	streq	r0, [r4, #-2819]	; 0xfffff4fd
      1c:	00015c09 	andeq	r5, r1, r9, lsl #24
      20:	070f0300 	streq	r0, [pc, -r0, lsl #6]
      24:	8e7b0805 	cdphi	8, 7, cr0, cr11, cr5, {0}
      28:	0a030000 	beq	c0030 <_Min_Stack_Size+0xbfc30>
      2c:	0c010708 	stceq	7, cr0, [r1], {8}
      30:	03040000 	movweq	r0, #16384	; 0x4000
      34:	0805090b 	stmdaeq	r5, {r0, r1, r3, r8, fp}
      38:	00005d59 	andeq	r5, r0, r9, asr sp
      3c:	050a0a03 	streq	r0, [sl, #-2563]	; 0xfffff5fd
      40:	00158c07 	andseq	r8, r5, r7, lsl #24
      44:	0b0a0300 	bleq	280c4c <_Min_Stack_Size+0x28084c>
      48:	000c2507 	andeq	r2, ip, r7, lsl #10
      4c:	47070400 	strmi	r0, [r7, -r0, lsl #8]
      50:	0400000c 	streq	r0, [r0], #-12
      54:	050c0b03 	streq	r0, [ip, #-2819]	; 0xfffff4fd
      58:	008d6602 	addeq	r6, sp, r2, lsl #12
      5c:	08040300 	stmdaeq	r4, {r8, r9}
      60:	0d050304 	stceq	3, cr0, [r5, #-16]
      64:	000ca207 	andeq	sl, ip, r7, lsl #4
      68:	36070400 	strcc	r0, [r7], -r0, lsl #8
      6c:	0400000d 	streq	r0, [r0], #-13
      70:	000d7907 	andeq	r7, sp, r7, lsl #18
      74:	ad070400 	cfstrsge	mvf0, [r7, #-0]
      78:	0300000d 	movweq	r0, #13
      7c:	c3070e10 	movwgt	r0, #32272	; 0x7e10
      80:	0400000d 	streq	r0, [r0], #-13
      84:	050f1203 	streq	r1, [pc, #-515]	; fffffe89 <_estack+0xdfffae89>
      88:	0062c70b 	rsbeq	ip, r2, fp, lsl #14
      8c:	090d0300 	stmdbeq	sp, {r8, r9}
      90:	0e0e0304 	cdpeq	3, 0, cr0, cr14, cr4, {0}
      94:	000ed107 	andeq	sp, lr, r7, lsl #2
      98:	0f030400 	svceq	0x00030400
      9c:	0f5e0710 	svceq	0x005e0710
      a0:	18030000 	stmdane	r3, {}	; <UNPREDICTABLE>
      a4:	0f74070e 	svceq	0x0074070e
      a8:	03040000 	movweq	r0, #16384	; 0x4000
      ac:	0605111b 			; <UNDEFINED> instruction: 0x0605111b
      b0:	0000680d 	andeq	r6, r0, sp, lsl #16
      b4:	07020703 	streq	r0, [r2, -r3, lsl #14]
      b8:	00000fb7 			; <UNDEFINED> instruction: 0x00000fb7
      bc:	0e070404 	cdpeq	4, 0, cr0, cr7, cr4, {0}
      c0:	04000010 	streq	r0, [r0], #-16
      c4:	00104207 	andseq	r4, r0, r7, lsl #4
      c8:	12220300 	eorne	r0, r2, #0, 6
      cc:	00105207 	andseq	r5, r0, r7, lsl #4
      d0:	aa070400 	bge	1c10d8 <_Min_Stack_Size+0x1c0cd8>
      d4:	03000010 	movweq	r0, #16
      d8:	071303ba 			; <UNDEFINED> instruction: 0x071303ba
      dc:	00001138 	andeq	r1, r0, r8, lsr r1
      e0:	11540704 	cmpne	r4, r4, lsl #14
      e4:	03040000 	movweq	r0, #16384	; 0x4000
      e8:	2b051413 	blcs	14513c <_Min_Stack_Size+0x144d3c>
      ec:	00009d22 	andeq	r9, r0, r2, lsr #26
      f0:	040e2f03 	streq	r2, [lr], #-3843	; 0xfffff0fd
      f4:	0012cb07 	andseq	ip, r2, r7, lsl #22
      f8:	14030400 	strne	r0, [r3], #-1024	; 0xfffffc00
      fc:	e4020515 	str	r0, [r2], #-1301	; 0xfffffaeb
     100:	0400002c 	streq	r0, [r0], #-44	; 0xffffffd4
     104:	07161603 	ldreq	r1, [r6, -r3, lsl #12]
     108:	00001634 	andeq	r1, r0, r4, lsr r6
     10c:	164a0704 	strbne	r0, [sl], -r4, lsl #14
     110:	03040000 	movweq	r0, #16384	; 0x4000
     114:	09031710 	stmdbeq	r3, {r4, r8, r9, sl, ip}
     118:	ec0a0518 	cfstr32	mvfx0, [sl], {24}
     11c:	03000007 	movweq	r0, #7
     120:	7307190d 	movwvc	r1, #30989	; 0x790d
     124:	04000016 	streq	r0, [r0], #-22	; 0xffffffea
     128:	07030e03 	streq	r0, [r3, -r3, lsl #28]
     12c:	00001776 	andeq	r1, r0, r6, ror r7
     130:	17e00704 	strbne	r0, [r0, r4, lsl #14]!
     134:	05040000 	streq	r0, [r4, #-0]
     138:	0007e30d 	andeq	lr, r7, sp, lsl #6
     13c:	bf070400 	svclt	0x00070400
     140:	04000019 	streq	r0, [r0], #-25	; 0xffffffe7
     144:	07050c03 	streq	r0, [r5, -r3, lsl #24]
     148:	00001f79 	andeq	r1, r0, r9, ror pc
     14c:	20490704 	subcs	r0, r9, r4, lsl #14
     150:	03040000 	movweq	r0, #16384	; 0x4000
     154:	05040509 	streq	r0, [r4, #-1289]	; 0xfffffaf7
     158:	006ca40b 	rsbeq	sl, ip, fp, lsl #8
     15c:	04000400 	streq	r0, [r0], #-1024	; 0xfffffc00
     160:	00050000 	andeq	r0, r5, r0
     164:	00009102 	andeq	r9, r0, r2, lsl #2
     168:	41a90005 			; <UNDEFINED> instruction: 0x41a90005
     16c:	00050000 	andeq	r0, r5, r0
     170:	00006372 	andeq	r6, r0, r2, ror r3
     174:	279d0005 	ldrcs	r0, [sp, r5]
     178:	00050000 	andeq	r0, r5, r0
     17c:	00000d6a 	andeq	r0, r0, sl, ror #26
     180:	4fe70005 	svcmi	0x00e70005
     184:	00050000 	andeq	r0, r5, r0
     188:	00008025 	andeq	r8, r0, r5, lsr #32
     18c:	24d00005 	ldrbcs	r0, [r0], #5
     190:	00050000 	andeq	r0, r5, r0
     194:	00002572 	andeq	r2, r0, r2, ror r5
     198:	89980005 	ldmibhi	r8, {r0, r2}
     19c:	00050000 	andeq	r0, r5, r0
     1a0:	00002984 	andeq	r2, r0, r4, lsl #19
     1a4:	42830005 	addmi	r0, r3, #5
     1a8:	00050000 	andeq	r0, r5, r0
     1ac:	00004bde 	ldrdeq	r4, [r0], -lr
     1b0:	a0f30005 	rscsge	r0, r3, r5
     1b4:	00050000 	andeq	r0, r5, r0
     1b8:	00004477 	andeq	r4, r0, r7, ror r4
     1bc:	78220005 	stmdavc	r2!, {r0, r2}
     1c0:	00050000 	andeq	r0, r5, r0
     1c4:	000094bf 			; <UNDEFINED> instruction: 0x000094bf
     1c8:	20530005 	subscs	r0, r3, r5
     1cc:	00050000 	andeq	r0, r5, r0
     1d0:	00000669 	andeq	r0, r0, r9, ror #12
     1d4:	2b950005 	blcs	fe5401f0 <_estack+0xde53b1f0>
     1d8:	00050000 	andeq	r0, r5, r0
     1dc:	000027af 	andeq	r2, r0, pc, lsr #15
     1e0:	214c0005 	cmpcs	ip, r5
     1e4:	00050000 	andeq	r0, r5, r0
     1e8:	00002d45 	andeq	r2, r0, r5, asr #26
     1ec:	84ee0005 	strbthi	r0, [lr], #5
     1f0:	00050000 	andeq	r0, r5, r0
     1f4:	00005a36 	andeq	r5, r0, r6, lsr sl
     1f8:	6b2d0005 	blvs	b40214 <_Min_Stack_Size+0xb3fe14>
     1fc:	00050000 	andeq	r0, r5, r0
     200:	0000735d 	andeq	r7, r0, sp, asr r3
     204:	13150005 	tstne	r5, #5
     208:	00050000 	andeq	r0, r5, r0
     20c:	000007ae 	andeq	r0, r0, lr, lsr #15
     210:	5cac0005 	stcpl	0, cr0, [ip], #20
     214:	00050000 	andeq	r0, r5, r0
     218:	000065e5 	andeq	r6, r0, r5, ror #11
     21c:	1cfd0005 	ldclne	0, cr0, [sp], #20
     220:	00050000 	andeq	r0, r5, r0
     224:	000022eb 	andeq	r2, r0, fp, ror #5
     228:	1e7b0005 	cdpne	0, 7, cr0, cr11, cr5, {0}
     22c:	00050000 	andeq	r0, r5, r0
     230:	000007c8 	andeq	r0, r0, r8, asr #15
     234:	371a0005 	ldrcc	r0, [sl, -r5]
     238:	00050000 	andeq	r0, r5, r0
     23c:	00002d7a 	andeq	r2, r0, sl, ror sp
     240:	0e0a0005 	cdpeq	0, 0, cr0, cr10, cr5, {0}
     244:	00050000 	andeq	r0, r5, r0
     248:	000080f6 	strdeq	r8, [r0], -r6
     24c:	7fa40005 	svcvc	0x00a40005
     250:	00050000 	andeq	r0, r5, r0
     254:	000076ba 			; <UNDEFINED> instruction: 0x000076ba
     258:	1ee00005 	cdpne	0, 14, cr0, cr0, cr5, {0}
     25c:	00050000 	andeq	r0, r5, r0
     260:	0000282a 	andeq	r2, r0, sl, lsr #16
     264:	080c0005 	stmdaeq	ip, {r0, r2}
     268:	00050000 	andeq	r0, r5, r0
     26c:	00000b15 	andeq	r0, r0, r5, lsl fp
     270:	7b010005 	blvc	4028c <_Min_Stack_Size+0x3fe8c>
     274:	00050000 	andeq	r0, r5, r0
     278:	00005a06 	andeq	r5, r0, r6, lsl #20
     27c:	37e00005 	strbcc	r0, [r0, r5]!
     280:	00050000 	andeq	r0, r5, r0
     284:	000046df 	ldrdeq	r4, [r0], -pc	; <UNPREDICTABLE>
     288:	934b0005 	movtls	r0, #45061	; 0xb005
     28c:	00050000 	andeq	r0, r5, r0
     290:	00008502 	andeq	r8, r0, r2, lsl #10
     294:	1d120005 	ldcne	0, cr0, [r2, #-20]	; 0xffffffec
     298:	00050000 	andeq	r0, r5, r0
     29c:	0000988d 	andeq	r9, r0, sp, lsl #17
     2a0:	71df0005 	bicsvc	r0, pc, r5
     2a4:	00050000 	andeq	r0, r5, r0
     2a8:	0000a3b5 			; <UNDEFINED> instruction: 0x0000a3b5
     2ac:	19780005 	ldmdbne	r8!, {r0, r2}^
     2b0:	00050000 	andeq	r0, r5, r0
     2b4:	00007657 	andeq	r7, r0, r7, asr r6
     2b8:	80510005 	subshi	r0, r1, r5
     2bc:	00050000 	andeq	r0, r5, r0
     2c0:	00004ab3 			; <UNDEFINED> instruction: 0x00004ab3
     2c4:	1c740005 	ldclne	0, cr0, [r4], #-20	; 0xffffffec
     2c8:	00050000 	andeq	r0, r5, r0
     2cc:	000075e6 	andeq	r7, r0, r6, ror #11
     2d0:	60000005 	andvs	r0, r0, r5
     2d4:	00050000 	andeq	r0, r5, r0
     2d8:	00000de8 	andeq	r0, r0, r8, ror #27
     2dc:	48200005 	stmdami	r0!, {r0, r2}
     2e0:	00050000 	andeq	r0, r5, r0
     2e4:	0000964b 	andeq	r9, r0, fp, asr #12
     2e8:	276a0005 	strbcs	r0, [sl, -r5]!
     2ec:	00050000 	andeq	r0, r5, r0
     2f0:	00002ea0 	andeq	r2, r0, r0, lsr #29
     2f4:	834e0005 	movthi	r0, #57349	; 0xe005
     2f8:	00050000 	andeq	r0, r5, r0
     2fc:	00001339 	andeq	r1, r0, r9, lsr r3
     300:	34290005 	strtcc	r0, [r9], #-5
     304:	00050000 	andeq	r0, r5, r0
     308:	00006305 	andeq	r6, r0, r5, lsl #6
     30c:	747a0005 	ldrbtvc	r0, [sl], #-5
     310:	00050000 	andeq	r0, r5, r0
     314:	0000a39e 	muleq	r0, lr, r3
     318:	9d090005 	stcls	0, cr0, [r9, #-20]	; 0xffffffec
     31c:	00050000 	andeq	r0, r5, r0
     320:	00006d53 	andeq	r6, r0, r3, asr sp
     324:	05c40005 	strbeq	r0, [r4, #5]
     328:	00050000 	andeq	r0, r5, r0
     32c:	0000518e 	andeq	r5, r0, lr, lsl #3
     330:	97fe0005 	ldrbls	r0, [lr, r5]!
     334:	00050000 	andeq	r0, r5, r0
     338:	000097b2 			; <UNDEFINED> instruction: 0x000097b2
     33c:	03f40005 	mvnseq	r0, #5
     340:	00050000 	andeq	r0, r5, r0
     344:	00009b51 	andeq	r9, r0, r1, asr fp
     348:	47d00005 	ldrbmi	r0, [r0, r5]
     34c:	00050000 	andeq	r0, r5, r0
     350:	000066c6 	andeq	r6, r0, r6, asr #13
     354:	59a50005 	stmibpl	r5!, {r0, r2}
     358:	00050000 	andeq	r0, r5, r0
     35c:	000050ab 	andeq	r5, r0, fp, lsr #1
     360:	56820005 	strpl	r0, [r2], r5
     364:	00050000 	andeq	r0, r5, r0
     368:	00009f1b 	andeq	r9, r0, fp, lsl pc
     36c:	94240005 	strtls	r0, [r4], #-5
     370:	00050000 	andeq	r0, r5, r0
     374:	00001463 	andeq	r1, r0, r3, ror #8
     378:	97580005 	ldrbls	r0, [r8, -r5]
     37c:	00050000 	andeq	r0, r5, r0
     380:	00000479 	andeq	r0, r0, r9, ror r4
     384:	04350005 	ldrteq	r0, [r5], #-5
     388:	00050000 	andeq	r0, r5, r0
     38c:	0000a2b1 			; <UNDEFINED> instruction: 0x0000a2b1
     390:	1cd00005 	ldclne	0, cr0, [r0], {5}
     394:	00050000 	andeq	r0, r5, r0
     398:	0000072a 	andeq	r0, r0, sl, lsr #14
     39c:	8a9a0005 	bhi	fe6803b8 <_estack+0xde67b3b8>
     3a0:	00050000 	andeq	r0, r5, r0
     3a4:	00003ba2 	andeq	r3, r0, r2, lsr #23
     3a8:	8eee0005 	cdphi	0, 14, cr0, cr14, cr5, {0}
     3ac:	00050000 	andeq	r0, r5, r0
     3b0:	00004507 	andeq	r4, r0, r7, lsl #10
     3b4:	8d510005 	ldclhi	0, cr0, [r1, #-20]	; 0xffffffec
     3b8:	00050000 	andeq	r0, r5, r0
     3bc:	000048f4 	strdeq	r4, [r0], -r4	; <UNPREDICTABLE>
     3c0:	4ea30005 	cdpmi	0, 10, cr0, cr3, cr5, {0}
     3c4:	00050000 	andeq	r0, r5, r0
     3c8:	000031bd 			; <UNDEFINED> instruction: 0x000031bd
     3cc:	2aa40005 	bcs	fe9003e8 <_estack+0xde8fb3e8>
     3d0:	00050000 	andeq	r0, r5, r0
     3d4:	00004149 	andeq	r4, r0, r9, asr #2
     3d8:	40a70005 	adcmi	r0, r7, r5
     3dc:	00050000 	andeq	r0, r5, r0
     3e0:	00004221 	andeq	r4, r0, r1, lsr #4
     3e4:	6eb10005 	cdpvs	0, 11, cr0, cr1, cr5, {0}
     3e8:	00050000 	andeq	r0, r5, r0
     3ec:	0000985a 	andeq	r9, r0, sl, asr r8
     3f0:	345e0005 	ldrbcc	r0, [lr], #-5
     3f4:	00050000 	andeq	r0, r5, r0
     3f8:	00009f5b 	andeq	r9, r0, fp, asr pc
     3fc:	3e7a0005 	cdpcc	0, 7, cr0, cr10, cr5, {0}
     400:	00050000 	andeq	r0, r5, r0
     404:	000023c1 	andeq	r2, r0, r1, asr #7
     408:	307c0005 	rsbscc	r0, ip, r5
     40c:	00050000 	andeq	r0, r5, r0
     410:	00002160 	andeq	r2, r0, r0, ror #2
     414:	494b0005 	stmdbmi	fp, {r0, r2}^
     418:	00050000 	andeq	r0, r5, r0
     41c:	00008529 	andeq	r8, r0, r9, lsr #10
     420:	448a0005 	strmi	r0, [sl], #5
     424:	00050000 	andeq	r0, r5, r0
     428:	00007b19 	andeq	r7, r0, r9, lsl fp
     42c:	0b060005 	bleq	180448 <_Min_Stack_Size+0x180048>
     430:	00050000 	andeq	r0, r5, r0
     434:	00002556 	andeq	r2, r0, r6, asr r5
     438:	87e40005 	strbhi	r0, [r4, r5]!
     43c:	00050000 	andeq	r0, r5, r0
     440:	00004405 	andeq	r4, r0, r5, lsl #8
     444:	35ec0005 	strbcc	r0, [ip, #5]!
     448:	00050000 	andeq	r0, r5, r0
     44c:	000072ab 	andeq	r7, r0, fp, lsr #5
     450:	4a9c0005 	bmi	fe70046c <_estack+0xde6fb46c>
     454:	00050000 	andeq	r0, r5, r0
     458:	0000916a 	andeq	r9, r0, sl, ror #2
     45c:	635b0005 	cmpvs	fp, #5
     460:	00050000 	andeq	r0, r5, r0
     464:	00007839 	andeq	r7, r0, r9, lsr r8
     468:	159b0005 	ldrne	r0, [fp, #5]
     46c:	00050000 	andeq	r0, r5, r0
     470:	00002966 	andeq	r2, r0, r6, ror #18
     474:	270f0005 	strcs	r0, [pc, -r5]
     478:	00050000 	andeq	r0, r5, r0
     47c:	00001ada 	ldrdeq	r1, [r0], -sl
     480:	a3860005 	orrge	r0, r6, #5
     484:	00050000 	andeq	r0, r5, r0
     488:	000014ee 	andeq	r1, r0, lr, ror #9
     48c:	16b20005 	ldrtne	r0, [r2], r5
     490:	00050000 	andeq	r0, r5, r0
     494:	00001fee 	andeq	r1, r0, lr, ror #31
     498:	56fc0005 	ldrbtpl	r0, [ip], r5
     49c:	00050000 	andeq	r0, r5, r0
     4a0:	0000165e 	andeq	r1, r0, lr, asr r6
     4a4:	579c0005 	ldrpl	r0, [ip, r5]
     4a8:	00050000 	andeq	r0, r5, r0
     4ac:	00003e43 	andeq	r3, r0, r3, asr #28
     4b0:	64b30005 	ldrtvs	r0, [r3], #5
     4b4:	00050000 	andeq	r0, r5, r0
     4b8:	00004673 	andeq	r4, r0, r3, ror r6
     4bc:	62d60005 	sbcsvs	r0, r6, #5
     4c0:	00050000 	andeq	r0, r5, r0
     4c4:	00004799 	muleq	r0, r9, r7
     4c8:	3eaf0005 	cdpcc	0, 10, cr0, cr15, cr5, {0}
     4cc:	00050000 	andeq	r0, r5, r0
     4d0:	000052b7 			; <UNDEFINED> instruction: 0x000052b7
     4d4:	06390005 	ldrteq	r0, [r9], -r5
     4d8:	00050000 	andeq	r0, r5, r0
     4dc:	00006239 	andeq	r6, r0, r9, lsr r2
     4e0:	60ba0005 	adcsvs	r0, sl, r5
     4e4:	00050000 	andeq	r0, r5, r0
     4e8:	0000741e 	andeq	r7, r0, lr, lsl r4
     4ec:	203f0005 	eorscs	r0, pc, r5
     4f0:	00050000 	andeq	r0, r5, r0
     4f4:	00002814 	andeq	r2, r0, r4, lsl r8
     4f8:	23760005 	cmncs	r6, #5
     4fc:	00050000 	andeq	r0, r5, r0
     500:	00002f51 	andeq	r2, r0, r1, asr pc
     504:	73ae0005 			; <UNDEFINED> instruction: 0x73ae0005
     508:	00050000 	andeq	r0, r5, r0
     50c:	00002ef9 	strdeq	r2, [r0], -r9
     510:	36760005 	ldrbtcc	r0, [r6], -r5
     514:	00050000 	andeq	r0, r5, r0
     518:	0000348e 	andeq	r3, r0, lr, lsl #9
     51c:	07f70005 	ldrbeq	r0, [r7, r5]!
     520:	00050000 	andeq	r0, r5, r0
     524:	000044a3 	andeq	r4, r0, r3, lsr #9
     528:	688d0005 	stmvs	sp, {r0, r2}
     52c:	00050000 	andeq	r0, r5, r0
     530:	00007e48 	andeq	r7, r0, r8, asr #28
     534:	a3080005 	movwge	r0, #32773	; 0x8005
     538:	00050000 	andeq	r0, r5, r0
     53c:	00008416 	andeq	r8, r0, r6, lsl r4
     540:	6edd0005 	cdpvs	0, 13, cr0, cr13, cr5, {0}
     544:	00050000 	andeq	r0, r5, r0
     548:	000012eb 	andeq	r1, r0, fp, ror #5
     54c:	4bbb0005 	blmi	feec0568 <_estack+0xdeebb568>
     550:	00050000 	andeq	r0, r5, r0
     554:	00000680 	andeq	r0, r0, r0, lsl #13
     558:	8c730005 	ldclhi	0, cr0, [r3], #-20	; 0xffffffec
     55c:	00050000 	andeq	r0, r5, r0
     560:	000098e6 	andeq	r9, r0, r6, ror #17
     564:	5eb00005 	cdppl	0, 11, cr0, cr0, cr5, {0}
     568:	00050000 	andeq	r0, r5, r0
     56c:	00001b1c 	andeq	r1, r0, ip, lsl fp
     570:	44270005 	strtmi	r0, [r7], #-5
     574:	00050000 	andeq	r0, r5, r0
     578:	00002930 	andeq	r2, r0, r0, lsr r9
     57c:	32a40005 	adccc	r0, r4, #5
     580:	00050000 	andeq	r0, r5, r0
     584:	00008a83 	andeq	r8, r0, r3, lsl #21
     588:	81c10005 	bichi	r0, r1, r5
     58c:	00050000 	andeq	r0, r5, r0
     590:	00001fd7 	ldrdeq	r1, [r0], -r7
     594:	0a670005 	beq	19c05b0 <_Min_Stack_Size+0x19c01b0>
     598:	00050000 	andeq	r0, r5, r0
     59c:	00009711 	andeq	r9, r0, r1, lsl r7
     5a0:	08f40005 	ldmeq	r4!, {r0, r2}^
     5a4:	00050000 	andeq	r0, r5, r0
     5a8:	0000684f 	andeq	r6, r0, pc, asr #16
     5ac:	31f80005 	mvnscc	r0, r5
     5b0:	00050000 	andeq	r0, r5, r0
     5b4:	00005f13 	andeq	r5, r0, r3, lsl pc
     5b8:	00560005 	subseq	r0, r6, r5
     5bc:	00050000 	andeq	r0, r5, r0
     5c0:	0000910d 	andeq	r9, r0, sp, lsl #2
     5c4:	52330005 	eorspl	r0, r3, #5
     5c8:	00050000 	andeq	r0, r5, r0
     5cc:	00006abe 			; <UNDEFINED> instruction: 0x00006abe
     5d0:	86420005 	strbhi	r0, [r2], -r5
     5d4:	00050000 	andeq	r0, r5, r0
     5d8:	00004af3 	strdeq	r4, [r0], -r3
     5dc:	4e760005 	cdpmi	0, 7, cr0, cr6, cr5, {0}
     5e0:	00050000 	andeq	r0, r5, r0
     5e4:	00006eff 	strdeq	r6, [r0], -pc	; <UNPREDICTABLE>
     5e8:	39b80005 	ldmibcc	r8!, {r0, r2}
     5ec:	00050000 	andeq	r0, r5, r0
     5f0:	0000184e 	andeq	r1, r0, lr, asr #16
     5f4:	748e0005 	strvc	r0, [lr], #5
     5f8:	00050000 	andeq	r0, r5, r0
     5fc:	000049f2 	strdeq	r4, [r0], -r2
     600:	2dd30005 	ldclcs	0, cr0, [r3, #20]
     604:	00050000 	andeq	r0, r5, r0
     608:	00000fce 	andeq	r0, r0, lr, asr #31
     60c:	6a120005 	bvs	480628 <_Min_Stack_Size+0x480228>
     610:	00050000 	andeq	r0, r5, r0
     614:	00001deb 	andeq	r1, r0, fp, ror #27
     618:	0eca0005 	cdpeq	0, 12, cr0, cr10, cr5, {0}
     61c:	00050000 	andeq	r0, r5, r0
     620:	000008bd 			; <UNDEFINED> instruction: 0x000008bd
     624:	83ee0005 	mvnhi	r0, #5
     628:	00050000 	andeq	r0, r5, r0
     62c:	0000a21d 	andeq	sl, r0, sp, lsl r2
     630:	08260005 	stmdaeq	r6!, {r0, r2}
     634:	00050000 	andeq	r0, r5, r0
     638:	00005cd3 	ldrdeq	r5, [r0], -r3
     63c:	4a080005 	bmi	200658 <_Min_Stack_Size+0x200258>
     640:	00050000 	andeq	r0, r5, r0
     644:	00009187 	andeq	r9, r0, r7, lsl #3
     648:	99580005 	ldmdbls	r8, {r0, r2}^
     64c:	00050000 	andeq	r0, r5, r0
     650:	00003953 	andeq	r3, r0, r3, asr r9
     654:	2f750005 	svccs	0x00750005
     658:	00050000 	andeq	r0, r5, r0
     65c:	00000697 	muleq	r0, r7, r6
     660:	97dd0005 	ldrbls	r0, [sp, r5]
     664:	00050000 	andeq	r0, r5, r0
     668:	000087f4 	strdeq	r8, [r0], -r4
     66c:	11b60005 			; <UNDEFINED> instruction: 0x11b60005
     670:	00050000 	andeq	r0, r5, r0
     674:	000058e1 	andeq	r5, r0, r1, ror #17
     678:	26800005 	strcs	r0, [r0], r5
     67c:	00050000 	andeq	r0, r5, r0
     680:	000004ab 	andeq	r0, r0, fp, lsr #9
     684:	0b5b0005 	bleq	16c06a0 <_Min_Stack_Size+0x16c02a0>
     688:	00050000 	andeq	r0, r5, r0
     68c:	00004d57 	andeq	r4, r0, r7, asr sp
     690:	594f0005 	stmdbpl	pc, {r0, r2}^	; <UNPREDICTABLE>
     694:	00050000 	andeq	r0, r5, r0
     698:	00008f06 	andeq	r8, r0, r6, lsl #30
     69c:	012c0005 			; <UNDEFINED> instruction: 0x012c0005
     6a0:	00050000 	andeq	r0, r5, r0
     6a4:	00006222 	andeq	r6, r0, r2, lsr #4
     6a8:	02a30005 	adceq	r0, r3, #5
     6ac:	00050000 	andeq	r0, r5, r0
     6b0:	000060d1 	ldrdeq	r6, [r0], -r1
     6b4:	72f90005 	rscsvc	r0, r9, #5
     6b8:	00050000 	andeq	r0, r5, r0
     6bc:	00009edd 	ldrdeq	r9, [r0], -sp
     6c0:	76fb0005 	ldrbtvc	r0, [fp], r5
     6c4:	00050000 	andeq	r0, r5, r0
     6c8:	00008036 	andeq	r8, r0, r6, lsr r0
     6cc:	1ea90005 	cdpne	0, 10, cr0, cr9, cr5, {0}
     6d0:	00050000 	andeq	r0, r5, r0
     6d4:	0000438c 	andeq	r4, r0, ip, lsl #7
     6d8:	3aa80005 	bcc	fea006f4 <_estack+0xde9fb6f4>
     6dc:	00050000 	andeq	r0, r5, r0
     6e0:	00001b02 	andeq	r1, r0, r2, lsl #22
     6e4:	7d940005 	ldcvc	0, cr0, [r4, #20]
     6e8:	00050000 	andeq	r0, r5, r0
     6ec:	000069ad 	andeq	r6, r0, sp, lsr #19
     6f0:	58890005 	stmpl	r9, {r0, r2}
     6f4:	00050000 	andeq	r0, r5, r0
     6f8:	00001c0e 	andeq	r1, r0, lr, lsl #24
     6fc:	27c20005 	strbcs	r0, [r2, r5]
     700:	00050000 	andeq	r0, r5, r0
     704:	00004c1d 	andeq	r4, r0, sp, lsl ip
     708:	18d90005 	ldmne	r9, {r0, r2}^
     70c:	00050000 	andeq	r0, r5, r0
     710:	00000e3d 	andeq	r0, r0, sp, lsr lr
     714:	3dd50005 	ldclcc	0, cr0, [r5, #20]
     718:	00050000 	andeq	r0, r5, r0
     71c:	00000718 	andeq	r0, r0, r8, lsl r7
     720:	5c2d0005 	stcpl	0, cr0, [sp], #-20	; 0xffffffec
     724:	00050000 	andeq	r0, r5, r0
     728:	00004619 	andeq	r4, r0, r9, lsl r6
     72c:	2e870005 	cdpcs	0, 8, cr0, cr7, cr5, {0}
     730:	00050000 	andeq	r0, r5, r0
     734:	0000129a 	muleq	r0, sl, r2
     738:	4ae00005 	bmi	ff800754 <_estack+0xdf7fb754>
     73c:	00050000 	andeq	r0, r5, r0
     740:	00003069 	andeq	r3, r0, r9, rrx
     744:	30f00005 	rscscc	r0, r0, r5
     748:	00050000 	andeq	r0, r5, r0
     74c:	00000f87 	andeq	r0, r0, r7, lsl #31
     750:	3f8c0005 	svccc	0x008c0005
     754:	00050000 	andeq	r0, r5, r0
     758:	0000249f 	muleq	r0, pc, r4	; <UNPREDICTABLE>
     75c:	72d60005 	sbcsvc	r0, r6, #5
     760:	00050000 	andeq	r0, r5, r0
     764:	000006ad 	andeq	r0, r0, sp, lsr #13
     768:	286d0005 	stmdacs	sp!, {r0, r2}^
     76c:	00050000 	andeq	r0, r5, r0
     770:	000069f7 	strdeq	r6, [r0], -r7
     774:	5e8d0005 	cdppl	0, 8, cr0, cr13, cr5, {0}
     778:	00050000 	andeq	r0, r5, r0
     77c:	00006e6d 	andeq	r6, r0, sp, ror #28
     780:	18390005 	ldmdane	r9!, {r0, r2}
     784:	00050000 	andeq	r0, r5, r0
     788:	00005afd 	strdeq	r5, [r0], -sp
     78c:	51710005 	cmnpl	r1, r5
     790:	00050000 	andeq	r0, r5, r0
     794:	00005a23 	andeq	r5, r0, r3, lsr #20
     798:	6ebf0005 	cdpvs	0, 11, cr0, cr15, cr5, {0}
     79c:	00050000 	andeq	r0, r5, r0
     7a0:	00004459 	andeq	r4, r0, r9, asr r4
     7a4:	65460005 	strbvs	r0, [r6, #-5]
     7a8:	00050000 	andeq	r0, r5, r0
     7ac:	0000690e 	andeq	r6, r0, lr, lsl #18
     7b0:	11980005 	orrsne	r0, r8, r5
     7b4:	00050000 	andeq	r0, r5, r0
     7b8:	0000a31c 	andeq	sl, r0, ip, lsl r3
     7bc:	7a5e0005 	bvc	17807d8 <_Min_Stack_Size+0x17803d8>
     7c0:	00050000 	andeq	r0, r5, r0
     7c4:	00007635 	andeq	r7, r0, r5, lsr r6
     7c8:	84250005 	strthi	r0, [r5], #-5
     7cc:	00050000 	andeq	r0, r5, r0
     7d0:	00009944 	andeq	r9, r0, r4, asr #18
     7d4:	94de0005 	ldrbls	r0, [lr], #5
     7d8:	00050000 	andeq	r0, r5, r0
     7dc:	0000163d 	andeq	r1, r0, sp, lsr r6
     7e0:	82480005 	subhi	r0, r8, #5
     7e4:	00050000 	andeq	r0, r5, r0
     7e8:	00009ea9 	andeq	r9, r0, r9, lsr #29
     7ec:	0d7c0005 	ldcleq	0, cr0, [ip, #-20]!	; 0xffffffec
     7f0:	00050000 	andeq	r0, r5, r0
     7f4:	00004f1e 	andeq	r4, r0, lr, lsl pc
     7f8:	68360005 	ldmdavs	r6!, {r0, r2}
     7fc:	00050000 	andeq	r0, r5, r0
     800:	00001e17 	andeq	r1, r0, r7, lsl lr
     804:	90530005 	subsls	r0, r3, r5
     808:	00050000 	andeq	r0, r5, r0
     80c:	00007095 	muleq	r0, r5, r0
     810:	75530005 	ldrbvc	r0, [r3, #-5]
     814:	00050000 	andeq	r0, r5, r0
     818:	00007613 	andeq	r7, r0, r3, lsl r6
     81c:	261e0005 	ldrcs	r0, [lr], -r5
     820:	00050000 	andeq	r0, r5, r0
     824:	00009556 	andeq	r9, r0, r6, asr r5
     828:	38920005 	ldmcc	r2, {r0, r2}
     82c:	00050000 	andeq	r0, r5, r0
     830:	00006173 	andeq	r6, r0, r3, ror r1
     834:	08830005 	stmeq	r3, {r0, r2}
     838:	00050000 	andeq	r0, r5, r0
     83c:	000006fb 	strdeq	r0, [r0], -fp
     840:	81a30005 			; <UNDEFINED> instruction: 0x81a30005
     844:	00050000 	andeq	r0, r5, r0
     848:	00001a0c 	andeq	r1, r0, ip, lsl #20
     84c:	86ea0005 	strbthi	r0, [sl], r5
     850:	00050000 	andeq	r0, r5, r0
     854:	00007147 	andeq	r7, r0, r7, asr #2
     858:	44ba0005 	ldrtmi	r0, [sl], #5
     85c:	00050000 	andeq	r0, r5, r0
     860:	000096d7 	ldrdeq	r9, [r0], -r7
     864:	50c80005 	sbcpl	r0, r8, r5
     868:	00050000 	andeq	r0, r5, r0
     86c:	00001a51 	andeq	r1, r0, r1, asr sl
     870:	36170005 	ldrcc	r0, [r7], -r5
     874:	00050000 	andeq	r0, r5, r0
     878:	00004d1e 	andeq	r4, r0, lr, lsl sp
     87c:	62470005 	subvs	r0, r7, #5
     880:	00050000 	andeq	r0, r5, r0
     884:	000025be 			; <UNDEFINED> instruction: 0x000025be
     888:	154a0005 	strbne	r0, [sl, #-5]
     88c:	00050000 	andeq	r0, r5, r0
     890:	00009146 	andeq	r9, r0, r6, asr #2
     894:	76920005 	ldrvc	r0, [r2], r5
     898:	00050000 	andeq	r0, r5, r0
     89c:	0000531a 	andeq	r5, r0, sl, lsl r3
     8a0:	05b00005 	ldreq	r0, [r0, #5]!
     8a4:	00050000 	andeq	r0, r5, r0
     8a8:	00007466 	andeq	r7, r0, r6, ror #8
     8ac:	51f60005 	mvnspl	r0, r5
     8b0:	00050000 	andeq	r0, r5, r0
     8b4:	0000796e 	andeq	r7, r0, lr, ror #18
     8b8:	96f20005 	ldrbtls	r0, [r2], r5
     8bc:	00050000 	andeq	r0, r5, r0
     8c0:	00007f90 	muleq	r0, r0, pc	; <UNPREDICTABLE>
     8c4:	48410005 	stmdami	r1, {r0, r2}^
     8c8:	00050000 	andeq	r0, r5, r0
     8cc:	00000357 	andeq	r0, r0, r7, asr r3
     8d0:	40000005 	andmi	r0, r0, r5
     8d4:	00050000 	andeq	r0, r5, r0
     8d8:	000024b1 			; <UNDEFINED> instruction: 0x000024b1
     8dc:	2ba80005 	blcs	fea008f8 <_estack+0xde9fb8f8>
     8e0:	00050000 	andeq	r0, r5, r0
     8e4:	00008f6a 	andeq	r8, r0, sl, ror #30
     8e8:	92090005 	andls	r0, r9, #5
     8ec:	00050000 	andeq	r0, r5, r0
     8f0:	00006105 	andeq	r6, r0, r5, lsl #2
     8f4:	74d30005 	ldrbvc	r0, [r3], #5
     8f8:	00050000 	andeq	r0, r5, r0
     8fc:	000098ac 	andeq	r9, r0, ip, lsr #17
     900:	7efe0005 	cdpvc	0, 15, cr0, cr14, cr5, {0}
     904:	00050000 	andeq	r0, r5, r0
     908:	00009acf 	andeq	r9, r0, pc, asr #21
     90c:	a1060005 	tstge	r6, r5
     910:	00050000 	andeq	r0, r5, r0
     914:	00001357 	andeq	r1, r0, r7, asr r3
     918:	07a00005 	streq	r0, [r0, r5]!
     91c:	00050000 	andeq	r0, r5, r0
     920:	00007505 	andeq	r7, r0, r5, lsl #10
     924:	7ad50005 	bvc	ff540940 <_estack+0xdf53b940>
     928:	00050000 	andeq	r0, r5, r0
     92c:	00002ad0 	ldrdeq	r2, [r0], -r0
     930:	049d0005 	ldreq	r0, [sp], #5
     934:	00050000 	andeq	r0, r5, r0
     938:	00000ee2 	andeq	r0, r0, r2, ror #29
     93c:	51b30005 			; <UNDEFINED> instruction: 0x51b30005
     940:	00050000 	andeq	r0, r5, r0
     944:	000013f6 	strdeq	r1, [r0], -r6
     948:	75720005 	ldrbvc	r0, [r2, #-5]!
     94c:	00050000 	andeq	r0, r5, r0
     950:	00001305 	andeq	r1, r0, r5, lsl #6
     954:	80160005 	andshi	r0, r6, r5
     958:	00050000 	andeq	r0, r5, r0
     95c:	00005ea0 	andeq	r5, r0, r0, lsr #29
     960:	4ca80005 	stcmi	0, cr0, [r8], #20
     964:	00050000 	andeq	r0, r5, r0
     968:	00007744 	andeq	r7, r0, r4, asr #14
     96c:	7d5d0005 	ldclvc	0, cr0, [sp, #-20]	; 0xffffffec
     970:	00050000 	andeq	r0, r5, r0
     974:	00002f2c 	andeq	r2, r0, ip, lsr #30
     978:	157e0005 	ldrbne	r0, [lr, #-5]!
     97c:	00050000 	andeq	r0, r5, r0
     980:	00007d74 	andeq	r7, r0, r4, ror sp
     984:	46370005 	ldrtmi	r0, [r7], -r5
     988:	00050000 	andeq	r0, r5, r0
     98c:	000033dc 	ldrdeq	r3, [r0], -ip
     990:	9fa50005 	svcls	0x00a50005
     994:	00050000 	andeq	r0, r5, r0
     998:	00003a3e 	andeq	r3, r0, lr, lsr sl
     99c:	6bc90005 	blvs	ff2409b8 <_estack+0xdf23b9b8>
     9a0:	00050000 	andeq	r0, r5, r0
     9a4:	000000af 	andeq	r0, r0, pc, lsr #1
     9a8:	3f210005 	svccc	0x00210005
     9ac:	00050000 	andeq	r0, r5, r0
     9b0:	000067e9 	andeq	r6, r0, r9, ror #15
     9b4:	91250005 			; <UNDEFINED> instruction: 0x91250005
     9b8:	00050000 	andeq	r0, r5, r0
     9bc:	00001cb4 			; <UNDEFINED> instruction: 0x00001cb4
     9c0:	88750005 	ldmdahi	r5!, {r0, r2}^
     9c4:	00050000 	andeq	r0, r5, r0
     9c8:	0000232d 	andeq	r2, r0, sp, lsr #6
     9cc:	8f5a0005 	svchi	0x005a0005
     9d0:	00050000 	andeq	r0, r5, r0
     9d4:	000083d9 	ldrdeq	r8, [r0], -r9
     9d8:	40900005 	addsmi	r0, r0, r5
     9dc:	00050000 	andeq	r0, r5, r0
     9e0:	000096b1 			; <UNDEFINED> instruction: 0x000096b1
     9e4:	88f20005 	ldmhi	r2!, {r0, r2}^
     9e8:	00050000 	andeq	r0, r5, r0
     9ec:	000001ff 	strdeq	r0, [r0], -pc	; <UNPREDICTABLE>
     9f0:	0cdb0005 	ldcleq	0, cr0, [fp], {5}
     9f4:	00050000 	andeq	r0, r5, r0
     9f8:	000093bc 			; <UNDEFINED> instruction: 0x000093bc
     9fc:	70a70005 	adcvc	r0, r7, r5
     a00:	00050000 	andeq	r0, r5, r0
     a04:	00001d73 	andeq	r1, r0, r3, ror sp
     a08:	8d780005 	ldclhi	0, cr0, [r8, #-20]!	; 0xffffffec
     a0c:	00050000 	andeq	r0, r5, r0
     a10:	00004b79 	andeq	r4, r0, r9, ror fp
     a14:	24e60005 	strbtcs	r0, [r6], #5
     a18:	00050000 	andeq	r0, r5, r0
     a1c:	0000019b 	muleq	r0, fp, r1
     a20:	36ca0005 	strbcc	r0, [sl], r5
     a24:	00050000 	andeq	r0, r5, r0
     a28:	00008114 	andeq	r8, r0, r4, lsl r1
     a2c:	51d80005 	bicspl	r0, r8, r5
     a30:	00050000 	andeq	r0, r5, r0
     a34:	000008d5 	ldrdeq	r0, [r0], -r5
     a38:	38e80005 	stmiacc	r8!, {r0, r2}^
     a3c:	00050000 	andeq	r0, r5, r0
     a40:	00004239 	andeq	r4, r0, r9, lsr r2
     a44:	70750005 	rsbsvc	r0, r5, r5
     a48:	00050000 	andeq	r0, r5, r0
     a4c:	000045e9 	andeq	r4, r0, r9, ror #11
     a50:	2d5e0005 	ldclcs	0, cr0, [lr, #-20]	; 0xffffffec
     a54:	00050000 	andeq	r0, r5, r0
     a58:	000095cd 	andeq	r9, r0, sp, asr #11
     a5c:	90b60005 	adcsls	r0, r6, r5
     a60:	00050000 	andeq	r0, r5, r0
     a64:	00006566 	andeq	r6, r0, r6, ror #10
     a68:	578a0006 	strpl	r0, [sl, r6]
     a6c:	00050000 	andeq	r0, r5, r0
     a70:	0000425a 	andeq	r4, r0, sl, asr r2
     a74:	8c8a0005 	stchi	0, cr0, [sl], {5}
     a78:	00060000 	andeq	r0, r6, r0
     a7c:	00007187 	andeq	r7, r0, r7, lsl #3
     a80:	90e80005 	rscls	r0, r8, r5
     a84:	00060000 	andeq	r0, r6, r0
     a88:	00006c90 	muleq	r0, r0, ip
     a8c:	8f990006 	svchi	0x00990006
     a90:	00060000 	andeq	r0, r6, r0
     a94:	0000936d 	andeq	r9, r0, sp, ror #6
     a98:	42960006 	addsmi	r0, r6, #6
     a9c:	00050000 	andeq	r0, r5, r0
     aa0:	00006e7f 	andeq	r6, r0, pc, ror lr
     aa4:	468b0006 	strmi	r0, [fp], r6
     aa8:	00060000 	andeq	r0, r6, r0
     aac:	00005307 	andeq	r5, r0, r7, lsl #6
     ab0:	639c0006 	orrsvs	r0, ip, #6
     ab4:	00050000 	andeq	r0, r5, r0
     ab8:	00009de4 	andeq	r9, r0, r4, ror #27
     abc:	426f0005 	rsbmi	r0, pc, #5
     ac0:	00060000 	andeq	r0, r6, r0
     ac4:	000080c1 	andeq	r8, r0, r1, asr #1
     ac8:	9ec80006 	cdpls	0, 12, cr0, cr8, cr6, {0}
     acc:	00050000 	andeq	r0, r5, r0
     ad0:	0000697f 	andeq	r6, r0, pc, ror r9
     ad4:	43750005 	cmnmi	r5, #5
     ad8:	00060000 	andeq	r0, r6, r0
     adc:	000059f3 	strdeq	r5, [r0], -r3
     ae0:	25a80005 	strcs	r0, [r8, #5]!
     ae4:	00050000 	andeq	r0, r5, r0
     ae8:	000069dd 	ldrdeq	r6, [r0], -sp
     aec:	9ca10006 	stcls	0, cr0, [r1], #24
     af0:	00050000 	andeq	r0, r5, r0
     af4:	00005259 	andeq	r5, r0, r9, asr r2
     af8:	49740005 	ldmdbmi	r4!, {r0, r2}^
     afc:	00050000 	andeq	r0, r5, r0
     b00:	0000958c 	andeq	r9, r0, ip, lsl #11
     b04:	23b50005 			; <UNDEFINED> instruction: 0x23b50005
     b08:	00050000 	andeq	r0, r5, r0
     b0c:	00009383 	andeq	r9, r0, r3, lsl #7
     b10:	7e5f0005 	cdpvc	0, 5, cr0, cr15, cr5, {0}
     b14:	00060000 	andeq	r0, r6, r0
     b18:	0000375d 	andeq	r3, r0, sp, asr r7
     b1c:	6d3c0005 	ldcvs	0, cr0, [ip, #-20]!	; 0xffffffec
     b20:	00050000 	andeq	r0, r5, r0
     b24:	00009a61 	andeq	r9, r0, r1, ror #20
     b28:	47530005 	ldrbmi	r0, [r3, -r5]
     b2c:	00050000 	andeq	r0, r5, r0
     b30:	000037d3 	ldrdeq	r3, [r0], -r3	; <UNPREDICTABLE>
     b34:	57260006 	strpl	r0, [r6, -r6]!
     b38:	00060000 	andeq	r0, r6, r0
     b3c:	000046c8 	andeq	r4, r0, r8, asr #13
     b40:	6a860006 	bvs	fe180b60 <_estack+0xde17bb60>
     b44:	00060000 	andeq	r0, r6, r0
     b48:	000064a3 	andeq	r6, r0, r3, lsr #9
     b4c:	817e0006 	cmnhi	lr, r6
     b50:	00060000 	andeq	r0, r6, r0
     b54:	00001f4a 	andeq	r1, r0, sl, asr #30
     b58:	3ee90006 	cdpcc	0, 14, cr0, cr9, cr6, {0}
     b5c:	00060000 	andeq	r0, r6, r0
     b60:	00007680 	andeq	r7, r0, r0, lsl #13
     b64:	1dc00006 	stclne	0, cr0, [r0, #24]
     b68:	00060000 	andeq	r0, r6, r0
     b6c:	00003165 	andeq	r3, r0, r5, ror #2
     b70:	5cfe0006 	ldclpl	0, cr0, [lr], #24
     b74:	00050000 	andeq	r0, r5, r0
     b78:	00001e01 	andeq	r1, r0, r1, lsl #28
     b7c:	1c570005 	mrrcne	0, 0, r0, r7, cr5
     b80:	00050000 	andeq	r0, r5, r0
     b84:	00003ada 	ldrdeq	r3, [r0], -sl
     b88:	7e180005 	cdpvc	0, 1, cr0, cr8, cr5, {0}
     b8c:	00060000 	andeq	r0, r6, r0
     b90:	00002f3a 	andeq	r2, r0, sl, lsr pc
     b94:	3ac20005 	bcc	ff080bb0 <_estack+0xdf07bbb0>
     b98:	00050000 	andeq	r0, r5, r0
     b9c:	000065d0 	ldrdeq	r6, [r0], -r0
     ba0:	92d20005 	sbcsls	r0, r2, #5
     ba4:	00060000 	andeq	r0, r6, r0
     ba8:	000089d3 	ldrdeq	r8, [r0], -r3
     bac:	66940005 	ldrvs	r0, [r4], r5
     bb0:	00060000 	andeq	r0, r6, r0
     bb4:	000086d8 	ldrdeq	r8, [r0], -r8	; <UNPREDICTABLE>
     bb8:	a4040006 	strge	r0, [r4], #-6
     bbc:	00060000 	andeq	r0, r6, r0
     bc0:	0000396d 	andeq	r3, r0, sp, ror #18
     bc4:	077b0006 	ldrbeq	r0, [fp, -r6]!
     bc8:	00060000 	andeq	r0, r6, r0
     bcc:	00004982 	andeq	r4, r0, r2, lsl #19
     bd0:	7ae30006 	bvc	ff8c0bf0 <_estack+0xdf8bbbf0>
     bd4:	00050000 	andeq	r0, r5, r0
     bd8:	00006186 	andeq	r6, r0, r6, lsl #3
     bdc:	7e3e0005 	cdpvc	0, 3, cr0, cr14, cr5, {0}
     be0:	00050000 	andeq	r0, r5, r0
     be4:	00008bf8 	strdeq	r8, [r0], -r8	; <UNPREDICTABLE>
     be8:	12000005 	andne	r0, r0, #5
     bec:	00050000 	andeq	r0, r5, r0
     bf0:	00006bf0 	strdeq	r6, [r0], -r0
     bf4:	a14c0005 	cmpge	ip, r5
     bf8:	00050000 	andeq	r0, r5, r0
     bfc:	00002b38 	andeq	r2, r0, r8, lsr fp
     c00:	00000400 	andeq	r0, r0, r0, lsl #8
     c04:	68204d05 	stmdavs	r0!, {r0, r2, r8, sl, fp, lr}
     c08:	62050000 	andvs	r0, r5, #0
     c0c:	00002de3 	andeq	r2, r0, r3, ror #27
     c10:	5f006305 	svcpl	0x00006305
     c14:	fe050000 	cdp2	0, 0, cr0, cr5, cr0, {0}
     c18:	0066ac03 	rsbeq	sl, r6, r3, lsl #24
     c1c:	04810500 	streq	r0, [r1], #1280	; 0x500
     c20:	00003987 	andeq	r3, r0, r7, lsl #19
     c24:	00000400 	andeq	r0, r0, r0, lsl #8
     c28:	51c20405 	bicpl	r0, r2, r5, lsl #8
     c2c:	06050000 	streq	r0, [r5], -r0
     c30:	00000026 	andeq	r0, r0, r6, lsr #32
     c34:	22de0705 	sbcscs	r0, lr, #1310720	; 0x140000
     c38:	08050000 	stmdaeq	r5, {}	; <UNPREDICTABLE>
     c3c:	0000609a 	muleq	r0, sl, r0
     c40:	73120905 	tstvc	r2, #81920	; 0x14000
     c44:	04000000 	streq	r0, [r0], #-0
     c48:	1b050000 	blne	140c50 <_Min_Stack_Size+0x140850>
     c4c:	0000520d 	andeq	r5, r0, sp, lsl #4
     c50:	59b62705 	ldmibpl	r6!, {r0, r2, r8, r9, sl, sp}
     c54:	2b050000 	blcs	140c5c <_Min_Stack_Size+0x14085c>
     c58:	00007e27 	andeq	r7, r0, r7, lsr #28
     c5c:	24712e05 	ldrbtcs	r2, [r1], #-3589	; 0xfffff1fb
     c60:	e3050000 	movw	r0, #20480	; 0x5000
     c64:	000d9102 	andeq	r9, sp, r2, lsl #2
     c68:	02e60500 	rsceq	r0, r6, #0, 10
     c6c:	00008977 	andeq	r8, r0, r7, ror r9
     c70:	6902ec05 	stmdbvs	r2, {r0, r2, sl, fp, sp, lr, pc}
     c74:	05000033 	streq	r0, [r0, #-51]	; 0xffffffcd
     c78:	a1e402ef 	mvnge	r0, pc, ror #5
     c7c:	f2050000 	vhadd.s8	d0, d5, d0
     c80:	00194902 	andseq	r4, r9, r2, lsl #18
     c84:	02f50500 	rscseq	r0, r5, #0, 10
     c88:	000095e2 	andeq	r9, r0, r2, ror #11
     c8c:	7602f805 	strvc	pc, [r2], -r5, lsl #16
     c90:	0500008b 	streq	r0, [r0, #-139]	; 0xffffff75
     c94:	5b4f0391 	blpl	13c1ae0 <_Min_Stack_Size+0x13c16e0>
     c98:	9b050000 	blls	140ca0 <_Min_Stack_Size+0x1408a0>
     c9c:	0072e703 	rsbseq	lr, r2, r3, lsl #14
     ca0:	00040000 	andeq	r0, r4, r0
     ca4:	94160500 	ldrls	r0, [r6], #-1280	; 0xfffffb00
     ca8:	0500002c 	streq	r0, [r0, #-44]	; 0xffffffd4
     cac:	0017e521 	andseq	lr, r7, r1, lsr #10
     cb0:	e5280500 	str	r0, [r8, #-1280]!	; 0xfffffb00
     cb4:	06000082 	streq	r0, [r0], -r2, lsl #1
     cb8:	93ac0183 			; <UNDEFINED> instruction: 0x93ac0183
     cbc:	84050000 	strhi	r0, [r5], #-0
     cc0:	0049c401 	subeq	ip, r9, r1, lsl #8
     cc4:	01880600 	orreq	r0, r8, r0, lsl #12
     cc8:	00004702 	andeq	r4, r0, r2, lsl #14
     ccc:	3b018905 	blcc	630e8 <_Min_Stack_Size+0x62ce8>
     cd0:	06000096 			; <UNDEFINED> instruction: 0x06000096
     cd4:	a2a1018a 	adcge	r0, r1, #-2147483614	; 0x80000022
     cd8:	8b050000 	blhi	140ce0 <_Min_Stack_Size+0x1408e0>
     cdc:	001f9c01 	andseq	r9, pc, r1, lsl #24
     ce0:	019e0600 	orrseq	r0, lr, r0, lsl #12
     ce4:	0000417d 	andeq	r4, r0, sp, ror r1
     ce8:	3f019f05 	svccc	0x00019f05
     cec:	0500005c 	streq	r0, [r0, #-92]	; 0xffffffa4
     cf0:	68d101f7 	ldmvs	r1, {r0, r1, r2, r4, r5, r6, r7, r8}^
     cf4:	fd050000 	stc2	0, cr0, [r5, #-0]
     cf8:	005a6e01 	subseq	r6, sl, r1, lsl #28
     cfc:	02850500 	addeq	r0, r5, #0, 10
     d00:	00007543 	andeq	r7, r0, r3, asr #10
     d04:	64028a05 	strvs	r8, [r2], #-2565	; 0xfffff5fb
     d08:	0500006a 	streq	r0, [r0, #-106]	; 0xffffff96
     d0c:	22960295 	addscs	r0, r6, #1342177289	; 0x50000009
     d10:	99050000 	stmdbls	r5, {}	; <UNPREDICTABLE>
     d14:	00390c02 	eorseq	r0, r9, r2, lsl #24
     d18:	029f0500 	addseq	r0, pc, #0, 10
     d1c:	000006c8 	andeq	r0, r0, r8, asr #13
     d20:	be02af05 	cdplt	15, 0, cr10, cr2, cr5, {0}
     d24:	05000000 	streq	r0, [r0, #-0]
     d28:	8e6b02bf 	mcrhi	2, 3, r0, cr11, cr15, {5}
     d2c:	cb050000 	blgt	140d34 <_Min_Stack_Size+0x140934>
     d30:	008e0e02 	addeq	r0, lr, r2, lsl #28
     d34:	00040000 	andeq	r0, r4, r0
     d38:	01e00500 	mvneq	r0, r0, lsl #10
     d3c:	0000699b 	muleq	r0, fp, r9
     d40:	1901e606 	stmdbne	r1, {r1, r2, r9, sl, sp, lr, pc}
     d44:	05000047 	streq	r0, [r0, #-71]	; 0xffffffb9
     d48:	167801ea 	ldrbtne	r0, [r8], -sl, ror #3
     d4c:	f8050000 			; <UNDEFINED> instruction: 0xf8050000
     d50:	00668a01 	rsbeq	r8, r6, r1, lsl #20
     d54:	01fc0500 	mvnseq	r0, r0, lsl #10
     d58:	000067b2 			; <UNDEFINED> instruction: 0x000067b2
     d5c:	97028305 	strls	r8, [r2, -r5, lsl #6]
     d60:	05000029 	streq	r0, [r0, #-41]	; 0xffffffd7
     d64:	66d80289 	ldrbvs	r0, [r8], r9, lsl #5
     d68:	96050000 	strls	r0, [r5], -r0
     d6c:	0091fb02 	addseq	pc, r1, r2, lsl #22
     d70:	02a20500 	adceq	r0, r2, #0, 10
     d74:	0000490e 	andeq	r4, r0, lr, lsl #18
     d78:	00000400 	andeq	r0, r0, r0, lsl #8
     d7c:	692b1f05 	stmdbvs	fp!, {r0, r2, r8, r9, sl, fp, ip}
     d80:	20050000 	andcs	r0, r5, r0
     d84:	00003563 	andeq	r3, r0, r3, ror #10
     d88:	5d4f2105 	stfple	f2, [pc, #-20]	; d7c <_Min_Stack_Size+0x97c>
     d8c:	25050000 	strcs	r0, [r5, #-0]
     d90:	0000040f 	andeq	r0, r0, pc, lsl #8
     d94:	89ab2b05 	stmibhi	fp!, {r0, r2, r8, r9, fp, sp}
     d98:	45050000 	strmi	r0, [r5, #-0]
     d9c:	00001385 	andeq	r1, r0, r5, lsl #7
     da0:	1c8b4905 			; <UNDEFINED> instruction: 0x1c8b4905
     da4:	4a050000 	bmi	140dac <_Min_Stack_Size+0x1409ac>
     da8:	00008226 	andeq	r8, r0, r6, lsr #4
     dac:	00000400 	andeq	r0, r0, r0, lsl #8
     db0:	2f1d0d05 	svccs	0x001d0d05
     db4:	0e050000 	cdpeq	0, 0, cr0, cr5, cr0, {0}
     db8:	00002e1e 	andeq	r2, r0, lr, lsl lr
     dbc:	49b70f05 	ldmibmi	r7!, {r0, r2, r8, r9, sl, fp}
     dc0:	04000000 	streq	r0, [r0], #-0
     dc4:	b5050000 	strlt	r0, [r5, #-0]
     dc8:	001cc401 	andseq	ip, ip, r1, lsl #8
     dcc:	01b60500 			; <UNDEFINED> instruction: 0x01b60500
     dd0:	00000e58 	andeq	r0, r0, r8, asr lr
     dd4:	ee01b705 	cdp	7, 0, cr11, cr1, cr5, {0}
     dd8:	05000093 	streq	r0, [r0, #-147]	; 0xffffff6d
     ddc:	191c01b8 	ldmdbne	ip, {r3, r4, r5, r7, r8}
     de0:	b9050000 	stmdblt	r5, {}	; <UNPREDICTABLE>
     de4:	00478f01 	subeq	r8, r7, r1, lsl #30
     de8:	01ba0500 			; <UNDEFINED> instruction: 0x01ba0500
     dec:	000012e2 	andeq	r1, r0, r2, ror #5
     df0:	f501bb05 			; <UNDEFINED> instruction: 0xf501bb05
     df4:	0500006e 	streq	r0, [r0, #-110]	; 0xffffff92
     df8:	7bed01bc 	blvc	ffb414f0 <_estack+0xdfb3c4f0>
     dfc:	bd050000 	stclt	0, cr0, [r5, #-0]
     e00:	007be901 	rsbseq	lr, fp, r1, lsl #18
     e04:	01be0500 			; <UNDEFINED> instruction: 0x01be0500
     e08:	0000274e 	andeq	r2, r0, lr, asr #14
     e0c:	f401bf05 			; <UNDEFINED> instruction: 0xf401bf05
     e10:	05000074 	streq	r0, [r0, #-116]	; 0xffffff8c
     e14:	274a01c0 	strbcs	r0, [sl, -r0, asr #3]
     e18:	c1050000 	mrsgt	r0, (UNDEF: 5)
     e1c:	001ec601 	andseq	ip, lr, r1, lsl #12
     e20:	01c20500 	biceq	r0, r2, r0, lsl #10
     e24:	0000278c 	andeq	r2, r0, ip, lsl #15
     e28:	ea01c305 	b	71a44 <_Min_Stack_Size+0x71644>
     e2c:	05000093 	streq	r0, [r0, #-147]	; 0xffffff6d
     e30:	39af01c4 	stmibcc	pc!, {r2, r6, r7, r8}	; <UNPREDICTABLE>
     e34:	cb050000 	blgt	140e3c <_Min_Stack_Size+0x140a3c>
     e38:	0011d201 	andseq	sp, r1, r1, lsl #4
     e3c:	01e70600 	mvneq	r0, r0, lsl #12
     e40:	00005225 	andeq	r5, r0, r5, lsr #4
     e44:	37028405 	strcc	r8, [r2, -r5, lsl #8]
     e48:	05000053 	streq	r0, [r0, #-83]	; 0xffffffad
     e4c:	65870285 	strvs	r0, [r7, #645]	; 0x285
     e50:	86050000 	strhi	r0, [r5], -r0
     e54:	00664302 	rsbeq	r4, r6, r2, lsl #6
     e58:	02870500 	addeq	r0, r7, #0, 10
     e5c:	000050bd 	strheq	r5, [r0], -sp
     e60:	9e028805 	cdpls	8, 0, cr8, cr2, cr5, {0}
     e64:	0500007c 	streq	r0, [r0, #-124]	; 0xffffff84
     e68:	59230289 	stmdbpl	r3!, {r0, r3, r7, r9}
     e6c:	8a050000 	bhi	140e74 <_Min_Stack_Size+0x140a74>
     e70:	003cb302 	eorseq	fp, ip, r2, lsl #6
     e74:	028b0500 	addeq	r0, fp, #0, 10
     e78:	00003caf 	andeq	r3, r0, pc, lsr #25
     e7c:	39028c05 	stmdbcc	r2, {r0, r2, sl, fp, pc}
     e80:	050000a1 	streq	r0, [r0, #-161]	; 0xffffff5f
     e84:	795c028d 	ldmdbvc	ip, {r0, r2, r3, r7, r9}^
     e88:	8e050000 	cdphi	0, 0, cr0, cr5, cr0, {0}
     e8c:	007d8802 	rsbseq	r8, sp, r2, lsl #16
     e90:	028f0500 	addeq	r0, pc, #0, 10
     e94:	00009259 	andeq	r9, r0, r9, asr r2
     e98:	83029005 	movwhi	r9, #8197	; 0x2005
     e9c:	0500007d 	streq	r0, [r0, #-125]	; 0xffffff83
     ea0:	663f0291 			; <UNDEFINED> instruction: 0x663f0291
     ea4:	92050000 	andls	r0, r5, #0
     ea8:	00626402 	rsbeq	r6, r2, r2, lsl #8
     eac:	029f0600 	addseq	r0, pc, #0, 12
     eb0:	000094d0 	ldrdeq	r9, [r0], -r0
     eb4:	bf02d406 	svclt	0x0002d406
     eb8:	0600000f 	streq	r0, [r0], -pc
     ebc:	40480386 	submi	r0, r8, r6, lsl #7
     ec0:	8b050000 	blhi	140ec8 <_Min_Stack_Size+0x140ac8>
     ec4:	003faa03 	eorseq	sl, pc, r3, lsl #20
     ec8:	03910600 	orrseq	r0, r1, #0, 12
     ecc:	00004041 	andeq	r4, r0, r1, asr #32
     ed0:	00000400 	andeq	r0, r0, r0, lsl #8
     ed4:	4f6b2705 	svcmi	0x006b2705
     ed8:	28050000 	stmdacs	r5, {}	; <UNPREDICTABLE>
     edc:	00006ed1 	ldrdeq	r6, [r0], -r1
     ee0:	4f662a05 	svcmi	0x00662a05
     ee4:	83050000 	movwhi	r0, #20480	; 0x5000
     ee8:	006b5c01 	rsbeq	r5, fp, r1, lsl #24
     eec:	01840500 	orreq	r0, r4, r0, lsl #10
     ef0:	00004e21 	andeq	r4, r0, r1, lsr #28
     ef4:	25018505 	strcs	r8, [r1, #-1285]	; 0xfffffafb
     ef8:	05000064 	streq	r0, [r0, #-100]	; 0xffffff9c
     efc:	75650186 	strbvc	r0, [r5, #-390]!	; 0xfffffe7a
     f00:	87050000 	strhi	r0, [r5, -r0]
     f04:	0010ec01 	andseq	lr, r0, r1, lsl #24
     f08:	01880500 	orreq	r0, r8, r0, lsl #10
     f0c:	000010e8 	andeq	r1, r0, r8, ror #1
     f10:	f3018905 	vmls.i8	d8, d1, d5
     f14:	0500004c 	streq	r0, [r0, #-76]	; 0xffffffb4
     f18:	6b58018a 	blvs	1601548 <_Min_Stack_Size+0x1601148>
     f1c:	8b050000 	blhi	140f24 <_Min_Stack_Size+0x140b24>
     f20:	0067d401 	rsbeq	sp, r7, r1, lsl #8
     f24:	019b0600 	orrseq	r0, fp, r0, lsl #12
     f28:	00008c42 	andeq	r8, r0, r2, asr #24
     f2c:	2501e706 	strcs	lr, [r1, #-1798]	; 0xfffff8fa
     f30:	06000052 			; <UNDEFINED> instruction: 0x06000052
     f34:	0fbf02d4 	svceq	0x00bf02d4
     f38:	86060000 	strhi	r0, [r6], -r0
     f3c:	00404803 	subeq	r4, r0, r3, lsl #16
     f40:	038b0500 	orreq	r0, fp, #0, 10
     f44:	00003faa 	andeq	r3, r0, sl, lsr #31
     f48:	41039106 	tstmi	r3, r6, lsl #2
     f4c:	05000040 	streq	r0, [r0, #-64]	; 0xffffffc0
     f50:	4a640396 	bmi	1901db0 <_Min_Stack_Size+0x19019b0>
     f54:	9b050000 	blls	140f5c <_Min_Stack_Size+0x140b5c>
     f58:	00814903 	addeq	r4, r1, r3, lsl #18
     f5c:	00040000 	andeq	r0, r4, r0
     f60:	22140500 	andscs	r0, r4, #0, 10
     f64:	05000092 	streq	r0, [r0, #-146]	; 0xffffff6e
     f68:	002f1d16 	eoreq	r1, pc, r6, lsl sp	; <UNPREDICTABLE>
     f6c:	c8170500 	ldmdagt	r7, {r8, sl}
     f70:	00000096 	muleq	r0, r6, r0
     f74:	06000004 	streq	r0, [r0], -r4
     f78:	8c42019b 	stfhie	f0, [r2], {155}	; 0x9b
     f7c:	e7060000 	str	r0, [r6, -r0]
     f80:	00522501 	subseq	r2, r2, r1, lsl #10
     f84:	02d40600 	sbcseq	r0, r4, #0, 12
     f88:	00000fbf 			; <UNDEFINED> instruction: 0x00000fbf
     f8c:	cc02d905 			; <UNDEFINED> instruction: 0xcc02d905
     f90:	0600002e 	streq	r0, [r0], -lr, lsr #32
     f94:	29de02e0 	ldmibcs	lr, {r5, r6, r7, r9}^
     f98:	86060000 	strhi	r0, [r6], -r0
     f9c:	00404803 	subeq	r4, r0, r3, lsl #16
     fa0:	038b0500 	orreq	r0, fp, #0, 10
     fa4:	00003faa 	andeq	r3, r0, sl, lsr #31
     fa8:	41039106 	tstmi	r3, r6, lsl #2
     fac:	05000040 	streq	r0, [r0, #-64]	; 0xffffffc0
     fb0:	4a640396 	bmi	1901e10 <_Min_Stack_Size+0x1901a10>
     fb4:	04000000 	streq	r0, [r0], #-0
     fb8:	06050000 	streq	r0, [r5], -r0
     fbc:	00006b12 	andeq	r6, r0, r2, lsl fp
     fc0:	5c6c0f05 	stclpl	15, cr0, [ip], #-20	; 0xffffffec
     fc4:	1a050000 	bne	140fcc <_Min_Stack_Size+0x140bcc>
     fc8:	00007857 	andeq	r7, r0, r7, asr r8
     fcc:	8c9e2105 	ldfhis	f2, [lr], {5}
     fd0:	2f050000 	svccs	0x00050000
     fd4:	00004605 	andeq	r4, r0, r5, lsl #12
     fd8:	31d03d05 	bicscc	r3, r0, r5, lsl #26
     fdc:	53050000 	movwpl	r0, #20480	; 0x5000
     fe0:	00005990 	muleq	r0, r0, r9
     fe4:	705a6d05 	subsvc	r6, sl, r5, lsl #26
     fe8:	8c050000 	stchi	0, cr0, [r5], {-0}
     fec:	0065b601 	rsbeq	fp, r5, r1, lsl #12
     ff0:	01a60500 			; <UNDEFINED> instruction: 0x01a60500
     ff4:	00001c3c 	andeq	r1, r0, ip, lsr ip
     ff8:	e501bc05 	str	fp, [r1, #-3077]	; 0xfffff3fb
     ffc:	0500003f 	streq	r0, [r0, #-63]	; 0xffffffc1
    1000:	5b3401ce 	blpl	d01740 <_Min_Stack_Size+0xd01340>
    1004:	f4060000 	vst4.8	{d0-d3}, [r6], r0
    1008:	00705401 	rsbseq	r5, r0, r1, lsl #8
    100c:	00040000 	andeq	r0, r4, r0
    1010:	7a7f0600 	bvc	1fc2818 <_Min_Stack_Size+0x1fc2418>
    1014:	05000073 	streq	r0, [r0, #-115]	; 0xffffff8d
    1018:	43320192 	teqmi	r2, #-2147483612	; 0x80000024
    101c:	94060000 	strls	r0, [r6], #-0
    1020:	00873501 	addeq	r3, r7, r1, lsl #10
    1024:	01b30500 			; <UNDEFINED> instruction: 0x01b30500
    1028:	00002179 	andeq	r2, r0, r9, ror r1
    102c:	9101bb05 	tstls	r1, r5, lsl #22
    1030:	05000021 	streq	r0, [r0, #-33]	; 0xffffffdf
    1034:	7d2701c0 	stfvcs	f0, [r7, #-768]!	; 0xfffffd00
    1038:	c9050000 	stmdbgt	r5, {}	; <UNPREDICTABLE>
    103c:	00493301 	subeq	r3, r9, r1, lsl #6
    1040:	00040000 	andeq	r0, r4, r0
    1044:	f7110500 			; <UNDEFINED> instruction: 0xf7110500
    1048:	0500008c 	streq	r0, [r0, #-140]	; 0xffffff74
    104c:	00815b15 	addeq	r5, r1, r5, lsl fp
    1050:	00040000 	andeq	r0, r4, r0
    1054:	cc020500 	cfstr32gt	mvfx0, [r2], {-0}
    1058:	050000a1 	streq	r0, [r0, #-161]	; 0xffffff5f
    105c:	00243323 	eoreq	r3, r4, r3, lsr #6
    1060:	90250500 	eorls	r0, r5, r0, lsl #10
    1064:	05000003 	streq	r0, [r0, #-3]
    1068:	007f5627 	rsbseq	r5, pc, r7, lsr #12
    106c:	ac2a0500 	cfstr32ge	mvfx0, [sl], #-0
    1070:	0500001a 	streq	r0, [r0, #-26]	; 0xffffffe6
    1074:	00a0b12c 	adceq	fp, r0, ip, lsr #2
    1078:	362e0500 	strtcc	r0, [lr], -r0, lsl #10
    107c:	05000094 	streq	r0, [r0, #-148]	; 0xffffff6c
    1080:	00487b30 	subeq	r7, r8, r0, lsr fp
    1084:	2a320500 	bcs	c8248c <_Min_Stack_Size+0xc8208c>
    1088:	05000073 	streq	r0, [r0, #-115]	; 0xffffff8d
    108c:	009dfa34 	addseq	pc, sp, r4, lsr sl	; <UNPREDICTABLE>
    1090:	fe360500 	cdp2	5, 3, cr0, cr6, cr0, {0}
    1094:	05000078 	streq	r0, [r0, #-120]	; 0xffffff88
    1098:	0032b938 	eorseq	fp, r2, r8, lsr r9
    109c:	1e3b0500 	cfabs32ne	mvfx0, mvfx11
    10a0:	0500001a 	streq	r0, [r0, #-26]	; 0xffffffe6
    10a4:	0026393d 	eoreq	r3, r6, sp, lsr r9
    10a8:	00040000 	andeq	r0, r4, r0
    10ac:	4d4d0500 	cfstr64mi	mvdx0, [sp, #-0]
    10b0:	0500007b 	streq	r0, [r0, #-123]	; 0xffffff85
    10b4:	00923160 	addseq	r3, r2, r0, ror #2
    10b8:	01910500 	orrseq	r0, r1, r0, lsl #10
    10bc:	00002912 	andeq	r2, r0, r2, lsl r9
    10c0:	31029a05 	tstcc	r2, r5, lsl #20
    10c4:	05000081 	streq	r0, [r0, #-129]	; 0xffffff7f
    10c8:	4c90029b 	lfmmi	f0, 4, [r0], {155}	; 0x9b
    10cc:	9c050000 	stcls	0, cr0, [r5], {-0}
    10d0:	0067bc02 	rsbeq	fp, r7, r2, lsl #24
    10d4:	029d0500 	addseq	r0, sp, #0, 10
    10d8:	00008ab8 			; <UNDEFINED> instruction: 0x00008ab8
    10dc:	de029e05 	cdple	14, 0, cr9, cr2, cr5, {0}
    10e0:	05000080 	streq	r0, [r0, #-128]	; 0xffffff80
    10e4:	6384029f 	orrvs	r0, r4, #-268435447	; 0xf0000009
    10e8:	a0050000 	andge	r0, r5, r0
    10ec:	009daa02 	addseq	sl, sp, r2, lsl #20
    10f0:	02ac0500 	adceq	r0, ip, #0, 10
    10f4:	0000144a 	andeq	r1, r0, sl, asr #8
    10f8:	4a02ad05 	bmi	ac514 <_Min_Stack_Size+0xac114>
    10fc:	050000a2 	streq	r0, [r0, #-162]	; 0xffffff5e
    1100:	052302ae 	streq	r0, [r3, #-686]!	; 0xfffffd52
    1104:	b9050000 	stmdblt	r5, {}	; <UNPREDICTABLE>
    1108:	002bbd02 	eoreq	fp, fp, r2, lsl #26
    110c:	02ba0500 	adcseq	r0, sl, #0, 10
    1110:	0000309b 	muleq	r0, fp, r0
    1114:	cc02bb05 			; <UNDEFINED> instruction: 0xcc02bb05
    1118:	0500008e 	streq	r0, [r0, #-142]	; 0xffffff72
    111c:	84a502bc 	strthi	r0, [r5], #700	; 0x2bc
    1120:	bd050000 	stclt	0, cr0, [r5, #-0]
    1124:	00597802 	subseq	r7, r9, r2, lsl #16
    1128:	03980500 	orrseq	r0, r8, #0, 10
    112c:	00009971 	andeq	r9, r0, r1, ror r9
    1130:	1d03b205 	sfmne	f3, 1, [r3, #-20]	; 0xffffffec
    1134:	0000005e 	andeq	r0, r0, lr, asr r0
    1138:	06000004 	streq	r0, [r0], -r4
    113c:	007f4f0b 	rsbseq	r4, pc, fp, lsl #30
    1140:	c6100500 	ldrgt	r0, [r0], -r0, lsl #10
    1144:	0500004e 	streq	r0, [r0, #-78]	; 0xffffffb2
    1148:	005ace1a 	subseq	ip, sl, sl, lsl lr
    114c:	392d0500 	pushcc	{r8, sl}
    1150:	0000007f 	andeq	r0, r0, pc, ror r0
    1154:	05000004 	streq	r0, [r0, #-4]
    1158:	6c2503bb 	stcvs	3, cr0, [r5], #-748	; 0xfffffd14
    115c:	c5050000 	strgt	r0, [r5, #-0]
    1160:	00171d03 	andseq	r1, r7, r3, lsl #26
    1164:	03ce0500 	biceq	r0, lr, #0, 10
    1168:	00000f1e 	andeq	r0, r0, lr, lsl pc
    116c:	d703d205 	strle	sp, [r3, -r5, lsl #4]
    1170:	0500003b 	streq	r0, [r0, #-59]	; 0xffffffc5
    1174:	090d03d7 	stmdbeq	sp, {r0, r1, r2, r4, r6, r7, r8, r9}
    1178:	e2050000 	and	r0, r5, #0
    117c:	008b0103 	addeq	r0, fp, r3, lsl #2
    1180:	03e50500 	mvneq	r0, #0, 10
    1184:	000057b0 			; <UNDEFINED> instruction: 0x000057b0
    1188:	6c03eb05 			; <UNDEFINED> instruction: 0x6c03eb05
    118c:	0500005b 	streq	r0, [r0, #-91]	; 0xffffffa5
    1190:	572f03ee 	strpl	r0, [pc, -lr, ror #7]!
    1194:	f1050000 			; <UNDEFINED> instruction: 0xf1050000
    1198:	00534403 	subseq	r4, r3, r3, lsl #8
    119c:	04870500 	streq	r0, [r7], #1280	; 0x500
    11a0:	000063b0 			; <UNDEFINED> instruction: 0x000063b0
    11a4:	56048a05 	strpl	r8, [r4], -r5, lsl #20
    11a8:	05000005 	streq	r0, [r0, #-5]
    11ac:	2d96048d 	cfldrscs	mvf0, [r6, #564]	; 0x234
    11b0:	8e050000 	cdphi	0, 0, cr0, cr5, cr0, {0}
    11b4:	0079f504 	rsbseq	pc, r9, r4, lsl #10
    11b8:	048f0500 	streq	r0, [pc], #1280	; 11c0 <_Min_Stack_Size+0xdc0>
    11bc:	00002269 	andeq	r2, r0, r9, ror #4
    11c0:	b4049005 	strlt	r9, [r4], #-5
    11c4:	05000058 	streq	r0, [r0, #-88]	; 0xffffffa8
    11c8:	030d0491 	movweq	r0, #54417	; 0xd491
    11cc:	92050000 	andls	r0, r5, #0
    11d0:	00976a04 	addseq	r6, r7, r4, lsl #20
    11d4:	04930500 	ldreq	r0, [r3], #1280	; 0x500
    11d8:	0000211c 	andeq	r2, r0, ip, lsl r1
    11dc:	2a049405 	bcs	1261f8 <_Min_Stack_Size+0x125df8>
    11e0:	0500003d 	streq	r0, [r0, #-61]	; 0xffffffc3
    11e4:	7cd30495 	cfldrdvc	mvd0, [r3], {149}	; 0x95
    11e8:	96050000 	strls	r0, [r5], -r0
    11ec:	004dc604 	subeq	ip, sp, r4, lsl #12
    11f0:	04970500 	ldreq	r0, [r7], #1280	; 0x500
    11f4:	00004760 	andeq	r4, r0, r0, ror #14
    11f8:	cc049805 	stcgt	8, cr9, [r4], {5}
    11fc:	05000040 	streq	r0, [r0, #-64]	; 0xffffffc0
    1200:	967c0499 			; <UNDEFINED> instruction: 0x967c0499
    1204:	9a050000 	bls	14120c <_Min_Stack_Size+0x140e0c>
    1208:	00362c04 	eorseq	r2, r6, r4, lsl #24
    120c:	049b0500 	ldreq	r0, [fp], #1280	; 0x500
    1210:	00006a2d 	andeq	r6, r0, sp, lsr #20
    1214:	6e049c05 	cdpvs	12, 0, cr9, cr4, cr5, {0}
    1218:	0500005f 	streq	r0, [r0, #-95]	; 0xffffffa1
    121c:	15f6049d 	ldrbne	r0, [r6, #1181]!	; 0x49d
    1220:	9e050000 	cdpls	0, 0, cr0, cr5, cr0, {0}
    1224:	00073e04 	andeq	r3, r7, r4, lsl #28
    1228:	049f0500 	ldreq	r0, [pc], #1280	; 1230 <_Min_Stack_Size+0xe30>
    122c:	0000503f 	andeq	r5, r0, pc, lsr r0
    1230:	e604a005 	str	sl, [r4], -r5
    1234:	0500000b 	streq	r0, [r0, #-11]
    1238:	84bf04a1 	ldrthi	r0, [pc], #1185	; 1240 <_Min_Stack_Size+0xe40>
    123c:	a2050000 	andge	r0, r5, #0
    1240:	0073e404 	rsbseq	lr, r3, r4, lsl #8
    1244:	04a30500 	strteq	r0, [r3], #1280	; 0x500
    1248:	000030b3 	strheq	r3, [r0], -r3	; <UNPREDICTABLE>
    124c:	6f05d305 	svcvs	0x0005d305
    1250:	05000083 	streq	r0, [r0, #-131]	; 0xffffff7d
    1254:	928905d4 	addls	r0, r9, #212, 10	; 0x35000000
    1258:	d5050000 	strle	r0, [r5, #-0]
    125c:	00778c05 	rsbseq	r8, r7, r5, lsl #24
    1260:	05d60500 	ldrbeq	r0, [r6, #1280]	; 0x500
    1264:	000068a5 	andeq	r6, r0, r5, lsr #17
    1268:	7d05d705 	stcvc	7, cr13, [r5, #-20]	; 0xffffffec
    126c:	0500006f 	streq	r0, [r0, #-111]	; 0xffffff91
    1270:	33bc05d8 			; <UNDEFINED> instruction: 0x33bc05d8
    1274:	d9050000 	stmdble	r5, {}	; <UNPREDICTABLE>
    1278:	00586305 	subseq	r6, r8, r5, lsl #6
    127c:	05da0500 	ldrbeq	r0, [sl, #1280]	; 0x500
    1280:	00003fbb 			; <UNDEFINED> instruction: 0x00003fbb
    1284:	eb05db05 	bl	177ea0 <_Min_Stack_Size+0x177aa0>
    1288:	05000033 	streq	r0, [r0, #-51]	; 0xffffffcd
    128c:	95a705dc 	strls	r0, [r7, #1500]!	; 0x5dc
    1290:	dd050000 	stcle	0, cr0, [r5, #-0]
    1294:	0052c705 	subseq	ip, r2, r5, lsl #14
    1298:	05df0500 	ldrbeq	r0, [pc, #1280]	; 17a0 <_Min_Stack_Size+0x13a0>
    129c:	00006dd5 	ldrdeq	r6, [r0], -r5
    12a0:	6905ea05 	stmdbvs	r5, {r0, r2, r9, fp, sp, lr, pc}
    12a4:	0500008a 	streq	r0, [r0, #-138]	; 0xffffff76
    12a8:	607f05f0 	ldrshtvs	r0, [pc], #-80
    12ac:	fd050000 	stc2	0, cr0, [r5, #-0]
    12b0:	0031e505 	eorseq	lr, r1, r5, lsl #10
    12b4:	06800500 	streq	r0, [r0], r0, lsl #10
    12b8:	00004855 	andeq	r4, r0, r5, asr r8
    12bc:	e2068205 	and	r8, r6, #1342177280	; 0x50000000
    12c0:	0500005f 	streq	r0, [r0, #-95]	; 0xffffffa1
    12c4:	053906e1 	ldreq	r0, [r9, #-1761]!	; 0xfffff91f
    12c8:	04000000 	streq	r0, [r0], #-0
    12cc:	31050000 	mrscc	r0, (UNDEF: 5)
    12d0:	00003def 	andeq	r3, r0, pc, ror #27
    12d4:	73d73205 	bicsvc	r3, r7, #1342177280	; 0x50000000
    12d8:	33050000 	movwcc	r0, #20480	; 0x5000
    12dc:	00005b63 	andeq	r5, r0, r3, ror #22
    12e0:	233d3605 	teqcs	sp, #5242880	; 0x500000
    12e4:	39050000 	stmdbcc	r5, {}	; <UNPREDICTABLE>
    12e8:	00005e00 	andeq	r5, r0, r0, lsl #28
    12ec:	98713a05 	ldmdals	r1!, {r0, r2, r9, fp, ip, sp}^
    12f0:	3c050000 	stccc	0, cr0, [r5], {-0}
    12f4:	000047ba 			; <UNDEFINED> instruction: 0x000047ba
    12f8:	36b63d05 	ldrtcc	r3, [r6], r5, lsl #26
    12fc:	3e050000 	cdpcc	0, 0, cr0, cr5, cr0, {0}
    1300:	00002727 	andeq	r2, r0, r7, lsr #14
    1304:	8cff3f05 	ldclhi	15, cr3, [pc], #20	; 1320 <_Min_Stack_Size+0xf20>
    1308:	42050000 	andmi	r0, r5, #0
    130c:	000011dc 	ldrdeq	r1, [r0], -ip
    1310:	0c964305 	ldceq	3, cr4, [r6], {5}
    1314:	44050000 	strmi	r0, [r5], #-0
    1318:	0000821a 	andeq	r8, r0, sl, lsl r2
    131c:	152c4e05 	strne	r4, [ip, #-3589]!	; 0xfffff1fb
    1320:	51050000 	mrspl	r0, (UNDEF: 5)
    1324:	00006b45 	andeq	r6, r0, r5, asr #22
    1328:	71385e05 	teqvc	r8, r5, lsl #28
    132c:	5f050000 	svcpl	0x00050000
    1330:	000085ae 	andeq	r8, r0, lr, lsr #11
    1334:	91356b05 	teqls	r5, r5, lsl #22
    1338:	6c050000 	stcvs	0, cr0, [r5], {-0}
    133c:	00004d85 	andeq	r4, r0, r5, lsl #27
    1340:	06197005 	ldreq	r7, [r9], -r5
    1344:	71050000 	mrsvc	r0, (UNDEF: 5)
    1348:	0000000f 	andeq	r0, r0, pc
    134c:	853e7305 	ldrhi	r7, [lr, #-773]!	; 0xfffffcfb
    1350:	75050000 	strvc	r0, [r5, #-0]
    1354:	000016fd 	strdeq	r1, [r0], -sp
    1358:	37b67805 	ldrcc	r7, [r6, r5, lsl #16]!
    135c:	79050000 	stmdbvc	r5, {}	; <UNPREDICTABLE>
    1360:	00008e24 	andeq	r8, r0, r4, lsr #28
    1364:	7dfb7a05 			; <UNDEFINED> instruction: 0x7dfb7a05
    1368:	7d050000 	stcvc	0, cr0, [r5, #-0]
    136c:	00007168 	andeq	r7, r0, r8, ror #2
    1370:	96018205 	strls	r8, [r1], -r5, lsl #4
    1374:	0500009a 	streq	r0, [r0, #-154]	; 0xffffff66
    1378:	6b680184 	blvs	1a01990 <_Min_Stack_Size+0x1a01590>
    137c:	85050000 	strhi	r0, [r5, #-0]
    1380:	0027f401 	eoreq	pc, r7, r1, lsl #8
    1384:	01870500 	orreq	r0, r7, r0, lsl #10
    1388:	00005ee4 	andeq	r5, r0, r4, ror #29
    138c:	3d018a05 	vstrcc	s16, [r1, #-20]	; 0xffffffec
    1390:	05000070 	streq	r0, [r0, #-112]	; 0xffffff90
    1394:	3350018b 	cmpcc	r0, #-1073741790	; 0xc0000022
    1398:	8c050000 	stchi	0, cr0, [r5], {-0}
    139c:	00885a01 	addeq	r5, r8, r1, lsl #20
    13a0:	018e0500 	orreq	r0, lr, r0, lsl #10
    13a4:	00004d3e 	andeq	r4, r0, lr, lsr sp
    13a8:	0c018f05 	stceq	15, cr8, [r1], {5}
    13ac:	05000094 	streq	r0, [r0, #-148]	; 0xffffff6c
    13b0:	94f10191 	ldrbtls	r0, [r1], #401	; 0x191
    13b4:	93050000 	movwls	r0, #20480	; 0x5000
    13b8:	001fb401 	andseq	fp, pc, r1, lsl #8
    13bc:	01a40500 			; <UNDEFINED> instruction: 0x01a40500
    13c0:	00002065 	andeq	r2, r0, r5, rrx
    13c4:	b601a505 	strlt	sl, [r1], -r5, lsl #10
    13c8:	05000012 	streq	r0, [r0, #-18]	; 0xffffffee
    13cc:	05de01a6 	ldrbeq	r0, [lr, #422]	; 0x1a6
    13d0:	a7050000 	strge	r0, [r5, -r0]
    13d4:	006da901 	rsbeq	sl, sp, r1, lsl #18
    13d8:	01a80500 			; <UNDEFINED> instruction: 0x01a80500
    13dc:	0000369d 	muleq	r0, sp, r6
    13e0:	7201aa05 	andvc	sl, r1, #20480	; 0x5000
    13e4:	05000082 	streq	r0, [r0, #-130]	; 0xffffff7e
    13e8:	770d01ab 	strvc	r0, [sp, -fp, lsr #3]
    13ec:	ac050000 	stcge	0, cr0, [r5], {-0}
    13f0:	0067f901 	rsbeq	pc, r7, r1, lsl #18
    13f4:	01d90500 	bicseq	r0, r9, r0, lsl #10
    13f8:	00000274 	andeq	r0, r0, r4, ror r2
    13fc:	bd01e605 	stclt	6, cr14, [r1, #-20]	; 0xffffffec
    1400:	0500006f 	streq	r0, [r0, #-111]	; 0xffffff91
    1404:	4b5601e7 	blmi	1581ba8 <_Min_Stack_Size+0x15817a8>
    1408:	e8050000 	stmda	r5, {}	; <UNPREDICTABLE>
    140c:	005aa901 	subseq	sl, sl, r1, lsl #18
    1410:	01e90500 	mvneq	r0, r0, lsl #10
    1414:	00003107 	andeq	r3, r0, r7, lsl #2
    1418:	1401ea05 	strne	lr, [r1], #-2565	; 0xfffff5fb
    141c:	050000a1 	streq	r0, [r0, #-161]	; 0xffffff5f
    1420:	0b2e01eb 	bleq	b81bd4 <_Min_Stack_Size+0xb817d4>
    1424:	ec050000 	stc	0, cr0, [r5], {-0}
    1428:	004a3701 	subeq	r3, sl, r1, lsl #14
    142c:	01ef0500 	mvneq	r0, r0, lsl #10
    1430:	00005078 	andeq	r5, r0, r8, ror r0
    1434:	6b01f005 	blvs	7d450 <_Min_Stack_Size+0x7d050>
    1438:	0500002a 	streq	r0, [r0, #-42]	; 0xffffffd6
    143c:	250801f6 	strcs	r0, [r8, #-502]	; 0xfffffe0a
    1440:	cf050000 	svcgt	0x00050000
    1444:	00312802 	eorseq	r2, r1, r2, lsl #16
    1448:	02e10500 	rsceq	r0, r1, #0, 10
    144c:	0000491a 	andeq	r4, r0, sl, lsl r9
    1450:	3902e705 	stmdbcc	r2, {r0, r2, r8, r9, sl, sp, lr, pc}
    1454:	05000069 	streq	r0, [r0, #-105]	; 0xffffff97
    1458:	3b5602e8 	blcc	1582000 <_Min_Stack_Size+0x1581c00>
    145c:	ef050000 	svc	0x00050000
    1460:	009c2002 	addseq	r2, ip, r2
    1464:	02f50500 	rscseq	r0, r5, #0, 10
    1468:	00002cba 			; <UNDEFINED> instruction: 0x00002cba
    146c:	7e02fb05 	vmlavc.f64	d15, d2, d5
    1470:	0500009d 	streq	r0, [r0, #-157]	; 0xffffff63
    1474:	469d02fc 			; <UNDEFINED> instruction: 0x469d02fc
    1478:	83050000 	movwhi	r0, #20480	; 0x5000
    147c:	00890203 	addeq	r0, r9, r3, lsl #4
    1480:	03840500 	orreq	r0, r4, #0, 10
    1484:	00000fe7 	andeq	r0, r0, r7, ror #31
    1488:	e5038b05 	str	r8, [r3, #-2821]	; 0xfffff4fb
    148c:	05000034 	streq	r0, [r0, #-52]	; 0xffffffcc
    1490:	90740391 			; <UNDEFINED> instruction: 0x90740391
    1494:	a5050000 	strge	r0, [r5, #-0]
    1498:	003f3003 	eorseq	r3, pc, r3
    149c:	03c60500 	biceq	r0, r6, #0, 10
    14a0:	000025d1 	ldrdeq	r2, [r0], -r1
    14a4:	f203c705 	vabd.s8	d12, d3, d5
    14a8:	05000061 	streq	r0, [r0, #-97]	; 0xffffff9f
    14ac:	64c303ce 	strbvs	r0, [r3], #974	; 0x3ce
    14b0:	cf050000 	svcgt	0x00050000
    14b4:	00325403 	eorseq	r5, r2, r3, lsl #8
    14b8:	03d20500 	bicseq	r0, r2, #0, 10
    14bc:	00002e2e 	andeq	r2, r0, lr, lsr #28
    14c0:	4603dc05 	strmi	sp, [r3], -r5, lsl #24
    14c4:	05000046 	streq	r0, [r0, #-70]	; 0xffffffba
    14c8:	8bac03dd 	blhi	feb02444 <_estack+0xdeafd444>
    14cc:	e7050000 	str	r0, [r5, -r0]
    14d0:	007b5d03 	rsbseq	r5, fp, r3, lsl #26
    14d4:	03fd0500 	mvnseq	r0, #0, 10
    14d8:	00008893 	muleq	r0, r3, r8
    14dc:	9e03ff05 	cdpls	15, 0, cr15, cr3, cr5, {0}
    14e0:	05000091 	streq	r0, [r0, #-145]	; 0xffffff6f
    14e4:	89e80481 	stmibhi	r8!, {r0, r7, sl}^
    14e8:	82050000 	andhi	r0, r5, #0
    14ec:	00207804 	eoreq	r7, r0, r4, lsl #16
    14f0:	04840500 	streq	r0, [r4], #1280	; 0x500
    14f4:	00009fd9 	ldrdeq	r9, [r0], -r9	; <UNPREDICTABLE>
    14f8:	44048e05 	strmi	r8, [r4], #-3589	; 0xfffff1fb
    14fc:	0500006f 	streq	r0, [r0, #-111]	; 0xffffff91
    1500:	8fad0492 	svchi	0x00ad0492
    1504:	96050000 	strls	r0, [r5], -r0
    1508:	00147804 	andseq	r7, r4, r4, lsl #16
    150c:	04990500 	ldreq	r0, [r9], #1280	; 0x500
    1510:	000050db 	ldrdeq	r5, [r0], -fp
    1514:	0e049d05 	cdpeq	13, 0, cr9, cr4, cr5, {0}
    1518:	05000088 	streq	r0, [r0, #-136]	; 0xffffff78
    151c:	29ec049f 	stmibcs	ip!, {r0, r1, r2, r3, r4, r7, sl}^
    1520:	c2050000 	andgt	r0, r5, #0
    1524:	006aa404 	rsbeq	sl, sl, r4, lsl #8
    1528:	04c60500 	strbeq	r0, [r6], #1280	; 0x500
    152c:	00008444 	andeq	r8, r0, r4, asr #8
    1530:	a804ca05 	stmdage	r4, {r0, r2, r9, fp, lr, pc}
    1534:	05000010 	streq	r0, [r0, #-16]
    1538:	328a04ce 	addcc	r0, sl, #-838860800	; 0xce000000
    153c:	d2050000 	andle	r0, r5, #0
    1540:	006e5004 	rsbeq	r5, lr, r4
    1544:	04d60500 	ldrbeq	r0, [r6], #1280	; 0x500
    1548:	00002c57 	andeq	r2, r0, r7, asr ip
    154c:	ac04da05 			; <UNDEFINED> instruction: 0xac04da05
    1550:	0500008d 	streq	r0, [r0, #-141]	; 0xffffff73
    1554:	a04d04de 	ldrdge	r0, [sp], #-78	; 0xffffffb2
    1558:	e5050000 	str	r0, [r5, #-0]
    155c:	0017c804 	andseq	ip, r7, r4, lsl #16
    1560:	04e60500 	strbteq	r0, [r6], #1280	; 0x500
    1564:	00001c69 	andeq	r1, r0, r9, ror #24
    1568:	6304e705 	movwvs	lr, #18181	; 0x4705
    156c:	05000036 	streq	r0, [r0, #-54]	; 0xffffffca
    1570:	4b9b04e8 	blmi	fe6c2918 <_estack+0xde6bd918>
    1574:	e9050000 	stmdb	r5, {}	; <UNPREDICTABLE>
    1578:	0059d904 	subseq	sp, r9, r4, lsl #18
    157c:	04fe0500 	ldrbteq	r0, [lr], #1280	; 0x500
    1580:	00006d7a 	andeq	r6, r0, sl, ror sp
    1584:	0704ff05 	streq	pc, [r4, -r5, lsl #30]
    1588:	0500009b 	streq	r0, [r0, #-155]	; 0xffffff65
    158c:	89630591 	stmdbhi	r3!, {r0, r4, r7, r8, sl}^
    1590:	97050000 	strls	r0, [r5, -r0]
    1594:	00856105 	addeq	r6, r5, r5, lsl #2
    1598:	059a0500 	ldreq	r0, [sl, #1280]	; 0x500
    159c:	000019bf 			; <UNDEFINED> instruction: 0x000019bf
    15a0:	ac059c05 	stcge	12, cr9, [r5], {5}
    15a4:	05000042 	streq	r0, [r0, #-66]	; 0xffffffbe
    15a8:	799805a0 	ldmibvc	r8, {r5, r7, r8, sl}
    15ac:	a2050000 	andge	r0, r5, #0
    15b0:	0041d405 	subeq	sp, r1, r5, lsl #8
    15b4:	05a60500 	streq	r0, [r6, #1280]!	; 0x500
    15b8:	0000664d 	andeq	r6, r0, sp, asr #12
    15bc:	7005a905 	andvc	sl, r5, r5, lsl #18
    15c0:	05000031 	streq	r0, [r0, #-49]	; 0xffffffcf
    15c4:	a18505ab 	orrge	r0, r5, fp, lsr #11
    15c8:	af050000 	svcge	0x00050000
    15cc:	0002bc05 	andeq	fp, r2, r5, lsl #24
    15d0:	05b10500 	ldreq	r0, [r1, #1280]!	; 0x500
    15d4:	00003518 	andeq	r3, r0, r8, lsl r5
    15d8:	f105b305 			; <UNDEFINED> instruction: 0xf105b305
    15dc:	05000064 	streq	r0, [r0, #-100]	; 0xffffff9c
    15e0:	7c0405b7 	cfstr32vc	mvfx0, [r4], {183}	; 0xb7
    15e4:	c8050000 	stmdagt	r5, {}	; <UNPREDICTABLE>
    15e8:	003cd205 	eorseq	sp, ip, r5, lsl #4
    15ec:	05c90500 	strbeq	r0, [r9, #1280]	; 0x500
    15f0:	00003cbe 			; <UNDEFINED> instruction: 0x00003cbe
    15f4:	7205ca05 	andvc	ip, r5, #20480	; 0x5000
    15f8:	050000a3 	streq	r0, [r0, #-163]	; 0xffffff5d
    15fc:	87a705ce 	strhi	r0, [r7, lr, asr #11]!
    1600:	cf050000 	svcgt	0x00050000
    1604:	00877205 	addeq	r7, r7, r5, lsl #4
    1608:	05d40500 	ldrbeq	r0, [r4, #1280]	; 0x500
    160c:	00000069 	andeq	r0, r0, r9, rrx
    1610:	8a05d805 	bhi	17762c <_Min_Stack_Size+0x17722c>
    1614:	0500004f 	streq	r0, [r0, #-79]	; 0xffffffb1
    1618:	0d2605dc 	cfstr32eq	mvfx0, [r6, #-880]!	; 0xfffffc90
    161c:	e0050000 	and	r0, r5, r0
    1620:	00238c05 	eoreq	r8, r3, r5, lsl #24
    1624:	05e10500 	strbeq	r0, [r1, #1280]!	; 0x500
    1628:	00001022 	andeq	r1, r0, r2, lsr #32
    162c:	a605e205 	strge	lr, [r5], -r5, lsl #4
    1630:	00000074 	andeq	r0, r0, r4, ror r0
    1634:	05000004 	streq	r0, [r0, #-4]
    1638:	0092b408 	addseq	fp, r2, r8, lsl #8
    163c:	3f0d0600 	svccc	0x000d0600
    1640:	05000065 	streq	r0, [r0, #-101]	; 0xffffff9b
    1644:	007d0310 	rsbseq	r0, sp, r0, lsl r3
    1648:	00040000 	andeq	r0, r4, r0
    164c:	26380500 	ldrtcs	r0, [r8], -r0, lsl #10
    1650:	05000070 	streq	r0, [r0, #-112]	; 0xffffff90
    1654:	009dbf3c 	addseq	fp, sp, ip, lsr pc
    1658:	113d0500 	teqne	sp, r0, lsl #10
    165c:	05000023 	streq	r0, [r0, #-35]	; 0xffffffdd
    1660:	0047103f 	subeq	r1, r7, pc, lsr r0
    1664:	2e430500 	cdpcs	5, 4, cr0, cr3, cr0, {0}
    1668:	05000059 	streq	r0, [r0, #-89]	; 0xffffffa7
    166c:	930f01a8 	movwls	r0, #61864	; 0xf1a8
    1670:	04000000 	streq	r0, [r0], #-0
    1674:	0a050000 	beq	14167c <_Min_Stack_Size+0x14127c>
    1678:	0000222f 	andeq	r2, r0, pc, lsr #4
    167c:	5c501005 	mrrcpl	0, 0, r1, r0, cr5
    1680:	2b060000 	blcs	181688 <_Min_Stack_Size+0x181288>
    1684:	00007716 	andeq	r7, r0, r6, lsl r7
    1688:	87352c06 	ldrhi	r2, [r5, -r6, lsl #24]!
    168c:	2d060000 	stccs	0, cr0, [r6, #-0]
    1690:	00000821 	andeq	r0, r0, r1, lsr #16
    1694:	6dcf2e06 	stclvs	14, cr2, [pc, #24]	; 16b4 <_Min_Stack_Size+0x12b4>
    1698:	2f020000 	svccs	0x00020000
    169c:	00746e69 	rsbseq	r6, r4, r9, ror #28
    16a0:	a1dc3006 	bicsge	r3, ip, r6
    16a4:	31060000 	mrscc	r0, (UNDEF: 6)
    16a8:	0000062f 	andeq	r0, r0, pc, lsr #12
    16ac:	69a83206 	stmibvs	r8!, {r1, r2, r9, ip, sp}
    16b0:	33050000 	movwcc	r0, #20480	; 0x5000
    16b4:	00004bf3 	strdeq	r4, [r0], -r3
    16b8:	4bf13405 	blmi	ffc4e6d4 <_estack+0xdfc496d4>
    16bc:	35050000 	strcc	r0, [r5, #-0]
    16c0:	00006537 	andeq	r6, r0, r7, lsr r5
    16c4:	93e13605 	mvnls	r3, #5242880	; 0x500000
    16c8:	37050000 	strcc	r0, [r5, -r0]
    16cc:	000000cf 	andeq	r0, r0, pc, asr #1
    16d0:	7bf73805 	blvc	ffdcf6ec <_estack+0xdfdca6ec>
    16d4:	39050000 	stmdbcc	r5, {}	; <UNPREDICTABLE>
    16d8:	00004cb7 			; <UNDEFINED> instruction: 0x00004cb7
    16dc:	9d6e3a05 	vstmdbls	lr!, {s7-s11}
    16e0:	43050000 	movwmi	r0, #20480	; 0x5000
    16e4:	00004365 	andeq	r4, r0, r5, ror #6
    16e8:	97ee4a05 	strbls	r4, [lr, r5, lsl #20]!
    16ec:	52050000 	andpl	r0, r5, #0
    16f0:	00000ca3 	andeq	r0, r0, r3, lsr #25
    16f4:	43265d05 			; <UNDEFINED> instruction: 0x43265d05
    16f8:	68050000 	stmdavs	r5, {}	; <UNPREDICTABLE>
    16fc:	000092c6 	andeq	r9, r0, r6, asr #5
    1700:	9c137105 	ldflss	f7, [r3], {5}
    1704:	78050000 	stmdavc	r5, {}	; <UNPREDICTABLE>
    1708:	00008586 	andeq	r8, r0, r6, lsl #11
    170c:	49018105 	stmdbmi	r1, {r0, r2, r8, pc}
    1710:	05000022 	streq	r0, [r0, #-34]	; 0xffffffde
    1714:	8ee40188 	cdphi	1, 14, cr0, cr4, cr8, {4}
    1718:	93050000 	movwls	r0, #20480	; 0x5000
    171c:	004bd001 	subeq	sp, fp, r1
    1720:	01970500 	orrseq	r0, r7, r0, lsl #10
    1724:	00008755 	andeq	r8, r0, r5, asr r7
    1728:	8501a205 	strhi	sl, [r1, #-517]	; 0xfffffdfb
    172c:	05000088 	streq	r0, [r0, #-136]	; 0xffffff78
    1730:	162f01ad 	strtne	r0, [pc], -sp, lsr #3
    1734:	b6050000 	strlt	r0, [r5], -r0
    1738:	006bf801 	rsbeq	pc, fp, r1, lsl #16
    173c:	01b80600 			; <UNDEFINED> instruction: 0x01b80600
    1740:	00007716 	andeq	r7, r0, r6, lsl r7
    1744:	3501b906 	strcc	fp, [r1, #-2310]	; 0xfffff6fa
    1748:	06000087 	streq	r0, [r0], -r7, lsl #1
    174c:	082101ba 	stmdaeq	r1!, {r1, r3, r4, r5, r7, r8}
    1750:	bb060000 	bllt	181758 <_Min_Stack_Size+0x181358>
    1754:	006dcf01 	rsbeq	ip, sp, r1, lsl #30
    1758:	01bc0200 			; <UNDEFINED> instruction: 0x01bc0200
    175c:	00746e69 	rsbseq	r6, r4, r9, ror #28
    1760:	a801bd06 	stmdage	r1, {r1, r2, r8, sl, fp, ip, sp, pc}
    1764:	06000069 	streq	r0, [r0], -r9, rrx
    1768:	a1dc01c2 	bicsge	r0, ip, r2, asr #3
    176c:	c3060000 	movwgt	r0, #24576	; 0x6000
    1770:	00062f01 	andeq	r2, r6, r1, lsl #30
    1774:	00040000 	andeq	r0, r4, r0
    1778:	a70a0500 	strge	r0, [sl, -r0, lsl #10]
    177c:	05000049 	streq	r0, [r0, #-73]	; 0xffffffb7
    1780:	00949a15 	addseq	r9, r4, r5, lsl sl
    1784:	af190500 	svcge	0x00190500
    1788:	05000078 	streq	r0, [r0, #-120]	; 0xffffff88
    178c:	0046061b 	subeq	r0, r6, fp, lsl r6
    1790:	c2210500 	eorgt	r0, r1, #0, 10
    1794:	0500003d 	streq	r0, [r0, #-61]	; 0xffffffc3
    1798:	0013c425 	andseq	ip, r3, r5, lsr #8
    179c:	d1270500 			; <UNDEFINED> instruction: 0xd1270500
    17a0:	05000031 	streq	r0, [r0, #-49]	; 0xffffffcf
    17a4:	0094ac2d 	addseq	sl, r4, sp, lsr #24
    17a8:	4b310500 	blmi	c42bb0 <_Min_Stack_Size+0xc427b0>
    17ac:	05000004 	streq	r0, [r0, #-4]
    17b0:	00599133 	subseq	r9, r9, r3, lsr r1
    17b4:	42390500 	eorsmi	r0, r9, #0, 10
    17b8:	0500007c 	streq	r0, [r0, #-124]	; 0xffffff84
    17bc:	0060183d 	rsbeq	r1, r0, sp, lsr r8
    17c0:	5b3f0500 	blpl	fc2bc8 <_Min_Stack_Size+0xfc27c8>
    17c4:	05000070 	streq	r0, [r0, #-112]	; 0xffffff90
    17c8:	009a6d44 	addseq	r6, sl, r4, asr #26
    17cc:	fe490500 	cdp2	5, 4, cr0, cr9, cr0, {0}
    17d0:	05000075 	streq	r0, [r0, #-117]	; 0xffffff8b
    17d4:	0018af4e 	andseq	sl, r8, lr, asr #30
    17d8:	39530500 	ldmdbcc	r3, {r8, sl}^
    17dc:	00000079 	andeq	r0, r0, r9, ror r0
    17e0:	05000004 	streq	r0, [r0, #-4]
    17e4:	0065b717 	rsbeq	fp, r5, r7, lsl r7
    17e8:	3d1d0500 	cfldr32cc	mvfx0, [sp, #-0]
    17ec:	0500001c 	streq	r0, [r0, #-28]	; 0xffffffe4
    17f0:	003fe623 	eorseq	lr, pc, r3, lsr #12
    17f4:	35290500 	strcc	r0, [r9, #-1280]!	; 0xfffffb00
    17f8:	0500005b 	streq	r0, [r0, #-91]	; 0xffffffa5
    17fc:	0022c635 	eoreq	ip, r2, r5, lsr r6
    1800:	ec3f0500 	cfldr32	mvfx0, [pc], #-0	; 1808 <_Min_Stack_Size+0x1408>
    1804:	05000062 	streq	r0, [r0, #-98]	; 0xffffff9e
    1808:	0011e749 	andseq	lr, r1, r9, asr #14
    180c:	48530500 	ldmdami	r3, {r8, sl}^
    1810:	0500002b 	streq	r0, [r0, #-43]	; 0xffffffd5
    1814:	a2610180 	rsbge	r0, r1, #128, 2
    1818:	81050000 	mrshi	r0, (UNDEF: 5)
    181c:	00679601 	rsbeq	r9, r7, r1, lsl #12
    1820:	01820500 	orreq	r0, r2, r0, lsl #10
    1824:	00001dcd 	andeq	r1, r0, sp, asr #27
    1828:	8c019805 	stchi	8, cr9, [r1], {5}
    182c:	05000041 	streq	r0, [r0, #-65]	; 0xffffffbf
    1830:	0e250199 	mcreq	1, 1, r0, cr5, cr9, {4}
    1834:	9a050000 	bls	14183c <_Min_Stack_Size+0x14143c>
    1838:	009cef01 	addseq	lr, ip, r1, lsl #30
    183c:	01a20500 			; <UNDEFINED> instruction: 0x01a20500
    1840:	00008cae 	andeq	r8, r0, lr, lsr #25
    1844:	d501a305 	strle	sl, [r1, #-773]	; 0xfffffcfb
    1848:	0500002e 	streq	r0, [r0, #-46]	; 0xffffffd2
    184c:	7ff001a4 	svcvc	0x00f001a4
    1850:	ae050000 	cdpge	0, 0, cr0, cr5, cr0, {0}
    1854:	00033801 	andeq	r3, r3, r1, lsl #16
    1858:	01af0500 			; <UNDEFINED> instruction: 0x01af0500
    185c:	000010f9 	strdeq	r1, [r0], -r9
    1860:	9001b005 	andls	fp, r1, r5
    1864:	05000093 	streq	r0, [r0, #-147]	; 0xffffff6d
    1868:	5a7e01b8 	bpl	1f81f50 <_Min_Stack_Size+0x1f81b50>
    186c:	b9050000 	stmdblt	r5, {}	; <UNPREDICTABLE>
    1870:	000d0001 	andeq	r0, sp, r1
    1874:	01ba0500 			; <UNDEFINED> instruction: 0x01ba0500
    1878:	000035c4 	andeq	r3, r0, r4, asr #11
    187c:	0d01c405 	cfstrseq	mvf12, [r1, #-20]	; 0xffffffec
    1880:	05000015 	streq	r0, [r0, #-21]	; 0xffffffeb
    1884:	339301c5 	orrscc	r0, r3, #1073741873	; 0x40000031
    1888:	c6050000 	strgt	r0, [r5], -r0
    188c:	00387601 	eorseq	r7, r8, r1, lsl #12
    1890:	01d40500 	bicseq	r0, r4, r0, lsl #10
    1894:	000037fd 	strdeq	r3, [r0], -sp
    1898:	6101d505 	tstvs	r1, r5, lsl #10
    189c:	0500002e 	streq	r0, [r0, #-46]	; 0xffffffd2
    18a0:	82bd01d6 	adcshi	r0, sp, #-2147483595	; 0x80000035
    18a4:	e6050000 	str	r0, [r5], -r0
    18a8:	00894401 	addeq	r4, r9, r1, lsl #8
    18ac:	01e70500 	mvneq	r0, r0, lsl #10
    18b0:	000052ed 	andeq	r5, r0, sp, ror #5
    18b4:	2c01e805 	stccs	8, cr14, [r1], {5}
    18b8:	05000060 	streq	r0, [r0, #-96]	; 0xffffffa0
    18bc:	16d201f6 			; <UNDEFINED> instruction: 0x16d201f6
    18c0:	f7050000 			; <UNDEFINED> instruction: 0xf7050000
    18c4:	00142401 	andseq	r2, r4, r1, lsl #8
    18c8:	01f80500 	mvnseq	r0, r0, lsl #10
    18cc:	00005dd8 	ldrdeq	r5, [r0], -r8
    18d0:	cb028605 	blgt	a30ec <_Min_Stack_Size+0xa2cec>
    18d4:	05000061 	streq	r0, [r0, #-97]	; 0xffffff9f
    18d8:	2a3a0287 	bcs	e822fc <_Min_Stack_Size+0xe81efc>
    18dc:	88050000 	stmdahi	r5, {}	; <UNPREDICTABLE>
    18e0:	009d3102 	addseq	r3, sp, r2, lsl #2
    18e4:	02960500 	addseq	r0, r6, #0, 10
    18e8:	00000abf 			; <UNDEFINED> instruction: 0x00000abf
    18ec:	77029705 	strvc	r9, [r2, -r5, lsl #14]
    18f0:	05000062 	streq	r0, [r0, #-98]	; 0xffffff9e
    18f4:	34bf0298 	ldrtcc	r0, [pc], #664	; 18fc <_Min_Stack_Size+0x14fc>
    18f8:	a6050000 	strge	r0, [r5], -r0
    18fc:	0018f302 	andseq	pc, r8, r2, lsl #6
    1900:	02a70500 	adceq	r0, r7, #0, 10
    1904:	0000a1f9 	strdeq	sl, [r0], -r9
    1908:	e802a805 	stmda	r2, {r0, r2, fp, sp, pc}
    190c:	0500002f 	streq	r0, [r0, #-47]	; 0xffffffd1
    1910:	6ae902b6 	bvs	ffa423f0 <_estack+0xdfa3d3f0>
    1914:	b7050000 	strlt	r0, [r5, -r0]
    1918:	004b3202 	subeq	r3, fp, r2, lsl #4
    191c:	02b80500 	adcseq	r0, r8, #0, 10
    1920:	00003a18 	andeq	r3, r0, r8, lsl sl
    1924:	7702c605 	strvc	ip, [r2, -r5, lsl #12]
    1928:	05000033 	streq	r0, [r0, #-51]	; 0xffffffcd
    192c:	244d02c7 	strbcs	r0, [sp], #-711	; 0xfffffd39
    1930:	cf050000 	svcgt	0x00050000
    1934:	004cd502 	subeq	sp, ip, r2, lsl #10
    1938:	02d70500 	sbcseq	r0, r7, #0, 10
    193c:	00007abd 			; <UNDEFINED> instruction: 0x00007abd
    1940:	5002dd05 	andpl	sp, r2, r5, lsl #26
    1944:	0500003d 	streq	r0, [r0, #-61]	; 0xffffffc3
    1948:	2f8e02de 	svccs	0x008e02de
    194c:	e2050000 	and	r0, r5, #0
    1950:	000e6402 	andeq	r6, lr, r2, lsl #8
    1954:	02e60500 	rsceq	r0, r6, #0, 10
    1958:	0000a282 	andeq	sl, r0, r2, lsl #5
    195c:	8502eb05 	strhi	lr, [r2, #-2821]	; 0xfffff4fb
    1960:	05000024 	streq	r0, [r0, #-36]	; 0xffffffdc
    1964:	045f02f6 	ldrbeq	r0, [pc], #-758	; 196c <_Min_Stack_Size+0x156c>
    1968:	80050000 	andhi	r0, r5, r0
    196c:	0056c503 	subseq	ip, r6, r3, lsl #10
    1970:	03850500 	orreq	r0, r5, #0, 10
    1974:	0000003e 	andeq	r0, r0, lr, lsr r0
    1978:	0a038c05 	beq	e4994 <_Min_Stack_Size+0xe4594>
    197c:	05000048 	streq	r0, [r0, #-72]	; 0xffffffb8
    1980:	8c0c038d 	stchi	3, cr0, [ip], {141}	; 0x8d
    1984:	98050000 	stmdals	r5, {}	; <UNPREDICTABLE>
    1988:	00128203 	andseq	r8, r2, r3, lsl #4
    198c:	03990500 	orrseq	r0, r9, #0, 10
    1990:	00003d7c 	andeq	r3, r0, ip, ror sp
    1994:	0203a405 	andeq	sl, r3, #83886080	; 0x5000000
    1998:	05000082 	streq	r0, [r0, #-130]	; 0xffffff7e
    199c:	60eb03a5 	rscvs	r0, fp, r5, lsr #7
    19a0:	b1050000 	mrslt	r0, (UNDEF: 5)
    19a4:	00416503 	subeq	r6, r1, r3, lsl #10
    19a8:	03b20500 			; <UNDEFINED> instruction: 0x03b20500
    19ac:	00008d37 	andeq	r8, r0, r7, lsr sp
    19b0:	0403c105 	streq	ip, [r3], #-261	; 0xfffffefb
    19b4:	0500002e 	streq	r0, [r0, #-46]	; 0xffffffd2
    19b8:	696303c2 	stmdbvs	r3!, {r1, r6, r7, r8, r9}^
    19bc:	04000000 	streq	r0, [r0], #-0
    19c0:	15050000 	strne	r0, [r5, #-0]
    19c4:	00007870 	andeq	r7, r0, r0, ror r8
    19c8:	10c81605 	sbcne	r1, r8, r5, lsl #12
    19cc:	17050000 	strne	r0, [r5, -r0]
    19d0:	000085bb 			; <UNDEFINED> instruction: 0x000085bb
    19d4:	26001805 	strcs	r1, [r0], -r5, lsl #16
    19d8:	19050000 	stmdbne	r5, {}	; <UNPREDICTABLE>
    19dc:	0000200e 	andeq	r2, r0, lr
    19e0:	4d071c05 	stcmi	12, cr1, [r7, #-20]	; 0xffffffec
    19e4:	1d050000 	stcne	0, cr0, [r5, #-0]
    19e8:	000042f3 	strdeq	r4, [r0], -r3
    19ec:	950d1e05 	strls	r1, [sp, #-3589]	; 0xfffff1fb
    19f0:	1f050000 	svcne	0x00050000
    19f4:	00002d12 	andeq	r2, r0, r2, lsl sp
    19f8:	04c42005 	strbeq	r2, [r4], #5
    19fc:	21050000 	mrscs	r0, (UNDEF: 5)
    1a00:	00004f32 	andeq	r4, r0, r2, lsr pc
    1a04:	2b612205 	blcs	184a220 <_Min_Stack_Size+0x1849e20>
    1a08:	29050000 	stmdbcs	r5, {}	; <UNPREDICTABLE>
    1a0c:	00007f0c 	andeq	r7, r0, ip, lsl #30
    1a10:	5ae53205 	bpl	ff94e22c <_estack+0xdf94922c>
    1a14:	33050000 	movwcc	r0, #20480	; 0x5000
    1a18:	00000213 	andeq	r0, r0, r3, lsl r2
    1a1c:	81d93605 	bicshi	r3, r9, r5, lsl #12
    1a20:	37050000 	strcc	r0, [r5, -r0]
    1a24:	00006bd8 	ldrdeq	r6, [r0], -r8
    1a28:	9fc13a05 	svcls	0x00c13a05
    1a2c:	3d050000 	stccc	0, cr0, [r5, #-0]
    1a30:	0000155d 	andeq	r1, r0, sp, asr r5
    1a34:	873e4005 	ldrhi	r4, [lr, -r5]!
    1a38:	47050000 	strmi	r0, [r5, -r0]
    1a3c:	00006db8 			; <UNDEFINED> instruction: 0x00006db8
    1a40:	9e924805 	cdpls	8, 9, cr4, cr2, cr5, {0}
    1a44:	9c050000 	stcls	0, cr0, [r5], {-0}
    1a48:	006e2d01 	rsbeq	r2, lr, r1, lsl #26
    1a4c:	019d0500 	orrseq	r0, sp, r0, lsl #10
    1a50:	0000686a 	andeq	r6, r0, sl, ror #16
    1a54:	81019e05 	tsthi	r1, r5, lsl #28
    1a58:	05000075 	streq	r0, [r0, #-117]	; 0xffffff8b
    1a5c:	4342019f 	movtmi	r0, #8607	; 0x219f
    1a60:	a0050000 	andge	r0, r5, r0
    1a64:	007dbf01 	rsbseq	fp, sp, r1, lsl #30
    1a68:	01a20500 			; <UNDEFINED> instruction: 0x01a20500
    1a6c:	00003440 	andeq	r3, r0, r0, asr #8
    1a70:	1701a405 	strne	sl, [r1, -r5, lsl #8]
    1a74:	0500002b 	streq	r0, [r0, #-43]	; 0xffffffd5
    1a78:	3f0001a6 	svccc	0x000001a6
    1a7c:	a8050000 	stmdage	r5, {}	; <UNPREDICTABLE>
    1a80:	007ec901 	rsbseq	ip, lr, r1, lsl #18
    1a84:	01a90500 			; <UNDEFINED> instruction: 0x01a90500
    1a88:	00007c7e 	andeq	r7, r0, lr, ror ip
    1a8c:	4201af05 	andmi	sl, r1, #5, 30
    1a90:	05000028 	streq	r0, [r0, #-40]	; 0xffffffd8
    1a94:	29b301b0 	ldmibcs	r3!, {r4, r5, r7, r8}
    1a98:	b1050000 	mrslt	r0, (UNDEF: 5)
    1a9c:	00839801 	addeq	r9, r3, r1, lsl #16
    1aa0:	01b20500 			; <UNDEFINED> instruction: 0x01b20500
    1aa4:	00007383 	andeq	r7, r0, r3, lsl #7
    1aa8:	c201b305 	andgt	fp, r1, #335544320	; 0x14000000
    1aac:	05000078 	streq	r0, [r0, #-120]	; 0xffffff88
    1ab0:	9b2701b5 	blls	9c218c <_Min_Stack_Size+0x9c1d8c>
    1ab4:	b7050000 	strlt	r0, [r5, -r0]
    1ab8:	009f7901 	addseq	r7, pc, r1, lsl #18
    1abc:	01b80500 			; <UNDEFINED> instruction: 0x01b80500
    1ac0:	00003d96 	muleq	r0, r6, sp
    1ac4:	5201c005 	andpl	ip, r1, #5
    1ac8:	0500007a 	streq	r0, [r0, #-122]	; 0xffffff86
    1acc:	9dce01c1 	stflse	f0, [lr, #772]	; 0x304
    1ad0:	c2050000 	andgt	r0, r5, #0
    1ad4:	00324801 	eorseq	r4, r2, r1, lsl #16
    1ad8:	01c30500 	biceq	r0, r3, r0, lsl #10
    1adc:	00003a85 	andeq	r3, r0, r5, lsl #21
    1ae0:	3e01c405 	cdpcc	4, 0, cr12, cr1, cr5, {0}
    1ae4:	05000072 	streq	r0, [r0, #-114]	; 0xffffff8e
    1ae8:	60ad01c5 	adcvs	r0, sp, r5, asr #3
    1aec:	c6050000 	strgt	r0, [r5], -r0
    1af0:	00232001 	eoreq	r2, r3, r1
    1af4:	01c70500 	biceq	r0, r7, r0, lsl #10
    1af8:	00008b9f 	muleq	r0, pc, fp	; <UNPREDICTABLE>
    1afc:	6201c805 	andvs	ip, r1, #327680	; 0x50000
    1b00:	05000083 	streq	r0, [r0, #-131]	; 0xffffff7d
    1b04:	042801c9 	strteq	r0, [r8], #-457	; 0xfffffe37
    1b08:	ca050000 	bgt	141b10 <_Min_Stack_Size+0x141710>
    1b0c:	005d6701 	subseq	r6, sp, r1, lsl #14
    1b10:	01cb0500 	biceq	r0, fp, r0, lsl #10
    1b14:	00003b77 	andeq	r3, r0, r7, ror fp
    1b18:	d601cc05 	strle	ip, [r1], -r5, lsl #24
    1b1c:	05000087 	streq	r0, [r0, #-135]	; 0xffffff79
    1b20:	305b01cd 	subscc	r0, fp, sp, asr #3
    1b24:	ce050000 	cdpgt	0, 0, cr0, cr5, cr0, {0}
    1b28:	005e0f01 	subseq	r0, lr, r1, lsl #30
    1b2c:	01cf0500 	biceq	r0, pc, r0, lsl #10
    1b30:	0000794e 	andeq	r7, r0, lr, asr #18
    1b34:	0001d205 	andeq	sp, r1, r5, lsl #4
    1b38:	05000000 	streq	r0, [r0, #-0]
    1b3c:	966d01d3 			; <UNDEFINED> instruction: 0x966d01d3
    1b40:	d4050000 	strle	r0, [r5], #-0
    1b44:	0033ad01 	eorseq	sl, r3, r1, lsl #26
    1b48:	01d50500 	bicseq	r0, r5, r0, lsl #10
    1b4c:	00008763 	andeq	r8, r0, r3, ror #14
    1b50:	9901da05 	stmdbls	r1, {r0, r2, r9, fp, ip, lr, pc}
    1b54:	05000056 	streq	r0, [r0, #-86]	; 0xffffffaa
    1b58:	457a01db 	ldrbmi	r0, [sl, #-475]!	; 0xfffffe25
    1b5c:	dc050000 	stcle	0, cr0, [r5], {-0}
    1b60:	000caf01 	andeq	sl, ip, r1, lsl #30
    1b64:	01dd0500 	bicseq	r0, sp, r0, lsl #10
    1b68:	0000629b 	muleq	r0, fp, r2
    1b6c:	2f01de05 	svccs	0x0001de05
    1b70:	05000037 	streq	r0, [r0, #-55]	; 0xffffffc9
    1b74:	3a5501df 	bcc	15422f8 <_Min_Stack_Size+0x1541ef8>
    1b78:	e0050000 	and	r0, r5, r0
    1b7c:	0036e901 	eorseq	lr, r6, r1, lsl #18
    1b80:	01e20500 	mvneq	r0, r0, lsl #10
    1b84:	00007a25 	andeq	r7, r0, r5, lsr #20
    1b88:	2901e305 	stmdbcs	r1, {r0, r2, r8, r9, sp, lr, pc}
    1b8c:	0500003b 	streq	r0, [r0, #-59]	; 0xffffffc5
    1b90:	661201e4 	ldrvs	r0, [r2], -r4, ror #3
    1b94:	e5050000 	str	r0, [r5, #-0]
    1b98:	00866801 	addeq	r6, r6, r1, lsl #16
    1b9c:	01e60500 	mvneq	r0, r0, lsl #10
    1ba0:	00000bb7 			; <UNDEFINED> instruction: 0x00000bb7
    1ba4:	d701e705 	strle	lr, [r1, -r5, lsl #14]
    1ba8:	050000a2 	streq	r0, [r0, #-162]	; 0xffffff5e
    1bac:	024201e8 	subeq	r0, r2, #232, 2	; 0x3a
    1bb0:	ea050000 	b	141bb8 <_Min_Stack_Size+0x1417b8>
    1bb4:	009e4101 	addseq	r4, lr, r1, lsl #2
    1bb8:	01eb0500 	mvneq	r0, r0, lsl #10
    1bbc:	00001d32 	andeq	r1, r0, r2, lsr sp
    1bc0:	fd01ec05 	stc2	12, cr14, [r1, #-20]	; 0xffffffec
    1bc4:	05000071 	streq	r0, [r0, #-113]	; 0xffffff8f
    1bc8:	7e8001ed 	rmfvcdz	f0, f0, #5.0
    1bcc:	ef050000 	svc	0x00050000
    1bd0:	00828001 	addeq	r8, r2, r1
    1bd4:	01f00500 	mvnseq	r0, r0, lsl #10
    1bd8:	00006131 	andeq	r6, r0, r1, lsr r1
    1bdc:	ed01f105 	stfd	f7, [r1, #-20]	; 0xffffffec
    1be0:	05000021 	streq	r0, [r0, #-33]	; 0xffffffdf
    1be4:	66f501f2 			; <UNDEFINED> instruction: 0x66f501f2
    1be8:	fb050000 	blx	141bf2 <_Min_Stack_Size+0x1417f2>
    1bec:	004f7601 	subeq	r7, pc, r1, lsl #12
    1bf0:	01fc0500 	mvnseq	r0, r0, lsl #10
    1bf4:	0000392a 	andeq	r3, r0, sl, lsr #18
    1bf8:	0f01fd05 	svceq	0x0001fd05
    1bfc:	05000034 	streq	r0, [r0, #-52]	; 0xffffffcc
    1c00:	3a9101fe 	bcc	fe442400 <_estack+0xde43d400>
    1c04:	ff050000 			; <UNDEFINED> instruction: 0xff050000
    1c08:	00647401 	rsbeq	r7, r4, r1, lsl #8
    1c0c:	02800500 	addeq	r0, r0, #0, 10
    1c10:	00001958 	andeq	r1, r0, r8, asr r9
    1c14:	55028105 	strpl	r8, [r2, #-261]	; 0xfffffefb
    1c18:	0500009d 	streq	r0, [r0, #-157]	; 0xffffff63
    1c1c:	0b840282 	bleq	fe10262c <_estack+0xde0fd62c>
    1c20:	83050000 	movwhi	r0, #20480	; 0x5000
    1c24:	003ec502 	eorseq	ip, lr, r2, lsl #10
    1c28:	02840500 	addeq	r0, r4, #0, 10
    1c2c:	0000402a 	andeq	r4, r0, sl, lsr #32
    1c30:	15028505 	strne	r8, [r2, #-1285]	; 0xfffffafb
    1c34:	05000099 	streq	r0, [r0, #-153]	; 0xffffff67
    1c38:	788f0286 	stmvc	pc, {r1, r2, r7, r9}	; <UNPREDICTABLE>
    1c3c:	87050000 	strhi	r0, [r5, -r0]
    1c40:	00022b02 	andeq	r2, r2, r2, lsl #22
    1c44:	02880500 	addeq	r0, r8, #0, 10
    1c48:	0000a156 	andeq	sl, r0, r6, asr r1
    1c4c:	d7028905 	strle	r8, [r2, -r5, lsl #18]
    1c50:	0500008c 	streq	r0, [r0, #-140]	; 0xffffff74
    1c54:	9540028a 	strbls	r0, [r0, #-650]	; 0xfffffd76
    1c58:	8b050000 	blhi	141c60 <_Min_Stack_Size+0x141860>
    1c5c:	00378902 	eorseq	r8, r7, r2, lsl #18
    1c60:	028c0500 	addeq	r0, ip, #0, 10
    1c64:	0000192b 	andeq	r1, r0, fp, lsr #18
    1c68:	32028d05 	andcc	r8, r2, #320	; 0x140
    1c6c:	0500007b 	streq	r0, [r0, #-123]	; 0xffffff85
    1c70:	7755028e 	ldrbvc	r0, [r5, -lr, lsl #5]
    1c74:	8f050000 	svchi	0x00050000
    1c78:	0047e202 	subeq	lr, r7, r2, lsl #4
    1c7c:	02900500 	addseq	r0, r0, #0, 10
    1c80:	00004cbe 			; <UNDEFINED> instruction: 0x00004cbe
    1c84:	91029105 	tstls	r2, r5, lsl #2
    1c88:	0500001d 	streq	r0, [r0, #-29]	; 0xffffffe3
    1c8c:	4bfd0292 	blmi	fff426dc <_estack+0xdff3d6dc>
    1c90:	93050000 	movwls	r0, #20480	; 0x5000
    1c94:	006f6702 	rsbeq	r6, pc, r2, lsl #14
    1c98:	02940500 	addseq	r0, r4, #0, 10
    1c9c:	00001f6f 	andeq	r1, r0, pc, ror #30
    1ca0:	e0029505 	and	r9, r2, r5, lsl #10
    1ca4:	0500002a 	streq	r0, [r0, #-42]	; 0xffffffd6
    1ca8:	12cc0296 	sbcne	r0, ip, #1610612745	; 0x60000009
    1cac:	97050000 	strls	r0, [r5, -r0]
    1cb0:	0058f802 	subseq	pc, r8, r2, lsl #16
    1cb4:	02980500 	addseq	r0, r8, #0, 10
    1cb8:	00009796 	muleq	r0, r6, r7
    1cbc:	17029905 	strne	r9, [r2, -r5, lsl #18]
    1cc0:	0500005c 	streq	r0, [r0, #-92]	; 0xffffffa4
    1cc4:	8e40029a 	mcrhi	2, 2, r0, cr0, cr10, {4}
    1cc8:	9b050000 	blls	141cd0 <_Min_Stack_Size+0x1418d0>
    1ccc:	0006df02 	andeq	sp, r6, r2, lsl #30
    1cd0:	029c0500 	addseq	r0, ip, #0, 10
    1cd4:	000014d0 	ldrdeq	r1, [r0], -r0
    1cd8:	70029d05 	andvc	r9, r2, r5, lsl #26
    1cdc:	05000001 	streq	r0, [r0, #-1]
    1ce0:	13a8029e 			; <UNDEFINED> instruction: 0x13a8029e
    1ce4:	9f050000 	svcls	0x00050000
    1ce8:	00259002 	eoreq	r9, r5, r2
    1cec:	02a00500 	adceq	r0, r0, #0, 10
    1cf0:	00007437 	andeq	r7, r0, r7, lsr r4
    1cf4:	4002a105 	andmi	sl, r2, r5, lsl #2
    1cf8:	05000038 	streq	r0, [r0, #-56]	; 0xffffffc8
    1cfc:	729302a2 	addsvc	r0, r3, #536870922	; 0x2000000a
    1d00:	a3050000 	movwge	r0, #20480	; 0x5000
    1d04:	006f1502 	rsbeq	r1, pc, r2, lsl #10
    1d08:	02a40500 	adceq	r0, r4, #0, 10
    1d0c:	0000771d 	andeq	r7, r0, sp, lsl r7
    1d10:	5302a605 	movwpl	sl, #9733	; 0x2605
    1d14:	05000022 	streq	r0, [r0, #-34]	; 0xffffffde
    1d18:	8e9902a7 	cdphi	2, 9, cr0, cr9, cr7, {5}
    1d1c:	a8050000 	stmdage	r5, {}	; <UNPREDICTABLE>
    1d20:	009b6a02 	addseq	r6, fp, r2, lsl #20
    1d24:	02a90500 	adceq	r0, r9, #0, 10
    1d28:	000013dd 	ldrdeq	r1, [r0], -sp
    1d2c:	b502aa05 	strlt	sl, [r2, #-2565]	; 0xfffff5fb
    1d30:	0500002f 	streq	r0, [r0, #-47]	; 0xffffffd1
    1d34:	168e02ab 	strne	r0, [lr], fp, lsr #5
    1d38:	ac050000 	stcge	0, cr0, [r5], {-0}
    1d3c:	00502602 	subseq	r2, r0, r2, lsl #12
    1d40:	02ad0500 	adceq	r0, sp, #0, 10
    1d44:	00005266 	andeq	r5, r0, r6, ror #4
    1d48:	a702ae05 	strge	sl, [r2, -r5, lsl #28]
    1d4c:	05000061 	streq	r0, [r0, #-97]	; 0xffffff9f
    1d50:	22ac02af 	adccs	r0, ip, #-268435446	; 0xf000000a
    1d54:	b0050000 	andlt	r0, r5, r0
    1d58:	00710502 	rsbseq	r0, r1, r2, lsl #10
    1d5c:	02b10500 	adcseq	r0, r1, #0, 10
    1d60:	0000199b 	muleq	r0, fp, r9
    1d64:	2802b205 	stmdacs	r2, {r0, r2, r9, ip, sp, pc}
    1d68:	05000038 	streq	r0, [r0, #-56]	; 0xffffffc8
    1d6c:	605002b3 	ldrhvs	r0, [r0], #-35	; 0xffffffdd
    1d70:	b4050000 	strlt	r0, [r5], #-0
    1d74:	005a4502 	subseq	r4, sl, r2, lsl #10
    1d78:	02b50500 	adcseq	r0, r5, #0, 10
    1d7c:	00007f22 	andeq	r7, r0, r2, lsr #30
    1d80:	2e02b605 	cfmadd32cs	mvax0, mvfx11, mvfx2, mvfx5
    1d84:	0500009f 	streq	r0, [r0, #-159]	; 0xffffff61
    1d88:	6e9302b7 	mrcvs	2, 4, r0, cr3, cr7, {5}
    1d8c:	b9050000 	stmdblt	r5, {}	; <UNPREDICTABLE>
    1d90:	00456102 	subeq	r6, r5, r2, lsl #2
    1d94:	02ba0500 	adcseq	r0, sl, #0, 10
    1d98:	000026dc 	ldrdeq	r2, [r0], -ip
    1d9c:	2402bb05 	strcs	fp, [r2], #-2821	; 0xfffff4fb
    1da0:	05000047 	streq	r0, [r0, #-71]	; 0xffffffb9
    1da4:	377202bc 			; <UNDEFINED> instruction: 0x377202bc
    1da8:	be050000 	cdplt	0, 0, cr0, cr5, cr0, {0}
    1dac:	00898402 	addeq	r8, r9, r2, lsl #8
    1db0:	02bf0500 	adcseq	r0, pc, #0, 10
    1db4:	00009ade 	ldrdeq	r9, [r0], -lr
    1db8:	1d02c005 	stcne	0, cr12, [r2, #-20]	; 0xffffffec
    1dbc:	0500002c 	streq	r0, [r0, #-44]	; 0xffffffd4
    1dc0:	86fc02c1 	ldrbthi	r0, [ip], r1, asr #5
    1dc4:	c2050000 	andgt	r0, r5, #0
    1dc8:	00831202 	addeq	r1, r3, r2, lsl #4
    1dcc:	02c30500 	sbceq	r0, r3, #0, 10
    1dd0:	000090ca 	andeq	r9, r0, sl, asr #1
    1dd4:	7d02c405 	cfstrsvc	mvf12, [r2, #-20]	; 0xffffffec
    1dd8:	0500009e 	streq	r0, [r0, #-158]	; 0xffffff62
    1ddc:	5c8102c5 	sfmpl	f0, 4, [r1], {197}	; 0xc5
    1de0:	c6050000 	strgt	r0, [r5], -r0
    1de4:	0048be02 	subeq	fp, r8, r2, lsl #28
    1de8:	02c70500 	sbceq	r0, r7, #0, 10
    1dec:	00008f32 	andeq	r8, r0, r2, lsr pc
    1df0:	2c02c805 	stccs	8, cr12, [r2], {5}
    1df4:	05000030 	streq	r0, [r0, #-48]	; 0xffffffd0
    1df8:	68e402c9 	stmiavs	r4!, {r0, r3, r6, r7, r9}^
    1dfc:	ca050000 	bgt	141e04 <_Min_Stack_Size+0x141a04>
    1e00:	00677f02 	rsbeq	r7, r7, r2, lsl #30
    1e04:	02cb0500 	sbceq	r0, fp, #0, 10
    1e08:	000044d8 	ldrdeq	r4, [r0], -r8
    1e0c:	7502cc05 	strvc	ip, [r2, #-3077]	; 0xfffff3fb
    1e10:	0500005d 	streq	r0, [r0, #-93]	; 0xffffffa3
    1e14:	4b1c02cd 	blmi	702950 <_Min_Stack_Size+0x702550>
    1e18:	ce050000 	cdpgt	0, 0, cr0, cr5, cr0, {0}
    1e1c:	0077f502 	rsbseq	pc, r7, r2, lsl #10
    1e20:	02cf0500 	sbceq	r0, pc, #0, 10
    1e24:	00008c24 	andeq	r8, r0, r4, lsr #24
    1e28:	7902d005 	stmdbvc	r2, {r0, r2, ip, lr, pc}
    1e2c:	05000034 	streq	r0, [r0, #-52]	; 0xffffffcc
    1e30:	0c2302d1 	sfmeq	f0, 4, [r3], #-836	; 0xfffffcbc
    1e34:	d2050000 	andle	r0, r5, #0
    1e38:	007d4102 	rsbseq	r4, sp, r2, lsl #2
    1e3c:	02d30500 	sbcseq	r0, r3, #0, 10
    1e40:	000018c3 	andeq	r1, r0, r3, asr #17
    1e44:	f102d405 			; <UNDEFINED> instruction: 0xf102d405
    1e48:	0500000e 	streq	r0, [r0, #-14]
    1e4c:	111302d5 			; <UNDEFINED> instruction: 0x111302d5
    1e50:	d6050000 	strle	r0, [r5], -r0
    1e54:	008d9602 	addeq	r9, sp, r2, lsl #12
    1e58:	02d70500 	sbcseq	r0, r7, #0, 10
    1e5c:	00004df4 	strdeq	r4, [r0], -r4	; <UNPREDICTABLE>
    1e60:	fb02d805 	blx	b7e7e <_Min_Stack_Size+0xb7a7e>
    1e64:	05000005 	streq	r0, [r0, #-5]
    1e68:	7ee902d9 	mcrvc	2, 7, r0, cr9, cr9, {6}
    1e6c:	da050000 	ble	141e74 <_Min_Stack_Size+0x141a74>
    1e70:	00320e02 	eorseq	r0, r2, r2, lsl #28
    1e74:	02db0500 	sbcseq	r0, fp, #0, 10
    1e78:	00008f7f 	andeq	r8, r0, pc, ror pc
    1e7c:	c302dc05 	movwgt	sp, #11269	; 0x2c05
    1e80:	05000083 	streq	r0, [r0, #-131]	; 0xffffff7d
    1e84:	4c6502dd 	sfmmi	f0, 2, [r5], #-884	; 0xfffffc8c
    1e88:	de050000 	cdple	0, 0, cr0, cr5, cr0, {0}
    1e8c:	003e9302 	eorseq	r9, lr, r2, lsl #6
    1e90:	02df0500 	sbcseq	r0, pc, #0, 10
    1e94:	00002afe 	strdeq	r2, [r0], -lr
    1e98:	d002e005 	andle	lr, r2, r5
    1e9c:	0500008a 	streq	r0, [r0, #-138]	; 0xffffff76
    1ea0:	659402e1 	ldrvs	r0, [r4, #737]	; 0x2e1
    1ea4:	e2050000 	and	r0, r5, #0
    1ea8:	0048da02 	subeq	sp, r8, r2, lsl #20
    1eac:	02e30500 	rsceq	r0, r3, #0, 10
    1eb0:	00002400 	andeq	r2, r0, r0, lsl #8
    1eb4:	cc02e405 	cfstrsgt	mvf14, [r2], {5}
    1eb8:	0500007f 	streq	r0, [r0, #-127]	; 0xffffff81
    1ebc:	3e5f02e5 	cdpcc	2, 5, cr0, cr15, cr5, {7}
    1ec0:	e6050000 	str	r0, [r5], -r0
    1ec4:	00084e02 	andeq	r4, r8, r2, lsl #28
    1ec8:	02e70500 	rsceq	r0, r7, #0, 10
    1ecc:	0000861c 	andeq	r8, r0, ip, lsl r6
    1ed0:	e802ea05 	stmda	r2, {r0, r2, r9, fp, sp, lr, pc}
    1ed4:	0500001c 	streq	r0, [r0, #-28]	; 0xffffffe4
    1ed8:	04f802eb 	ldrbteq	r0, [r8], #747	; 0x2eb
    1edc:	ec050000 	stc	0, cr0, [r5], {-0}
    1ee0:	006fa102 	rsbeq	sl, pc, r2, lsl #2
    1ee4:	02ed0500 	rsceq	r0, sp, #0, 10
    1ee8:	00009484 	andeq	r9, r0, r4, lsl #9
    1eec:	1e02ee05 	cdpne	14, 0, cr14, cr2, cr5, {0}
    1ef0:	05000093 	streq	r0, [r0, #-147]	; 0xffffff6d
    1ef4:	300e02ef 	andcc	r0, lr, pc, ror #5
    1ef8:	f0050000 			; <UNDEFINED> instruction: 0xf0050000
    1efc:	002ca502 	eoreq	sl, ip, r2, lsl #10
    1f00:	02f10500 	rscseq	r0, r1, #0, 10
    1f04:	00007ca8 	andeq	r7, r0, r8, lsr #25
    1f08:	4d02f205 	sfmmi	f7, 1, [r2, #-20]	; 0xffffffec
    1f0c:	05000006 	streq	r0, [r0, #-6]
    1f10:	253d02f3 	ldrcs	r0, [sp, #-755]!	; 0xfffffd0d
    1f14:	f4050000 	vst4.8	{d0-d3}, [r5], r0
    1f18:	001e4302 	andseq	r4, lr, r2, lsl #6
    1f1c:	02f50500 	rscseq	r0, r5, #0, 10
    1f20:	000075c2 	andeq	r7, r0, r2, asr #11
    1f24:	d602f605 	strle	pc, [r2], -r5, lsl #12
    1f28:	05000049 	streq	r0, [r0, #-73]	; 0xffffffb7
    1f2c:	70cc02f7 	strdvc	r0, [ip], #39	; 0x27
    1f30:	f8050000 			; <UNDEFINED> instruction: 0xf8050000
    1f34:	008d0d02 	addeq	r0, sp, r2, lsl #26
    1f38:	02f90500 	rscseq	r0, r9, #0, 10
    1f3c:	0000892b 	andeq	r8, r0, fp, lsr #18
    1f40:	f302fa05 	vpmax.u8	d15, d2, d5
    1f44:	0500004f 	streq	r0, [r0, #-79]	; 0xffffffb1
    1f48:	5fbe02fb 	svcpl	0x00be02fb
    1f4c:	fc050000 	stc2	0, cr0, [r5], {-0}
    1f50:	00974102 	addseq	r4, r7, r2, lsl #2
    1f54:	02fd0500 	rscseq	r0, sp, #0, 10
    1f58:	00007514 	andeq	r7, r0, r4, lsl r5
    1f5c:	5302fe05 	movwpl	pc, #11781	; 0x2e05	; <UNPREDICTABLE>
    1f60:	0500008c 	streq	r0, [r0, #-140]	; 0xffffff74
    1f64:	360202ff 			; <UNDEFINED> instruction: 0x360202ff
    1f68:	80050000 	andhi	r0, r5, r0
    1f6c:	0098ba03 	addseq	fp, r8, r3, lsl #20
    1f70:	03810500 	orreq	r0, r1, #0, 10
    1f74:	0000a095 	muleq	r0, r5, r0
    1f78:	00000400 	andeq	r0, r0, r0, lsl #8
    1f7c:	7de20905 			; <UNDEFINED> instruction: 0x7de20905
    1f80:	1c050000 	stcne	0, cr0, [r5], {-0}
    1f84:	00002a5c 	andeq	r2, r0, ip, asr sl
    1f88:	81f11d05 	mvnshi	r1, r5, lsl #26
    1f8c:	20050000 	andcs	r0, r5, r0
    1f90:	00009572 	andeq	r9, r0, r2, ror r5
    1f94:	12692105 	rsbne	r2, r9, #1073741825	; 0x40000001
    1f98:	29050000 	stmdbcs	r5, {}	; <UNPREDICTABLE>
    1f9c:	00004da8 	andeq	r4, r0, r8, lsr #27
    1fa0:	124b2a05 	subne	r2, fp, #20480	; 0x5000
    1fa4:	2b050000 	blcs	141fac <_Min_Stack_Size+0x141bac>
    1fa8:	00005299 	muleq	r0, r9, r2
    1fac:	2cf42c05 	ldclcs	12, cr2, [r4], #20
    1fb0:	2d050000 	stccs	0, cr0, [r5, #-0]
    1fb4:	0000926b 	andeq	r9, r0, fp, ror #4
    1fb8:	75a42e05 	strvc	r2, [r4, #3589]!	; 0xe05
    1fbc:	2f050000 	svccs	0x00050000
    1fc0:	000076dd 	ldrdeq	r7, [r0], -sp
    1fc4:	43a43005 			; <UNDEFINED> instruction: 0x43a43005
    1fc8:	31050000 	mrscc	r0, (UNDEF: 5)
    1fcc:	00001406 	andeq	r1, r0, r6, lsl #8
    1fd0:	0ae83205 	beq	ffa0e7ec <_estack+0xdfa097ec>
    1fd4:	33050000 	movwcc	r0, #20480	; 0x5000
    1fd8:	000056dd 	ldrdeq	r5, [r0], -sp
    1fdc:	9efc3405 	cdpls	4, 15, cr3, cr12, cr5, {0}
    1fe0:	35050000 	strcc	r0, [r5, #-0]
    1fe4:	000023e1 	andeq	r2, r0, r1, ror #7
    1fe8:	51523605 	cmppl	r2, r5, lsl #12
    1fec:	37050000 	strcc	r0, [r5, -r0]
    1ff0:	0000858f 	andeq	r8, r0, pc, lsl #11
    1ff4:	8def3805 	stclhi	8, cr3, [pc, #20]!	; 2010 <_Min_Stack_Size+0x1c10>
    1ff8:	39050000 	stmdbcc	r5, {}	; <UNPREDICTABLE>
    1ffc:	0000a3e4 	andeq	sl, r0, r4, ror #7
    2000:	3b854605 	blcc	fe15381c <_estack+0xde14e81c>
    2004:	47050000 	strmi	r0, [r5, -r0]
    2008:	000092ef 	andeq	r9, r0, pc, ror #5
    200c:	13664805 	cmnne	r6, #327680	; 0x50000
    2010:	49050000 	stmdbmi	r5, {}	; <UNPREDICTABLE>
    2014:	00001131 	andeq	r1, r0, r1, lsr r1
    2018:	2c374a05 			; <UNDEFINED> instruction: 0x2c374a05
    201c:	4b050000 	blmi	142024 <_Min_Stack_Size+0x141c24>
    2020:	00009721 	andeq	r9, r0, r1, lsr #14
    2024:	089a4c05 	ldmeq	sl, {r0, r2, sl, fp, lr}
    2028:	4d050000 	stcmi	0, cr0, [r5, #-0]
    202c:	00008712 	andeq	r8, r0, r2, lsl r7
    2030:	94654e05 	strbtls	r4, [r5], #-3589	; 0xfffff1fb
    2034:	55050000 	strpl	r0, [r5, #-0]
    2038:	000097c2 	andeq	r9, r0, r2, asr #15
    203c:	909c5605 	addsls	r5, ip, r5, lsl #12
    2040:	57050000 	strpl	r0, [r5, -r0]
    2044:	00005b19 	andeq	r5, r0, r9, lsl fp
    2048:	00000400 	andeq	r0, r0, r0, lsl #8
    204c:	3a4d2405 	bcc	134b068 <_Min_Stack_Size+0x134ac68>
    2050:	25050000 	strcs	r0, [r5, #-0]
    2054:	00007ec1 	andeq	r7, r0, r1, asr #29
    2058:	7d6c2605 	stclvc	6, cr2, [ip, #-20]!	; 0xffffffec
    205c:	27050000 	strcs	r0, [r5, -r0]
    2060:	00009d76 	andeq	r9, r0, r6, ror sp
    2064:	14e62805 	strbtne	r2, [r6], #2053	; 0x805
    2068:	29050000 	stmdbcs	r5, {}	; <UNPREDICTABLE>
    206c:	00003bcf 	andeq	r3, r0, pc, asr #23
    2070:	60482a05 	subvs	r2, r8, r5, lsl #20
    2074:	2b050000 	blcs	14207c <_Min_Stack_Size+0x141c7c>
    2078:	00004787 	andeq	r4, r0, r7, lsl #15
    207c:	9ef42c05 	cdpls	12, 15, cr2, cr4, cr5, {0}
    2080:	2d050000 	stccs	0, cr0, [r5, #-0]
    2084:	00001ed8 	ldrdeq	r1, [r0], -r8
    2088:	0fa22e05 	svceq	0x00a22e05
    208c:	2f050000 	svccs	0x00050000
    2090:	0000657d 	andeq	r6, r0, sp, ror r5
    2094:	11ac3005 			; <UNDEFINED> instruction: 0x11ac3005
    2098:	31050000 	mrscc	r0, (UNDEF: 5)
    209c:	00009dda 	ldrdeq	r9, [r0], -sl
    20a0:	132f3205 			; <UNDEFINED> instruction: 0x132f3205
    20a4:	33050000 	movwcc	r0, #20480	; 0x5000
    20a8:	00006904 	andeq	r6, r0, r4, lsl #18
    20ac:	38a53805 	stmiacc	r5!, {r0, r2, fp, ip, sp}
    20b0:	39050000 	stmdbcc	r5, {}	; <UNPREDICTABLE>
    20b4:	00006fe3 	andeq	r6, r0, r3, ror #31
    20b8:	63183a05 	tstvs	r8, #20480	; 0x5000
    20bc:	3b050000 	blcc	1420c4 <_Min_Stack_Size+0x141cc4>
    20c0:	000028cf 	andeq	r2, r0, pc, asr #17
    20c4:	12083e05 	andne	r3, r8, #5, 28	; 0x50
    20c8:	3f050000 	svccc	0x00050000
    20cc:	000085d9 	ldrdeq	r8, [r0], -r9
    20d0:	15b34005 	ldrne	r4, [r3, #5]!
    20d4:	41050000 	mrsmi	r0, (UNDEF: 5)
    20d8:	000077b2 			; <UNDEFINED> instruction: 0x000077b2
    20dc:	3ae64405 	bcc	ff9930f8 <_estack+0xdf98e0f8>
    20e0:	45050000 	strmi	r0, [r5, #-0]
    20e4:	00009cac 	andeq	r9, r0, ip, lsr #25
    20e8:	5bd44605 	blpl	ff513904 <_estack+0xdf50e904>
    20ec:	47050000 	strmi	r0, [r5, -r0]
    20f0:	00008695 	muleq	r0, r5, r6
    20f4:	a32f4a05 			; <UNDEFINED> instruction: 0xa32f4a05
    20f8:	4b050000 	blmi	142100 <_Min_Stack_Size+0x141d00>
    20fc:	000043c2 	andeq	r4, r0, r2, asr #7
    2100:	5d0c4c05 	stcpl	12, cr4, [ip, #-20]	; 0xffffffec
    2104:	4d050000 	stcmi	0, cr0, [r5, #-0]
    2108:	00003ce7 	andeq	r3, r0, r7, ror #25
    210c:	6b865005 	blvs	fe196128 <_estack+0xde191128>
    2110:	51050000 	mrspl	r0, (UNDEF: 5)
    2114:	00006431 	andeq	r6, r0, r1, lsr r4
    2118:	10655205 	rsbne	r5, r5, r5, lsl #4
    211c:	53050000 	movwpl	r0, #20480	; 0x5000
    2120:	000095f8 	strdeq	r9, [r0], -r8
    2124:	a4605605 	strbtge	r5, [r0], #-1541	; 0xfffff9fb
    2128:	57050000 	strpl	r0, [r5, -r0]
    212c:	0000719c 	muleq	r0, ip, r1
    2130:	404d5805 	submi	r5, sp, r5, lsl #16
    2134:	59050000 	stmdbpl	r5, {}	; <UNPREDICTABLE>
    2138:	0000a41d 	andeq	sl, r0, sp, lsl r4
    213c:	5d955c05 	ldcpl	12, cr5, [r5, #20]
    2140:	5d050000 	stcpl	0, cr0, [r5, #-0]
    2144:	00003e00 	andeq	r3, r0, r0, lsl #28
    2148:	20d95e05 	sbcscs	r5, r9, r5, lsl #28
    214c:	5f050000 	svcpl	0x00050000
    2150:	000000da 	ldrdeq	r0, [r0], -sl
    2154:	26996205 	ldrcs	r6, [r9], r5, lsl #4
    2158:	63050000 	movwvs	r0, #20480	; 0x5000
    215c:	00009010 	andeq	r9, r0, r0, lsl r0
    2160:	45a66405 	strmi	r6, [r6, #1029]!	; 0x405
    2164:	65050000 	strvs	r0, [r5, #-0]
    2168:	00005f2b 	andeq	r5, r0, fp, lsr #30
    216c:	6cf96805 	ldclvs	8, cr6, [r9], #20
    2170:	69050000 	stmdbvs	r5, {}	; <UNPREDICTABLE>
    2174:	00009c5e 	andeq	r9, r0, lr, asr ip
    2178:	0a7c6a05 	beq	1f1c994 <_Min_Stack_Size+0x1f1c594>
    217c:	6b050000 	blvs	142184 <_Min_Stack_Size+0x141d84>
    2180:	00009817 	andeq	r9, r0, r7, lsl r8
    2184:	21aa6e05 			; <UNDEFINED> instruction: 0x21aa6e05
    2188:	6f050000 	svcvs	0x00050000
    218c:	000001bc 			; <UNDEFINED> instruction: 0x000001bc
    2190:	8a267005 	bhi	99e1ac <_Min_Stack_Size+0x99ddac>
    2194:	71050000 	mrsvc	r0, (UNDEF: 5)
    2198:	00009bd0 	ldrdeq	r9, [r0], -r0
    219c:	356f7405 	strbcc	r7, [pc, #-1029]!	; 1d9f <_Min_Stack_Size+0x199f>
    21a0:	75050000 	strvc	r0, [r5, #-0]
    21a4:	00002887 	andeq	r2, r0, r7, lsl #17
    21a8:	67377605 	ldrvs	r7, [r7, -r5, lsl #12]!
    21ac:	77050000 	strvc	r0, [r5, -r0]
    21b0:	0000a4a3 	andeq	sl, r0, r3, lsr #9
    21b4:	1f027a05 	svcne	0x00027a05
    21b8:	7b050000 	blvc	1421c0 <_Min_Stack_Size+0x141dc0>
    21bc:	00000c4e 	andeq	r0, r0, lr, asr #24
    21c0:	18677c05 	stmdane	r7!, {r0, r2, sl, fp, ip, sp, lr}^
    21c4:	7d050000 	stcvc	0, cr0, [r5, #-0]
    21c8:	00002bd5 	ldrdeq	r2, [r0], -r5
    21cc:	88018005 	stmdahi	r1, {r0, r2, pc}
    21d0:	0500009b 	streq	r0, [r0, #-155]	; 0xffffff65
    21d4:	80790181 	rsbshi	r0, r9, r1, lsl #3
    21d8:	82050000 	andhi	r0, r5, #0
    21dc:	007a7501 	rsbseq	r7, sl, r1, lsl #10
    21e0:	01830500 	orreq	r0, r3, r0, lsl #10
    21e4:	00004e2e 	andeq	r4, r0, lr, lsr #28
    21e8:	d0018605 	andle	r8, r1, r5, lsl #12
    21ec:	05000039 	streq	r0, [r0, #-57]	; 0xffffffc7
    21f0:	0da00187 	stfeqs	f0, [r0, #540]!	; 0x21c
    21f4:	88050000 	stmdahi	r5, {}	; <UNPREDICTABLE>
    21f8:	00451901 	subeq	r1, r5, r1, lsl #18
    21fc:	01890500 	orreq	r0, r9, r0, lsl #10
    2200:	0000845d 	andeq	r8, r0, sp, asr r4
    2204:	82018c05 	andhi	r8, r1, #1280	; 0x500
    2208:	0500000e 	streq	r0, [r0, #-14]
    220c:	724b018d 	subvc	r0, fp, #1073741859	; 0x40000023
    2210:	8e050000 	cdphi	0, 0, cr0, cr5, cr0, {0}
    2214:	001a6401 	andseq	r6, sl, r1, lsl #8
    2218:	018f0500 	orreq	r0, pc, r0, lsl #10
    221c:	00001150 	andeq	r1, r0, r0, asr r1
    2220:	67019205 	strvs	r9, [r1, -r5, lsl #4]
    2224:	0500003c 	streq	r0, [r0, #-60]	; 0xffffffc4
    2228:	41010193 			; <UNDEFINED> instruction: 0x41010193
    222c:	94050000 	strls	r0, [r5], #-0
    2230:	003f4401 	eorseq	r4, pc, r1, lsl #8
    2234:	01950500 	orrseq	r0, r5, r0, lsl #10
    2238:	00003308 	andeq	r3, r0, r8, lsl #6
    223c:	ba019a05 	blt	68a58 <_Min_Stack_Size+0x68658>
    2240:	0500002a 	streq	r0, [r0, #-42]	; 0xffffffd6
    2244:	8167019b 			; <UNDEFINED> instruction: 0x8167019b
    2248:	9c050000 	stcls	0, cr0, [r5], {-0}
    224c:	007c5501 	rsbseq	r5, ip, r1, lsl #10
    2250:	019f0500 	orrseq	r0, pc, r0, lsl #10
    2254:	000041c2 	andeq	r4, r0, r2, asr #3
    2258:	d201a005 	andle	sl, r1, #5
    225c:	00000017 	andeq	r0, r0, r7, lsl r0
    2260:	ef020004 	svc	0x00020004
    2264:	07000009 	streq	r0, [r0, -r9]
    2268:	0000015f 	andeq	r0, r0, pc, asr r1
    226c:	03010003 	movweq	r0, #4099	; 0x1003
    2270:	09050508 	stmdbeq	r5, {r3, r8, sl}
    2274:	00007de2 	andeq	r7, r0, r2, ror #27
    2278:	05040b03 	streq	r0, [r4, #-2819]	; 0xfffff4fd
    227c:	00015c09 	andeq	r5, r1, r9, lsl #24
    2280:	060f0300 	streq	r0, [pc], -r0, lsl #6
    2284:	8e7b0805 	cdphi	8, 7, cr0, cr11, cr5, {0}
    2288:	0a030000 	beq	c2290 <_Min_Stack_Size+0xc1e90>
    228c:	0c010707 	stceq	7, cr0, [r1], {7}
    2290:	03040000 	movweq	r0, #16384	; 0x4000
    2294:	0805080b 	stmdaeq	r5, {r0, r1, r3, fp}
    2298:	00005d59 	andeq	r5, r0, r9, asr sp
    229c:	05090a03 	streq	r0, [r9, #-2563]	; 0xfffff5fd
    22a0:	00158c07 	andseq	r8, r5, r7, lsl #24
    22a4:	0a0a0300 	beq	282eac <_Min_Stack_Size+0x282aac>
    22a8:	000c2507 	andeq	r2, ip, r7, lsl #10
    22ac:	47070400 	strmi	r0, [r7, -r0, lsl #8]
    22b0:	0400000c 	streq	r0, [r0], #-12
    22b4:	050b0b03 	streq	r0, [fp, #-2819]	; 0xfffff4fd
    22b8:	008d6602 	addeq	r6, sp, r2, lsl #12
    22bc:	07040300 	streq	r0, [r4, -r0, lsl #6]
    22c0:	0c050304 	stceq	3, cr0, [r5], {4}
    22c4:	000ca207 	andeq	sl, ip, r7, lsl #4
    22c8:	36070400 	strcc	r0, [r7], -r0, lsl #8
    22cc:	0400000d 	streq	r0, [r0], #-13
    22d0:	000d7907 	andeq	r7, sp, r7, lsl #18
    22d4:	ad070400 	cfstrsge	mvf0, [r7, #-0]
    22d8:	0300000d 	movweq	r0, #13
    22dc:	c3070d10 	movwgt	r0, #32016	; 0x7d10
    22e0:	0400000d 	streq	r0, [r0], #-13
    22e4:	050e1203 	streq	r1, [lr, #-515]	; 0xfffffdfd
    22e8:	0062c70b 	rsbeq	ip, r2, fp, lsl #14
    22ec:	080d0300 	stmdaeq	sp, {r8, r9}
    22f0:	0d0e0304 	stceq	3, cr0, [lr, #-16]
    22f4:	000ed107 	andeq	sp, lr, r7, lsl #2
    22f8:	0f030400 	svceq	0x00030400
    22fc:	0f5e070f 	svceq	0x005e070f
    2300:	18030000 	stmdane	r3, {}	; <UNPREDICTABLE>
    2304:	0f74070d 	svceq	0x0074070d
    2308:	03040000 	movweq	r0, #16384	; 0x4000
    230c:	0605101b 			; <UNDEFINED> instruction: 0x0605101b
    2310:	0000680d 	andeq	r6, r0, sp, lsl #16
    2314:	07020703 	streq	r0, [r2, -r3, lsl #14]
    2318:	00000fb7 			; <UNDEFINED> instruction: 0x00000fb7
    231c:	0e070404 	cdpeq	4, 0, cr0, cr7, cr4, {0}
    2320:	04000010 	streq	r0, [r0], #-16
    2324:	00104207 	andseq	r4, r0, r7, lsl #4
    2328:	11220300 			; <UNDEFINED> instruction: 0x11220300
    232c:	00105207 	andseq	r5, r0, r7, lsl #4
    2330:	aa070400 	bge	1c3338 <_Min_Stack_Size+0x1c2f38>
    2334:	03000010 	movweq	r0, #16
    2338:	071203ba 			; <UNDEFINED> instruction: 0x071203ba
    233c:	00001138 	andeq	r1, r0, r8, lsr r1
    2340:	11540704 	cmpne	r4, r4, lsl #14
    2344:	03040000 	movweq	r0, #16384	; 0x4000
    2348:	2b051313 	blcs	146f9c <_Min_Stack_Size+0x146b9c>
    234c:	00009d22 	andeq	r9, r0, r2, lsr #26
    2350:	040d2f03 	streq	r2, [sp], #-3843	; 0xfffff0fd
    2354:	0012cb07 	andseq	ip, r2, r7, lsl #22
    2358:	14030400 	strne	r0, [r3], #-1024	; 0xfffffc00
    235c:	e4020514 	str	r0, [r2], #-1300	; 0xfffffaec
    2360:	0400002c 	streq	r0, [r0], #-44	; 0xffffffd4
    2364:	07151603 	ldreq	r1, [r5, -r3, lsl #12]
    2368:	00001634 	andeq	r1, r0, r4, lsr r6
    236c:	164a0704 	strbne	r0, [sl], -r4, lsl #14
    2370:	03040000 	movweq	r0, #16384	; 0x4000
    2374:	09031610 	stmdbeq	r3, {r4, r9, sl, ip}
    2378:	ec0a0517 	cfstr32	mvfx0, [sl], {23}
    237c:	03000007 	movweq	r0, #7
    2380:	7307180d 	movwvc	r1, #30733	; 0x780d
    2384:	04000016 	streq	r0, [r0], #-22	; 0xffffffea
    2388:	07030e03 	streq	r0, [r3, -r3, lsl #28]
    238c:	00001776 	andeq	r1, r0, r6, ror r7
    2390:	17e00704 	strbne	r0, [r0, r4, lsl #14]!
    2394:	05040000 	streq	r0, [r4, #-0]
    2398:	0007e30d 	andeq	lr, r7, sp, lsl #6
    239c:	bf070400 	svclt	0x00070400
    23a0:	04000019 	streq	r0, [r0], #-25	; 0xffffffe7
    23a4:	0023ac07 	eoreq	sl, r3, r7, lsl #24
    23a8:	00040400 	andeq	r0, r4, r0, lsl #8
    23ac:	05000004 	streq	r0, [r0, #-4]
    23b0:	002a5c1c 	eoreq	r5, sl, ip, lsl ip
    23b4:	f11d0500 			; <UNDEFINED> instruction: 0xf11d0500
    23b8:	05000081 	streq	r0, [r0, #-129]	; 0xffffff7f
    23bc:	00957220 	addseq	r7, r5, r0, lsr #4
    23c0:	69210500 	stmdbvs	r1!, {r8, sl}
    23c4:	05000012 	streq	r0, [r0, #-18]	; 0xffffffee
    23c8:	004da829 	subeq	sl, sp, r9, lsr #16
    23cc:	4b2a0500 	blmi	a837d4 <_Min_Stack_Size+0xa833d4>
    23d0:	05000012 	streq	r0, [r0, #-18]	; 0xffffffee
    23d4:	0052992b 	subseq	r9, r2, fp, lsr #18
    23d8:	f42c0500 	vld3.8	{d0,d2,d4}, [ip], r0
    23dc:	0500002c 	streq	r0, [r0, #-44]	; 0xffffffd4
    23e0:	00926b2d 	addseq	r6, r2, sp, lsr #22
    23e4:	a42e0500 	strtge	r0, [lr], #-1280	; 0xfffffb00
    23e8:	05000075 	streq	r0, [r0, #-117]	; 0xffffff8b
    23ec:	0076dd2f 	rsbseq	sp, r6, pc, lsr #26
    23f0:	a4300500 	ldrtge	r0, [r0], #-1280	; 0xfffffb00
    23f4:	05000043 	streq	r0, [r0, #-67]	; 0xffffffbd
    23f8:	00140631 	andseq	r0, r4, r1, lsr r6
    23fc:	e8320500 	ldmda	r2!, {r8, sl}
    2400:	0500000a 	streq	r0, [r0, #-10]
    2404:	0056dd33 	subseq	sp, r6, r3, lsr sp
    2408:	fc340500 	ldc2	5, cr0, [r4], #-0
    240c:	0500009e 	streq	r0, [r0, #-158]	; 0xffffff62
    2410:	0023e135 	eoreq	lr, r3, r5, lsr r1
    2414:	52360500 	eorspl	r0, r6, #0, 10
    2418:	05000051 	streq	r0, [r0, #-81]	; 0xffffffaf
    241c:	00858f37 	addeq	r8, r5, r7, lsr pc
    2420:	ef380500 	svc	0x00380500
    2424:	0500008d 	streq	r0, [r0, #-141]	; 0xffffff73
    2428:	00a3e439 	adceq	lr, r3, r9, lsr r4
    242c:	85460500 	strbhi	r0, [r6, #-1280]	; 0xfffffb00
    2430:	0500003b 	streq	r0, [r0, #-59]	; 0xffffffc5
    2434:	0092ef47 	addseq	lr, r2, r7, asr #30
    2438:	66480500 	strbvs	r0, [r8], -r0, lsl #10
    243c:	05000013 	streq	r0, [r0, #-19]	; 0xffffffed
    2440:	00113149 	andseq	r3, r1, r9, asr #2
    2444:	374a0500 	strbcc	r0, [sl, -r0, lsl #10]
    2448:	0500002c 	streq	r0, [r0, #-44]	; 0xffffffd4
    244c:	0097214b 	addseq	r2, r7, fp, asr #2
    2450:	9a4c0500 	bls	1303858 <_Min_Stack_Size+0x1303458>
    2454:	05000008 	streq	r0, [r0, #-8]
    2458:	0087124d 	addeq	r1, r7, sp, asr #4
    245c:	654e0500 	strbvs	r0, [lr, #-1280]	; 0xfffffb00
    2460:	05000094 	streq	r0, [r0, #-148]	; 0xffffff6c
    2464:	0097c255 	addseq	ip, r7, r5, asr r2
    2468:	9c560500 	cfldr64ls	mvdx0, [r6], {-0}
    246c:	05000090 	streq	r0, [r0, #-144]	; 0xffffff70
    2470:	005b1957 	subseq	r1, fp, r7, asr r9
    2474:	00040000 	andeq	r0, r4, r0
    2478:	00121002 	andseq	r1, r2, r2
    247c:	015f0700 	cmpeq	pc, r0, lsl #14
    2480:	00030000 	andeq	r0, r3, r0
    2484:	04010301 	streq	r0, [r1], #-769	; 0xfffffcff
    2488:	015c0905 	cmpeq	ip, r5, lsl #18
    248c:	0f030000 	svceq	0x00030000
    2490:	7b080506 	blvc	2038b0 <_Min_Stack_Size+0x2034b0>
    2494:	0300008e 	movweq	r0, #142	; 0x8e
    2498:	0107070a 	tsteq	r7, sl, lsl #14
    249c:	0400000c 	streq	r0, [r0], #-12
    24a0:	05080b03 	streq	r0, [r8, #-2819]	; 0xfffff4fd
    24a4:	005d5908 	subseq	r5, sp, r8, lsl #18
    24a8:	090a0300 	stmdbeq	sl, {r8, r9}
    24ac:	158c0705 	strne	r0, [ip, #1797]	; 0x705
    24b0:	0a030000 	beq	c24b8 <_Min_Stack_Size+0xc20b8>
    24b4:	0c25070a 	stceq	7, cr0, [r5], #-40	; 0xffffffd8
    24b8:	07040000 	streq	r0, [r4, -r0]
    24bc:	00000c47 	andeq	r0, r0, r7, asr #24
    24c0:	0b0b0304 	bleq	2c30d8 <_Min_Stack_Size+0x2c2cd8>
    24c4:	8d660205 	sfmhi	f0, 2, [r6, #-20]!	; 0xffffffec
    24c8:	04030000 	streq	r0, [r3], #-0
    24cc:	05030407 	streq	r0, [r3, #-1031]	; 0xfffffbf9
    24d0:	0ca2070c 	stceq	7, cr0, [r2], #48	; 0x30
    24d4:	07040000 	streq	r0, [r4, -r0]
    24d8:	00000d36 	andeq	r0, r0, r6, lsr sp
    24dc:	0d790704 	ldcleq	7, cr0, [r9, #-16]!
    24e0:	07040000 	streq	r0, [r4, -r0]
    24e4:	00000dad 	andeq	r0, r0, sp, lsr #27
    24e8:	070d1003 	streq	r1, [sp, -r3]
    24ec:	00000dc3 	andeq	r0, r0, r3, asr #27
    24f0:	0e120304 	cdpeq	3, 1, cr0, cr2, cr4, {0}
    24f4:	62c70b05 	sbcvs	r0, r7, #5120	; 0x1400
    24f8:	0d030000 	stceq	0, cr0, [r3, #-0]
    24fc:	0e030408 	cdpeq	4, 0, cr0, cr3, cr8, {0}
    2500:	0ed1070d 	cdpeq	7, 13, cr0, cr1, cr13, {0}
    2504:	03040000 	movweq	r0, #16384	; 0x4000
    2508:	5e070f0f 	cdppl	15, 0, cr0, cr7, cr15, {0}
    250c:	0300000f 	movweq	r0, #15
    2510:	74070d18 	strvc	r0, [r7], #-3352	; 0xfffff2e8
    2514:	0400000f 	streq	r0, [r0], #-15
    2518:	05101b03 	ldreq	r1, [r0, #-2819]	; 0xfffff4fd
    251c:	00680d06 	rsbeq	r0, r8, r6, lsl #26
    2520:	02070300 	andeq	r0, r7, #0, 6
    2524:	000fb707 	andeq	fp, pc, r7, lsl #14
    2528:	07040400 	streq	r0, [r4, -r0, lsl #8]
    252c:	0000100e 	andeq	r1, r0, lr
    2530:	10420704 	subne	r0, r2, r4, lsl #14
    2534:	22030000 	andcs	r0, r3, #0
    2538:	10520711 	subsne	r0, r2, r1, lsl r7
    253c:	07040000 	streq	r0, [r4, -r0]
    2540:	000010aa 	andeq	r1, r0, sl, lsr #1
    2544:	1203ba03 	andne	fp, r3, #12288	; 0x3000
    2548:	00113807 	andseq	r3, r1, r7, lsl #16
    254c:	54070400 	strpl	r0, [r7], #-1024	; 0xfffffc00
    2550:	04000011 	streq	r0, [r0], #-17	; 0xffffffef
    2554:	05131303 	ldreq	r1, [r3, #-771]	; 0xfffffcfd
    2558:	009d222b 	addseq	r2, sp, fp, lsr #4
    255c:	0d2f0300 	stceq	3, cr0, [pc, #-0]	; 2564 <_Min_Stack_Size+0x2164>
    2560:	12cb0704 	sbcne	r0, fp, #4, 14	; 0x100000
    2564:	03040000 	movweq	r0, #16384	; 0x4000
    2568:	02051414 	andeq	r1, r5, #20, 8	; 0x14000000
    256c:	00002ce4 	andeq	r2, r0, r4, ror #25
    2570:	15160304 	ldrne	r0, [r6, #-772]	; 0xfffffcfc
    2574:	00163407 	andseq	r3, r6, r7, lsl #8
    2578:	4a070400 	bmi	1c3580 <_Min_Stack_Size+0x1c3180>
    257c:	04000016 	streq	r0, [r0], #-22	; 0xffffffea
    2580:	03161003 	tsteq	r6, #3
    2584:	0a051709 	beq	1481b0 <_Min_Stack_Size+0x147db0>
    2588:	000007ec 	andeq	r0, r0, ip, ror #15
    258c:	07180d03 	ldreq	r0, [r8, -r3, lsl #26]
    2590:	00001673 	andeq	r1, r0, r3, ror r6
    2594:	030e0304 	movweq	r0, #58116	; 0xe304
    2598:	00177607 	andseq	r7, r7, r7, lsl #12
    259c:	e0070400 	and	r0, r7, r0, lsl #8
    25a0:	04000017 	streq	r0, [r0], #-23	; 0xffffffe9
    25a4:	07e30d05 	strbeq	r0, [r3, r5, lsl #26]!
    25a8:	07040000 	streq	r0, [r4, -r0]
    25ac:	000019bf 			; <UNDEFINED> instruction: 0x000019bf
    25b0:	19020304 	stmdbne	r2, {r2, r8, r9}
    25b4:	7de20905 			; <UNDEFINED> instruction: 0x7de20905
    25b8:	0b030000 	bleq	c25c0 <_Min_Stack_Size+0xc21c0>
    25bc:	ac070404 	cfstrsge	mvf0, [r7], {4}
    25c0:	04000023 	streq	r0, [r0], #-35	; 0xffffffdd
    25c4:	05050303 	streq	r0, [r5, #-771]	; 0xfffffcfd
    25c8:	005fa509 	subseq	sl, pc, r9, lsl #10
    25cc:	190c0300 	stmdbne	ip, {r8, r9}
    25d0:	20490704 	subcs	r0, r9, r4, lsl #14
    25d4:	04040000 	streq	r0, [r4], #-0
	...

Disassembly of section .debug_line:

00000000 <.debug_line>:
       0:	000009eb 	andeq	r0, r0, fp, ror #19
       4:	05d60003 	ldrbeq	r0, [r6, #3]
       8:	01020000 	mrseq	r0, (UNDEF: 2)
       c:	000d0efb 	strdeq	r0, [sp], -fp
      10:	01010101 	tsteq	r1, r1, lsl #2
      14:	01000000 	mrseq	r0, (UNDEF: 0)
      18:	2e010000 	cdpcs	0, 0, cr0, cr1, cr0, {0}
      1c:	6e492f2e 	cdpvs	15, 4, cr2, cr9, cr14, {1}
      20:	6e492f63 	cdpvs	15, 4, cr2, cr9, cr3, {3}
      24:	3a430063 	bcc	10c01b8 <_Min_Stack_Size+0x10bfdb8>
      28:	5c54535c 	mrrcpl	3, 5, r5, r4, cr12
      2c:	334d5453 	movtcc	r5, #54355	; 0xd453
      30:	62754332 	rsbsvs	r4, r5, #-939524096	; 0xc8000000
      34:	45444965 	strbmi	r4, [r4, #-2405]	; 0xfffff69b
      38:	342e315f 	strtcc	r3, [lr], #-351	; 0xfffffea1
      3c:	535c302e 	cmppl	ip, #46	; 0x2e
      40:	32334d54 	eorscc	r4, r3, #84, 26	; 0x1500
      44:	65627543 	strbvs	r7, [r2, #-1347]!	; 0xfffffabd
      48:	5c454449 	cfstrdpl	mvd4, [r5], {73}	; 0x49
      4c:	67756c70 			; <UNDEFINED> instruction: 0x67756c70
      50:	5c736e69 	ldclpl	14, cr6, [r3], #-420	; 0xfffffe5c
      54:	2e6d6f63 	cdpcs	15, 6, cr6, cr13, cr3, {3}
      58:	732e7473 			; <UNDEFINED> instruction: 0x732e7473
      5c:	32336d74 	eorscc	r6, r3, #116, 26	; 0x1d00
      60:	65627563 	strbvs	r7, [r2, #-1379]!	; 0xfffffa9d
      64:	6564692e 	strbvs	r6, [r4, #-2350]!	; 0xfffff6d2
      68:	75636d2e 	strbvc	r6, [r3, #-3374]!	; 0xfffff2d2
      6c:	7478652e 	ldrbtvc	r6, [r8], #-1326	; 0xfffffad2
      70:	616e7265 	cmnvs	lr, r5, ror #4
      74:	6f6f746c 	svcvs	0x006f746c
      78:	672e736c 	strvs	r7, [lr, -ip, ror #6]!
      7c:	742d756e 	strtvc	r7, [sp], #-1390	; 0xfffffa92
      80:	736c6f6f 	cmnvc	ip, #444	; 0x1bc
      84:	726f662d 	rsbvc	r6, pc, #47185920	; 0x2d00000
      88:	6d74732d 	ldclvs	3, cr7, [r4, #-180]!	; 0xffffff4c
      8c:	312e3233 			; <UNDEFINED> instruction: 0x312e3233
      90:	2e332e31 	mrccs	14, 1, r2, cr3, cr1, {1}
      94:	316c6572 	smccc	50770	; 0xc652
      98:	6e69772e 	cdpvs	7, 6, cr7, cr9, cr14, {1}
      9c:	315f3233 	cmpcc	pc, r3, lsr r2	; <UNPREDICTABLE>
      a0:	312e312e 			; <UNDEFINED> instruction: 0x312e312e
      a4:	322e3030 	eorcc	r3, lr, #48	; 0x30
      a8:	30333230 	eorscc	r3, r3, r0, lsr r2
      ac:	31343139 	teqcc	r4, r9, lsr r1
      b0:	5c353332 	ldcpl	3, cr3, [r5], #-200	; 0xffffff38
      b4:	6c6f6f74 	stclvs	15, cr6, [pc], #-464	; fffffeec <_estack+0xdfffaeec>
      b8:	69625c73 	stmdbvs	r2!, {r0, r1, r4, r5, r6, sl, fp, ip, lr}^
      bc:	2e2e2f6e 	cdpcs	15, 2, cr2, cr14, cr14, {3}
      c0:	62696c2f 	rsbvs	r6, r9, #12032	; 0x2f00
      c4:	6363672f 	cmnvs	r3, #12320768	; 0xbc0000
      c8:	6d72612f 	ldfvse	f6, [r2, #-188]!	; 0xffffff44
      cc:	6e6f6e2d 	cdpvs	14, 6, cr6, cr15, cr13, {1}
      d0:	61652d65 	cmnvs	r5, r5, ror #26
      d4:	312f6962 			; <UNDEFINED> instruction: 0x312f6962
      d8:	2e332e31 	mrccs	14, 1, r2, cr3, cr1, {1}
      dc:	2e2e2f31 	mcrcs	15, 1, r2, cr14, cr1, {1}
      e0:	2f2e2e2f 	svccs	0x002e2e2f
      e4:	2e2f2e2e 	cdpcs	14, 2, cr2, cr15, cr14, {1}
      e8:	72612f2e 	rsbvc	r2, r1, #46, 30	; 0xb8
      ec:	6f6e2d6d 	svcvs	0x006e2d6d
      f0:	652d656e 	strvs	r6, [sp, #-1390]!	; 0xfffffa92
      f4:	2f696261 	svccs	0x00696261
      f8:	6c636e69 	stclvs	14, cr6, [r3], #-420	; 0xfffffe5c
      fc:	2f656475 	svccs	0x00656475
     100:	6863616d 	stmdavs	r3!, {r0, r2, r3, r5, r6, r8, sp, lr}^
     104:	00656e69 	rsbeq	r6, r5, r9, ror #28
     108:	535c3a43 	cmppl	ip, #274432	; 0x43000
     10c:	54535c54 	ldrbpl	r5, [r3], #-3156	; 0xfffff3ac
     110:	4332334d 	teqmi	r2, #872415233	; 0x34000001
     114:	49656275 	stmdbmi	r5!, {r0, r2, r4, r5, r6, r9, sp, lr}^
     118:	315f4544 	cmpcc	pc, r4, asr #10
     11c:	302e342e 	eorcc	r3, lr, lr, lsr #8
     120:	4d54535c 	ldclmi	3, cr5, [r4, #-368]	; 0xfffffe90
     124:	75433233 	strbvc	r3, [r3, #-563]	; 0xfffffdcd
     128:	44496562 	strbmi	r6, [r9], #-1378	; 0xfffffa9e
     12c:	6c705c45 	ldclvs	12, cr5, [r0], #-276	; 0xfffffeec
     130:	6e696775 	mcrvs	7, 3, r6, cr9, cr5, {3}
     134:	6f635c73 	svcvs	0x00635c73
     138:	74732e6d 	ldrbtvc	r2, [r3], #-3693	; 0xfffff193
     13c:	6d74732e 	ldclvs	3, cr7, [r4, #-184]!	; 0xffffff48
     140:	75633233 	strbvc	r3, [r3, #-563]!	; 0xfffffdcd
     144:	692e6562 	stmdbvs	lr!, {r1, r5, r6, r8, sl, sp, lr}
     148:	6d2e6564 	cfstr32vs	mvfx6, [lr, #-400]!	; 0xfffffe70
     14c:	652e7563 	strvs	r7, [lr, #-1379]!	; 0xfffffa9d
     150:	72657478 	rsbvc	r7, r5, #120, 8	; 0x78000000
     154:	746c616e 	strbtvc	r6, [ip], #-366	; 0xfffffe92
     158:	736c6f6f 	cmnvc	ip, #444	; 0x1bc
     15c:	756e672e 	strbvc	r6, [lr, #-1838]!	; 0xfffff8d2
     160:	6f6f742d 	svcvs	0x006f742d
     164:	662d736c 	strtvs	r7, [sp], -ip, ror #6
     168:	732d726f 			; <UNDEFINED> instruction: 0x732d726f
     16c:	32336d74 	eorscc	r6, r3, #116, 26	; 0x1d00
     170:	2e31312e 	rsfcssp	f3, f1, #0.5
     174:	65722e33 	ldrbvs	r2, [r2, #-3635]!	; 0xfffff1cd
     178:	772e316c 	strvc	r3, [lr, -ip, ror #2]!
     17c:	32336e69 	eorscc	r6, r3, #1680	; 0x690
     180:	312e315f 			; <UNDEFINED> instruction: 0x312e315f
     184:	3030312e 	eorscc	r3, r0, lr, lsr #2
     188:	3230322e 	eorscc	r3, r0, #-536870910	; 0xe0000002
     18c:	31393033 	teqcc	r9, r3, lsr r0
     190:	33323134 	teqcc	r2, #52, 2
     194:	6f745c35 	svcvs	0x00745c35
     198:	5c736c6f 	ldclpl	12, cr6, [r3], #-444	; 0xfffffe44
     19c:	2f6e6962 	svccs	0x006e6962
     1a0:	6c2f2e2e 	stcvs	14, cr2, [pc], #-184	; f0 <_Min_Heap_Size-0x110>
     1a4:	672f6269 	strvs	r6, [pc, -r9, ror #4]!
     1a8:	612f6363 			; <UNDEFINED> instruction: 0x612f6363
     1ac:	6e2d6d72 	mcrvs	13, 1, r6, cr13, cr2, {3}
     1b0:	2d656e6f 	stclcs	14, cr6, [r5, #-444]!	; 0xfffffe44
     1b4:	69626165 	stmdbvs	r2!, {r0, r2, r5, r6, r8, sp, lr}^
     1b8:	2e31312f 	rsfcssp	f3, f1, #10.0
     1bc:	2f312e33 	svccs	0x00312e33
     1c0:	2e2f2e2e 	cdpcs	14, 2, cr2, cr15, cr14, {1}
     1c4:	2e2e2f2e 	cdpcs	15, 2, cr2, cr14, cr14, {1}
     1c8:	2f2e2e2f 	svccs	0x002e2e2f
     1cc:	2d6d7261 	sfmcs	f7, 2, [sp, #-388]!	; 0xfffffe7c
     1d0:	656e6f6e 	strbvs	r6, [lr, #-3950]!	; 0xfffff092
     1d4:	6261652d 	rsbvs	r6, r1, #188743680	; 0xb400000
     1d8:	6e692f69 	cdpvs	15, 6, cr2, cr9, cr9, {3}
     1dc:	64756c63 	ldrbtvs	r6, [r5], #-3171	; 0xfffff39d
     1e0:	79732f65 	ldmdbvc	r3!, {r0, r2, r5, r6, r8, r9, sl, fp, sp}^
     1e4:	3a440073 	bcc	11003b8 <_Min_Stack_Size+0x10fffb8>
     1e8:	5f736b2f 	svcpl	0x00736b2f
     1ec:	6c706964 			; <UNDEFINED> instruction: 0x6c706964
     1f0:	2f616d6f 	svccs	0x00616d6f
     1f4:	74696e55 	strbtvc	r6, [r9], #-3669	; 0xfffff1ab
     1f8:	6e552f73 	mrcvs	15, 2, r2, cr5, cr3, {3}
     1fc:	31207469 			; <UNDEFINED> instruction: 0x31207469
     200:	654c2f34 	strbvs	r2, [ip, #-3892]	; 0xfffff0cc
     204:	6e6f7373 	mcrvs	3, 3, r7, cr15, cr3, {3}
     208:	6c2f3320 	stcvs	3, cr3, [pc], #-128	; 190 <_Min_Heap_Size-0x70>
     20c:	2f326261 	svccs	0x00326261
     210:	336d7473 	cmncc	sp, #1929379840	; 0x73000000
     214:	30316632 	eorscc	r6, r1, r2, lsr r6
     218:	5f386333 	svcpl	0x00386333
     21c:	76697264 	strbtvc	r7, [r9], -r4, ror #4
     220:	2f737265 	svccs	0x00737265
     224:	00636e69 	rsbeq	r6, r3, r9, ror #28
     228:	535c3a43 	cmppl	ip, #274432	; 0x43000
     22c:	54535c54 	ldrbpl	r5, [r3], #-3156	; 0xfffff3ac
     230:	4332334d 	teqmi	r2, #872415233	; 0x34000001
     234:	49656275 	stmdbmi	r5!, {r0, r2, r4, r5, r6, r9, sp, lr}^
     238:	315f4544 	cmpcc	pc, r4, asr #10
     23c:	302e342e 	eorcc	r3, lr, lr, lsr #8
     240:	4d54535c 	ldclmi	3, cr5, [r4, #-368]	; 0xfffffe90
     244:	75433233 	strbvc	r3, [r3, #-563]	; 0xfffffdcd
     248:	44496562 	strbmi	r6, [r9], #-1378	; 0xfffffa9e
     24c:	6c705c45 	ldclvs	12, cr5, [r0], #-276	; 0xfffffeec
     250:	6e696775 	mcrvs	7, 3, r6, cr9, cr5, {3}
     254:	6f635c73 	svcvs	0x00635c73
     258:	74732e6d 	ldrbtvc	r2, [r3], #-3693	; 0xfffff193
     25c:	6d74732e 	ldclvs	3, cr7, [r4, #-184]!	; 0xffffff48
     260:	75633233 	strbvc	r3, [r3, #-563]!	; 0xfffffdcd
     264:	692e6562 	stmdbvs	lr!, {r1, r5, r6, r8, sl, sp, lr}
     268:	6d2e6564 	cfstr32vs	mvfx6, [lr, #-400]!	; 0xfffffe70
     26c:	652e7563 	strvs	r7, [lr, #-1379]!	; 0xfffffa9d
     270:	72657478 	rsbvc	r7, r5, #120, 8	; 0x78000000
     274:	746c616e 	strbtvc	r6, [ip], #-366	; 0xfffffe92
     278:	736c6f6f 	cmnvc	ip, #444	; 0x1bc
     27c:	756e672e 	strbvc	r6, [lr, #-1838]!	; 0xfffff8d2
     280:	6f6f742d 	svcvs	0x006f742d
     284:	662d736c 	strtvs	r7, [sp], -ip, ror #6
     288:	732d726f 			; <UNDEFINED> instruction: 0x732d726f
     28c:	32336d74 	eorscc	r6, r3, #116, 26	; 0x1d00
     290:	2e31312e 	rsfcssp	f3, f1, #0.5
     294:	65722e33 	ldrbvs	r2, [r2, #-3635]!	; 0xfffff1cd
     298:	772e316c 	strvc	r3, [lr, -ip, ror #2]!
     29c:	32336e69 	eorscc	r6, r3, #1680	; 0x690
     2a0:	312e315f 			; <UNDEFINED> instruction: 0x312e315f
     2a4:	3030312e 	eorscc	r3, r0, lr, lsr #2
     2a8:	3230322e 	eorscc	r3, r0, #-536870910	; 0xe0000002
     2ac:	31393033 	teqcc	r9, r3, lsr r0
     2b0:	33323134 	teqcc	r2, #52, 2
     2b4:	6f745c35 	svcvs	0x00745c35
     2b8:	5c736c6f 	ldclpl	12, cr6, [r3], #-444	; 0xfffffe44
     2bc:	2f6e6962 	svccs	0x006e6962
     2c0:	6c2f2e2e 	stcvs	14, cr2, [pc], #-184	; 210 <_Min_Heap_Size+0x10>
     2c4:	672f6269 	strvs	r6, [pc, -r9, ror #4]!
     2c8:	612f6363 			; <UNDEFINED> instruction: 0x612f6363
     2cc:	6e2d6d72 	mcrvs	13, 1, r6, cr13, cr2, {3}
     2d0:	2d656e6f 	stclcs	14, cr6, [r5, #-444]!	; 0xfffffe44
     2d4:	69626165 	stmdbvs	r2!, {r0, r2, r5, r6, r8, sp, lr}^
     2d8:	2e31312f 	rsfcssp	f3, f1, #10.0
     2dc:	2f312e33 	svccs	0x00312e33
     2e0:	2e2f2e2e 	cdpcs	14, 2, cr2, cr15, cr14, {1}
     2e4:	2e2e2f2e 	cdpcs	15, 2, cr2, cr14, cr14, {1}
     2e8:	2f2e2e2f 	svccs	0x002e2e2f
     2ec:	2d6d7261 	sfmcs	f7, 2, [sp, #-388]!	; 0xfffffe7c
     2f0:	656e6f6e 	strbvs	r6, [lr, #-3950]!	; 0xfffff092
     2f4:	6261652d 	rsbvs	r6, r1, #188743680	; 0xb400000
     2f8:	6e692f69 	cdpvs	15, 6, cr2, cr9, cr9, {3}
     2fc:	64756c63 	ldrbtvs	r6, [r5], #-3171	; 0xfffff39d
     300:	3a430065 	bcc	10c049c <_Min_Stack_Size+0x10c009c>
     304:	5c54535c 	mrrcpl	3, 5, r5, r4, cr12
     308:	334d5453 	movtcc	r5, #54355	; 0xd453
     30c:	62754332 	rsbsvs	r4, r5, #-939524096	; 0xc8000000
     310:	45444965 	strbmi	r4, [r4, #-2405]	; 0xfffff69b
     314:	342e315f 	strtcc	r3, [lr], #-351	; 0xfffffea1
     318:	535c302e 	cmppl	ip, #46	; 0x2e
     31c:	32334d54 	eorscc	r4, r3, #84, 26	; 0x1500
     320:	65627543 	strbvs	r7, [r2, #-1347]!	; 0xfffffabd
     324:	5c454449 	cfstrdpl	mvd4, [r5], {73}	; 0x49
     328:	67756c70 			; <UNDEFINED> instruction: 0x67756c70
     32c:	5c736e69 	ldclpl	14, cr6, [r3], #-420	; 0xfffffe5c
     330:	2e6d6f63 	cdpcs	15, 6, cr6, cr13, cr3, {3}
     334:	732e7473 			; <UNDEFINED> instruction: 0x732e7473
     338:	32336d74 	eorscc	r6, r3, #116, 26	; 0x1d00
     33c:	65627563 	strbvs	r7, [r2, #-1379]!	; 0xfffffa9d
     340:	6564692e 	strbvs	r6, [r4, #-2350]!	; 0xfffff6d2
     344:	75636d2e 	strbvc	r6, [r3, #-3374]!	; 0xfffff2d2
     348:	7478652e 	ldrbtvc	r6, [r8], #-1326	; 0xfffffad2
     34c:	616e7265 	cmnvs	lr, r5, ror #4
     350:	6f6f746c 	svcvs	0x006f746c
     354:	672e736c 	strvs	r7, [lr, -ip, ror #6]!
     358:	742d756e 	strtvc	r7, [sp], #-1390	; 0xfffffa92
     35c:	736c6f6f 	cmnvc	ip, #444	; 0x1bc
     360:	726f662d 	rsbvc	r6, pc, #47185920	; 0x2d00000
     364:	6d74732d 	ldclvs	3, cr7, [r4, #-180]!	; 0xffffff4c
     368:	312e3233 			; <UNDEFINED> instruction: 0x312e3233
     36c:	2e332e31 	mrccs	14, 1, r2, cr3, cr1, {1}
     370:	316c6572 	smccc	50770	; 0xc652
     374:	6e69772e 	cdpvs	7, 6, cr7, cr9, cr14, {1}
     378:	315f3233 	cmpcc	pc, r3, lsr r2	; <UNPREDICTABLE>
     37c:	312e312e 			; <UNDEFINED> instruction: 0x312e312e
     380:	322e3030 	eorcc	r3, lr, #48	; 0x30
     384:	30333230 	eorscc	r3, r3, r0, lsr r2
     388:	31343139 	teqcc	r4, r9, lsr r1
     38c:	5c353332 	ldcpl	3, cr3, [r5], #-200	; 0xffffff38
     390:	6c6f6f74 	stclvs	15, cr6, [pc], #-464	; 1c8 <_Min_Heap_Size-0x38>
     394:	69625c73 	stmdbvs	r2!, {r0, r1, r4, r5, r6, sl, fp, ip, lr}^
     398:	2e2e2f6e 	cdpcs	15, 2, cr2, cr14, cr14, {3}
     39c:	6d72612f 	ldfvse	f6, [r2, #-188]!	; 0xffffff44
     3a0:	6e6f6e2d 	cdpvs	14, 6, cr6, cr15, cr13, {1}
     3a4:	61652d65 	cmnvs	r5, r5, ror #26
     3a8:	692f6962 	stmdbvs	pc!, {r1, r5, r6, r8, fp, sp, lr}	; <UNPREDICTABLE>
     3ac:	756c636e 	strbvc	r6, [ip, #-878]!	; 0xfffffc92
     3b0:	6e2f6564 	cfsh64vs	mvdx6, mvdx15, #52
     3b4:	696c7765 	stmdbvs	ip!, {r0, r2, r5, r6, r8, r9, sl, ip, sp, lr}^
     3b8:	616e2d62 	cmnvs	lr, r2, ror #26
     3bc:	43006f6e 	movwmi	r6, #3950	; 0xf6e
     3c0:	54535c3a 	ldrbpl	r5, [r3], #-3130	; 0xfffff3c6
     3c4:	4d54535c 	ldclmi	3, cr5, [r4, #-368]	; 0xfffffe90
     3c8:	75433233 	strbvc	r3, [r3, #-563]	; 0xfffffdcd
     3cc:	44496562 	strbmi	r6, [r9], #-1378	; 0xfffffa9e
     3d0:	2e315f45 	cdpcs	15, 3, cr5, cr1, cr5, {2}
     3d4:	5c302e34 	ldcpl	14, cr2, [r0], #-208	; 0xffffff30
     3d8:	334d5453 	movtcc	r5, #54355	; 0xd453
     3dc:	62754332 	rsbsvs	r4, r5, #-939524096	; 0xc8000000
     3e0:	45444965 	strbmi	r4, [r4, #-2405]	; 0xfffff69b
     3e4:	756c705c 	strbvc	r7, [ip, #-92]!	; 0xffffffa4
     3e8:	736e6967 	cmnvc	lr, #1687552	; 0x19c000
     3ec:	6d6f635c 	stclvs	3, cr6, [pc, #-368]!	; 284 <_Min_Heap_Size+0x84>
     3f0:	2e74732e 	cdpcs	3, 7, cr7, cr4, cr14, {1}
     3f4:	336d7473 	cmncc	sp, #1929379840	; 0x73000000
     3f8:	62756332 	rsbsvs	r6, r5, #-939524096	; 0xc8000000
     3fc:	64692e65 	strbtvs	r2, [r9], #-3685	; 0xfffff19b
     400:	636d2e65 	cmnvs	sp, #1616	; 0x650
     404:	78652e75 	stmdavc	r5!, {r0, r2, r4, r5, r6, r9, sl, fp, sp}^
     408:	6e726574 	mrcvs	5, 3, r6, cr2, cr4, {3}
     40c:	6f746c61 	svcvs	0x00746c61
     410:	2e736c6f 	cdpcs	12, 7, cr6, cr3, cr15, {3}
     414:	2d756e67 	ldclcs	14, cr6, [r5, #-412]!	; 0xfffffe64
     418:	6c6f6f74 	stclvs	15, cr6, [pc], #-464	; 250 <_Min_Heap_Size+0x50>
     41c:	6f662d73 	svcvs	0x00662d73
     420:	74732d72 	ldrbtvc	r2, [r3], #-3442	; 0xfffff28e
     424:	2e32336d 	cdpcs	3, 3, cr3, cr2, cr13, {3}
     428:	332e3131 			; <UNDEFINED> instruction: 0x332e3131
     42c:	6c65722e 	sfmvs	f7, 2, [r5], #-184	; 0xffffff48
     430:	69772e31 	ldmdbvs	r7!, {r0, r4, r5, r9, sl, fp, sp}^
     434:	5f32336e 	svcpl	0x0032336e
     438:	2e312e31 	mrccs	14, 1, r2, cr1, cr1, {1}
     43c:	2e303031 	mrccs	0, 1, r3, cr0, cr1, {1}
     440:	33323032 	teqcc	r2, #50	; 0x32
     444:	34313930 	ldrtcc	r3, [r1], #-2352	; 0xfffff6d0
     448:	35333231 	ldrcc	r3, [r3, #-561]!	; 0xfffffdcf
     44c:	6f6f745c 	svcvs	0x006f745c
     450:	625c736c 	subsvs	r7, ip, #108, 6	; 0xb0000001
     454:	2e2f6e69 	cdpcs	14, 2, cr6, cr15, cr9, {3}
     458:	696c2f2e 	stmdbvs	ip!, {r1, r2, r3, r5, r8, r9, sl, fp, sp}^
     45c:	63672f62 	cmnvs	r7, #392	; 0x188
     460:	72612f63 	rsbvc	r2, r1, #396	; 0x18c
     464:	6f6e2d6d 	svcvs	0x006e2d6d
     468:	652d656e 	strvs	r6, [sp, #-1390]!	; 0xfffffa92
     46c:	2f696261 	svccs	0x00696261
     470:	332e3131 			; <UNDEFINED> instruction: 0x332e3131
     474:	692f312e 	stmdbvs	pc!, {r1, r2, r3, r5, r8, ip, sp}	; <UNPREDICTABLE>
     478:	756c636e 	strbvc	r6, [ip, #-878]!	; 0xfffffc92
     47c:	00006564 	andeq	r6, r0, r4, ror #10
     480:	336d7473 	cmncc	sp, #1929379840	; 0x73000000
     484:	30316632 	eorscc	r6, r1, r2, lsr r6
     488:	5f386333 	svcpl	0x00386333
     48c:	49545845 	ldmdbmi	r4, {r0, r2, r6, fp, ip, lr}^
     490:	0100632e 	tsteq	r0, lr, lsr #6
     494:	645f0000 	ldrbvs	r0, [pc], #-0	; 49c <_Min_Stack_Size+0x9c>
     498:	75616665 	strbvc	r6, [r1, #-1637]!	; 0xfffff99b
     49c:	745f746c 	ldrbvc	r7, [pc], #-1132	; 4a4 <_Min_Stack_Size+0xa4>
     4a0:	73657079 	cmnvc	r5, #121	; 0x79
     4a4:	0200682e 	andeq	r6, r0, #3014656	; 0x2e0000
     4a8:	735f0000 	cmpvc	pc, #0
     4ac:	6e696474 	mcrvs	4, 3, r6, cr9, cr4, {3}
     4b0:	00682e74 	rsbeq	r2, r8, r4, ror lr
     4b4:	73000003 	movwvc	r0, #3
     4b8:	32336d74 	eorscc	r6, r3, #116, 26	; 0x1d00
     4bc:	33303166 	teqcc	r0, #-2147483623	; 0x80000019
     4c0:	682e3878 	stmdavs	lr!, {r3, r4, r5, r6, fp, ip, sp}
     4c4:	00000400 	andeq	r0, r0, r0, lsl #8
     4c8:	336d7473 	cmncc	sp, #1929379840	; 0x73000000
     4cc:	30316632 	eorscc	r6, r1, r2, lsr r6
     4d0:	5f386333 	svcpl	0x00386333
     4d4:	4f495047 	svcmi	0x00495047
     4d8:	0400682e 	streq	r6, [r0], #-2094	; 0xfffff7d2
     4dc:	74730000 	ldrbtvc	r0, [r3], #-0
     4e0:	6632336d 	ldrtvs	r3, [r2], -sp, ror #6
     4e4:	63333031 	teqvs	r3, #49	; 0x31
     4e8:	58455f38 	stmdapl	r5, {r3, r4, r5, r8, r9, sl, fp, ip, lr}^
     4ec:	682e4954 	stmdavs	lr!, {r2, r4, r6, r8, fp, lr}
     4f0:	00000400 	andeq	r0, r0, r0, lsl #8
     4f4:	6c647473 	cfstrdvs	mvd7, [r4], #-460	; 0xfffffe34
     4f8:	682e6269 	stmdavs	lr!, {r0, r3, r5, r6, r9, sp, lr}
     4fc:	00000500 	andeq	r0, r0, r0, lsl #10
     500:	65656569 	strbvs	r6, [r5, #-1385]!	; 0xfffffa97
     504:	682e7066 	stmdavs	lr!, {r1, r2, r5, r6, ip, sp, lr}
     508:	00000200 	andeq	r0, r0, r0, lsl #4
     50c:	736e615f 	cmnvc	lr, #-1073741801	; 0xc0000017
     510:	00682e69 	rsbeq	r2, r8, r9, ror #28
     514:	6e000005 	cdpvs	0, 0, cr0, cr0, cr5, {0}
     518:	696c7765 	stmdbvs	ip!, {r0, r2, r5, r6, r8, r9, sl, ip, sp, lr}^
     51c:	00682e62 	rsbeq	r2, r8, r2, ror #28
     520:	5f000006 	svcpl	0x00000006
     524:	6c77656e 	cfldr64vs	mvdx6, [r7], #-440	; 0xfffffe48
     528:	765f6269 	ldrbvc	r6, [pc], -r9, ror #4
     52c:	69737265 	ldmdbvs	r3!, {r0, r2, r5, r6, r9, ip, sp, lr}^
     530:	682e6e6f 	stmdavs	lr!, {r0, r1, r2, r3, r5, r6, r9, sl, fp, sp, lr}
     534:	00000500 	andeq	r0, r0, r0, lsl #10
     538:	666e6f63 	strbtvs	r6, [lr], -r3, ror #30
     53c:	682e6769 	stmdavs	lr!, {r0, r3, r5, r6, r8, r9, sl, sp, lr}
     540:	00000300 	andeq	r0, r0, r0, lsl #6
     544:	74616566 	strbtvc	r6, [r1], #-1382	; 0xfffffa9a
     548:	73657275 	cmnvc	r5, #1342177287	; 0x50000007
     54c:	0300682e 	movweq	r6, #2094	; 0x82e
     550:	74730000 	ldrbtvc	r0, [r3], #-0
     554:	66656464 	strbtvs	r6, [r5], -r4, ror #8
     558:	0700682e 	streq	r6, [r0, -lr, lsr #16]
     55c:	65720000 	ldrbvs	r0, [r2, #-0]!
     560:	2e746e65 	cdpcs	14, 7, cr6, cr4, cr5, {3}
     564:	00030068 	andeq	r0, r3, r8, rrx
     568:	79745f00 	ldmdbvc	r4!, {r8, r9, sl, fp, ip, lr}^
     56c:	2e736570 	mrccs	5, 3, r6, cr3, cr0, {3}
     570:	00030068 	andeq	r0, r3, r8, rrx
     574:	79745f00 	ldmdbvc	r4!, {r8, r9, sl, fp, ip, lr}^
     578:	2e736570 	mrccs	5, 3, r6, cr3, cr0, {3}
     57c:	00020068 	andeq	r0, r2, r8, rrx
     580:	636f6c00 	cmnvs	pc, #0, 24
     584:	00682e6b 	rsbeq	r2, r8, fp, ror #28
     588:	61000003 	tstvs	r0, r3
     58c:	72657373 	rsbvc	r7, r5, #-872415231	; 0xcc000001
     590:	00682e74 	rsbeq	r2, r8, r4, ror lr
     594:	63000005 	movwvs	r0, #5
     598:	73666564 	cmnvc	r6, #100, 10	; 0x19000000
     59c:	0300682e 	movweq	r6, #2094	; 0x82e
     5a0:	74730000 	ldrbtvc	r0, [r3], #-0
     5a4:	62696c64 	rsbvs	r6, r9, #100, 24	; 0x6400
     5a8:	0200682e 	andeq	r6, r0, #3014656	; 0x2e0000
     5ac:	6c610000 	stclvs	0, cr0, [r1], #-0
     5b0:	61636f6c 	cmnvs	r3, ip, ror #30
     5b4:	0500682e 	streq	r6, [r0, #-2094]	; 0xfffff7d2
     5b8:	74730000 	ldrbtvc	r0, [r3], #-0
     5bc:	746e6964 	strbtvc	r6, [lr], #-2404	; 0xfffff69c
     5c0:	0700682e 	streq	r6, [r0, -lr, lsr #16]
     5c4:	74730000 	ldrbtvc	r0, [r3], #-0
     5c8:	746e6964 	strbtvc	r6, [lr], #-2404	; 0xfffff69c
     5cc:	0500682e 	streq	r6, [r0, #-2094]	; 0xfffff7d2
     5d0:	695f0000 	ldmdbvs	pc, {}^	; <UNPREDICTABLE>
     5d4:	7573746e 	ldrbvc	r7, [r3, #-1134]!	; 0xfffffb92
     5d8:	00682e70 	rsbeq	r2, r8, r0, ror lr
     5dc:	00000003 	andeq	r0, r0, r3
     5e0:	05000105 	streq	r0, [r0, #-261]	; 0xfffffefb
     5e4:	00017002 	andeq	r7, r1, r2
     5e8:	01120308 	tsteq	r2, r8, lsl #6
     5ec:	05590205 	ldrbeq	r0, [r9, #-517]	; 0xfffffdfb
     5f0:	15270203 	strne	r0, [r7, #-515]!	; 0xfffffdfd
     5f4:	22672267 	rsbcs	r2, r7, #1879048198	; 0x70000006
     5f8:	22672267 	rsbcs	r2, r7, #1879048198	; 0x70000006
     5fc:	27672667 	strbcs	r2, [r7, -r7, ror #12]!
     600:	22010567 	andcs	r0, r1, #432013312	; 0x19c00000
     604:	01000902 	tsteq	r0, r2, lsl #18
     608:	00010501 	andeq	r0, r1, r1, lsl #10
     60c:	023c0205 	eorseq	r0, ip, #1342177280	; 0x50000000
     610:	37030800 	strcc	r0, [r3, -r0, lsl #16]
     614:	59020501 	stmdbpl	r2, {r0, r8, sl}
     618:	27020405 	strcs	r0, [r2, -r5, lsl #8]
     61c:	67226715 			; <UNDEFINED> instruction: 0x67226715
     620:	67226722 	strvs	r6, [r2, -r2, lsr #14]!
     624:	67266722 	strvs	r6, [r6, -r2, lsr #14]!
     628:	01056727 	tsteq	r5, r7, lsr #14
     62c:	00090222 	andeq	r0, r9, r2, lsr #4
     630:	01050101 	tsteq	r5, r1, lsl #2
     634:	08020500 	stmdaeq	r2, {r8, sl}
     638:	03080003 	movweq	r0, #32771	; 0x8003
     63c:	050100dc 	streq	r0, [r1, #-220]	; 0xffffff24
     640:	18054e2f 	stmdane	r5, {r0, r1, r2, r3, r5, r9, sl, fp, lr}
     644:	2113052e 	tstcs	r3, lr, lsr #10
     648:	052f0205 	streq	r0, [pc, #-517]!	; 44b <_Min_Stack_Size+0x4b>
     64c:	0a058633 	beq	161f20 <_Min_Stack_Size+0x161b20>
     650:	3d37052e 	cfldr32cc	mvfx0, [r7, #-184]!	; 0xffffff48
     654:	052e0a05 	streq	r0, [lr, #-2565]!	; 0xfffff5fb
     658:	2b056922 	blcs	15aae8 <_Min_Stack_Size+0x15a6e8>
     65c:	4a250558 	bmi	941bc4 <_Min_Stack_Size+0x9417c4>
     660:	682e2205 	stmdavs	lr!, {r0, r2, r9, sp}
     664:	05582705 	ldrbeq	r2, [r8, #-1797]	; 0xfffff8fb
     668:	27052e5f 	smlsdcs	r5, pc, lr, r2	; <UNPREDICTABLE>
     66c:	01040200 	mrseq	r0, R12_usr
     670:	005f053c 	subseq	r0, pc, ip, lsr r5	; <UNPREDICTABLE>
     674:	2e010402 	cdpcs	4, 0, cr0, cr1, cr2, {0}
     678:	02002705 	andeq	r2, r0, #1310720	; 0x140000
     67c:	053c0304 	ldreq	r0, [ip, #-772]!	; 0xfffffcfc
     680:	0402005f 	streq	r0, [r2], #-95	; 0xffffffa1
     684:	27052e03 	strcs	r2, [r5, -r3, lsl #28]
     688:	05040200 	streq	r0, [r4, #-512]	; 0xfffffe00
     68c:	005f053c 	subseq	r0, pc, ip, lsr r5	; <UNPREDICTABLE>
     690:	2e050402 	cdpcs	4, 0, cr0, cr5, cr2, {0}
     694:	07040200 	streq	r0, [r4, -r0, lsl #4]
     698:	02003c06 	andeq	r3, r0, #1536	; 0x600
     69c:	002e0804 	eoreq	r0, lr, r4, lsl #16
     6a0:	2e060402 	cdpcs	4, 0, cr0, cr6, cr2, {0}
     6a4:	04040200 	streq	r0, [r4], #-512	; 0xfffffe00
     6a8:	0402002e 	streq	r0, [r2], #-46	; 0xffffffd2
     6ac:	65052e02 	strvs	r2, [r5, #-3586]	; 0xfffff1fe
     6b0:	10040200 	andne	r0, r4, r0, lsl #4
     6b4:	22052006 	andcs	r2, r5, #6
     6b8:	10040200 	andne	r0, r4, r0, lsl #4
     6bc:	000d053c 	andeq	r0, sp, ip, lsr r5
     6c0:	6a100402 	bvs	4016d0 <_Min_Stack_Size+0x4012d0>
     6c4:	02002c05 	andeq	r2, r0, #1280	; 0x500
     6c8:	052e1004 	streq	r1, [lr, #-4]!
     6cc:	04020014 	streq	r0, [r2], #-20	; 0xffffffec
     6d0:	10053c10 	andne	r3, r5, r0, lsl ip
     6d4:	10040200 	andne	r0, r4, r0, lsl #4
     6d8:	000d052e 	andeq	r0, sp, lr, lsr #10
     6dc:	2e100402 	cfmulscs	mvf0, mvf0, mvf2
     6e0:	10040200 	andne	r0, r4, r0, lsl #4
     6e4:	002c053d 	eoreq	r0, ip, sp, lsr r5
     6e8:	2e100402 	cfmulscs	mvf0, mvf0, mvf2
     6ec:	02001405 	andeq	r1, r0, #83886080	; 0x5000000
     6f0:	053c1004 	ldreq	r1, [ip, #-4]!
     6f4:	04020010 	streq	r0, [r2], #-16
     6f8:	0d052e10 	stceq	14, cr2, [r5, #-64]	; 0xffffffc0
     6fc:	10040200 	andne	r0, r4, r0, lsl #4
     700:	0010052e 	andseq	r0, r0, lr, lsr #10
     704:	3e100402 	cfmulscc	mvf0, mvf0, mvf2
     708:	02000405 	andeq	r0, r0, #83886080	; 0x5000000
     70c:	052e1004 	streq	r1, [lr, #-4]!
     710:	2c05300e 	stccs	0, cr3, [r5], {14}
     714:	3c14052e 	cfldr32cc	mvfx0, [r4], {46}	; 0x2e
     718:	053c0e05 	ldreq	r0, [ip, #-3589]!	; 0xfffff1fb
     71c:	09054c15 	stmdbeq	r5, {r0, r2, r4, sl, fp, lr}
     720:	300e052e 	andcc	r0, lr, lr, lsr #10
     724:	052e2c05 	streq	r2, [lr, #-3077]!	; 0xfffff3fb
     728:	0e053c14 	mcreq	12, 0, r3, cr5, cr4, {0}
     72c:	4c15053c 	cfldr32mi	mvfx0, [r5], {60}	; 0x3c
     730:	052e0905 	streq	r0, [lr, #-2309]!	; 0xfffff6fb
     734:	2c05300e 	stccs	0, cr3, [r5], {14}
     738:	3c14052e 	cfldr32cc	mvfx0, [r4], {46}	; 0x2e
     73c:	3d3c0e05 	ldccc	14, cr0, [ip, #-20]!	; 0xffffffec
     740:	052e2c05 	streq	r2, [lr, #-3077]!	; 0xfffff3fb
     744:	0e053c14 	mcreq	12, 0, r3, cr5, cr4, {0}
     748:	4127053c 			; <UNDEFINED> instruction: 0x4127053c
     74c:	053c4b05 	ldreq	r4, [ip, #-2821]!	; 0xfffff4fb
     750:	10052e3e 	andne	r2, r5, lr, lsr lr
     754:	2e040540 	cfsh32cs	mvfx0, mvfx4, #32
     758:	05300d05 	ldreq	r0, [r0, #-3333]!	; 0xfffff2fb
     75c:	13052e2b 	movwne	r2, #24107	; 0x5e2b
     760:	3c0d053c 	cfstr32cc	mvfx0, [sp], {60}	; 0x3c
     764:	053d0305 	ldreq	r0, [sp, #-773]!	; 0xfffffcfb
     768:	0d055f01 	stceq	15, cr5, [r5, #-4]
     76c:	2e2c051d 	mcrcs	5, 1, r0, cr12, cr13, {0}
     770:	053c1405 	ldreq	r1, [ip, #-1029]!	; 0xfffffbfb
     774:	0d052e10 	stceq	14, cr2, [r5, #-64]	; 0xffffffc0
     778:	3d03052e 	cfstr32cc	mvfx0, [r3, #-184]	; 0xffffff48
     77c:	025a0105 	subseq	r0, sl, #1073741825	; 0x40000001
     780:	01010012 	tsteq	r1, r2, lsl r0
     784:	05000105 	streq	r0, [r0, #-261]	; 0xfffffefb
     788:	00000002 	andeq	r0, r0, r2
     78c:	019b0300 	orrseq	r0, fp, r0, lsl #6
     790:	2f060501 	svccs	0x00060501
     794:	05200c05 	streq	r0, [r0, #-3077]!	; 0xfffff3fb
     798:	0c052f06 	stceq	15, cr2, [r5], {6}
     79c:	2f060520 	svccs	0x00060520
     7a0:	05200d05 	streq	r0, [r0, #-3333]!	; 0xfffff2fb
     7a4:	0d052f06 	stceq	15, cr2, [r5, #-24]	; 0xffffffe8
     7a8:	2f060520 	svccs	0x00060520
     7ac:	05200e05 	streq	r0, [r0, #-3589]!	; 0xfffff1fb
     7b0:	0b052f06 	bleq	14c3d0 <_Min_Stack_Size+0x14bfd0>
     7b4:	3f020520 	svccc	0x00020520
     7b8:	67676767 	strbvs	r6, [r7, -r7, ror #14]!
     7bc:	01056767 	tsteq	r5, r7, ror #14
     7c0:	000b0267 	andeq	r0, fp, r7, ror #4
     7c4:	01050101 	tsteq	r5, r1, lsl #2
     7c8:	e0020500 	and	r0, r2, r0, lsl #10
     7cc:	03080004 	movweq	r0, #32772	; 0x8004
     7d0:	050101b8 	streq	r0, [r1, #-440]	; 0xfffffe48
     7d4:	01054b02 	tsteq	r5, r2, lsl #22
     7d8:	0004023d 	andeq	r0, r4, sp, lsr r2
     7dc:	01050101 	tsteq	r5, r1, lsl #2
     7e0:	00020500 	andeq	r0, r2, r0, lsl #10
     7e4:	03000000 	movweq	r0, #0
     7e8:	4c0101c7 	stfmis	f0, [r1], {199}	; 0xc7
     7ec:	01000502 	tsteq	r0, r2, lsl #10
     7f0:	00010501 	andeq	r0, r1, r1, lsl #10
     7f4:	04f80205 	ldrbteq	r0, [r8], #517	; 0x205
     7f8:	d1030800 	tstle	r3, r0, lsl #16
     7fc:	0b050101 	bleq	140c08 <_Min_Stack_Size+0x140808>
     800:	6711052f 	ldrvs	r0, [r1, -pc, lsr #10]
     804:	052e0205 	streq	r0, [lr, #-517]!	; 0xfffffdfb
     808:	07022101 	streq	r2, [r2, -r1, lsl #2]
     80c:	05010100 	streq	r0, [r1, #-256]	; 0xffffff00
     810:	02050001 	andeq	r0, r5, #1
     814:	0800051c 	stmdaeq	r0, {r2, r3, r4, r8, sl}
     818:	0101d603 	tsteq	r1, r3, lsl #12
     81c:	052f0b05 	streq	r0, [pc, #-2821]!	; fffffd1f <_estack+0xdfffad1f>
     820:	02056711 	andeq	r6, r5, #4456448	; 0x440000
     824:	2101052e 	tstcs	r1, lr, lsr #10
     828:	01000702 	tsteq	r0, r2, lsl #14
     82c:	00010501 	andeq	r0, r1, r1, lsl #10
     830:	05400205 	strbeq	r0, [r0, #-517]	; 0xfffffdfb
     834:	db030800 	blle	c283c <_Min_Stack_Size+0xc243c>
     838:	0b050101 	bleq	140c44 <_Min_Stack_Size+0x140844>
     83c:	6711052f 	ldrvs	r0, [r1, -pc, lsr #10]
     840:	052e0205 	streq	r0, [lr, #-517]!	; 0xfffffdfb
     844:	07022101 	streq	r2, [r2, -r1, lsl #2]
     848:	05010100 	streq	r0, [r1, #-256]	; 0xffffff00
     84c:	02050001 	andeq	r0, r5, #1
     850:	08000564 	stmdaeq	r0, {r2, r5, r6, r8, sl}
     854:	0101e003 	tsteq	r1, r3
     858:	052f0b05 	streq	r0, [pc, #-2821]!	; fffffd5b <_estack+0xdfffad5b>
     85c:	02056711 	andeq	r6, r5, #4456448	; 0x440000
     860:	2101052e 	tstcs	r1, lr, lsr #10
     864:	01000702 	tsteq	r0, r2, lsl #14
     868:	00010501 	andeq	r0, r1, r1, lsl #10
     86c:	05880205 	streq	r0, [r8, #517]	; 0x205
     870:	e5030800 	str	r0, [r3, #-2048]	; 0xfffff800
     874:	0b050101 	bleq	140c80 <_Min_Stack_Size+0x140880>
     878:	6711052f 	ldrvs	r0, [r1, -pc, lsr #10]
     87c:	052e0205 	streq	r0, [lr, #-517]!	; 0xfffffdfb
     880:	07022101 	streq	r2, [r2, -r1, lsl #2]
     884:	05010100 	streq	r0, [r1, #-256]	; 0xffffff00
     888:	02050001 	andeq	r0, r5, #1
     88c:	080005ac 	stmdaeq	r0, {r2, r3, r5, r7, r8, sl}
     890:	0101ea03 	tsteq	r1, r3, lsl #20
     894:	052f0905 	streq	r0, [pc, #-2309]!	; ffffff97 <_estack+0xdfffaf97>
     898:	04052e0e 	streq	r2, [r5], #-3598	; 0xfffff1f2
     89c:	300c052e 	andcc	r0, ip, lr, lsr #10
     8a0:	05671205 	strbeq	r1, [r7, #-517]!	; 0xfffffdfb
     8a4:	09052e03 	stmdbeq	r5, {r0, r1, r9, sl, fp, sp}
     8a8:	2e0e0522 	cfsh32cs	mvfx0, mvfx14, #18
     8ac:	052e0405 	streq	r0, [lr, #-1029]!	; 0xfffffbfb
     8b0:	04020022 	streq	r0, [r2], #-34	; 0xffffffde
     8b4:	3c052e01 	stccc	14, cr2, [r5], {1}
     8b8:	01040200 	mrseq	r0, R12_usr
     8bc:	002d0566 	eoreq	r0, sp, r6, ror #10
     8c0:	2e010402 	cdpcs	4, 0, cr0, cr1, cr2, {0}
     8c4:	05210905 	streq	r0, [r1, #-2309]!	; 0xfffff6fb
     8c8:	04052e0e 	streq	r2, [r5], #-3598	; 0xfffff1f2
     8cc:	0022052e 	eoreq	r0, r2, lr, lsr #10
     8d0:	2e010402 	cdpcs	4, 0, cr0, cr1, cr2, {0}
     8d4:	02003c05 	andeq	r3, r0, #1280	; 0x500
     8d8:	05660104 	strbeq	r0, [r6, #-260]!	; 0xfffffefc
     8dc:	0402002d 	streq	r0, [r2], #-45	; 0xffffffd3
     8e0:	09052e01 	stmdbeq	r5, {r0, r9, sl, fp, sp}
     8e4:	2e0e0521 	cfsh32cs	mvfx0, mvfx14, #17
     8e8:	052e0405 	streq	r0, [lr, #-1029]!	; 0xfffffbfb
     8ec:	04020022 	streq	r0, [r2], #-34	; 0xffffffde
     8f0:	3c052e01 	stccc	14, cr2, [r5], {1}
     8f4:	01040200 	mrseq	r0, R12_usr
     8f8:	002d0566 	eoreq	r0, sp, r6, ror #10
     8fc:	2e010402 	cdpcs	4, 0, cr0, cr1, cr2, {0}
     900:	05210905 	streq	r0, [r1, #-2309]!	; 0xfffff6fb
     904:	04052e0e 	streq	r2, [r5], #-3598	; 0xfffff1f2
     908:	0022052e 	eoreq	r0, r2, lr, lsr #10
     90c:	2e010402 	cdpcs	4, 0, cr0, cr1, cr2, {0}
     910:	02003c05 	andeq	r3, r0, #1280	; 0x500
     914:	05660104 	strbeq	r0, [r6, #-260]!	; 0xfffffefc
     918:	0402002d 	streq	r0, [r2], #-45	; 0xffffffd3
     91c:	01052e01 	tsteq	r5, r1, lsl #28
     920:	00070221 	andeq	r0, r7, r1, lsr #4
     924:	01050101 	tsteq	r5, r1, lsl #2
     928:	54020500 	strpl	r0, [r2], #-1280	; 0xfffffb00
     92c:	03080006 	movweq	r0, #32774	; 0x8006
     930:	050101f6 	streq	r0, [r1, #-502]	; 0xfffffe0a
     934:	0e052f09 	cdpeq	15, 0, cr2, cr5, cr9, {0}
     938:	2e04052e 	cfsh32cs	mvfx0, mvfx4, #30
     93c:	02002305 	andeq	r2, r0, #335544320	; 0x14000000
     940:	052e0104 	streq	r0, [lr, #-260]!	; 0xfffffefc
     944:	0402003e 	streq	r0, [r2], #-62	; 0xffffffc2
     948:	2f056601 	svccs	0x00056601
     94c:	01040200 	mrseq	r0, R12_usr
     950:	2109052e 	tstcs	r9, lr, lsr #10
     954:	052e0e05 	streq	r0, [lr, #-3589]!	; 0xfffff1fb
     958:	23052e04 	movwcs	r2, #24068	; 0x5e04
     95c:	01040200 	mrseq	r0, R12_usr
     960:	003e052e 	eorseq	r0, lr, lr, lsr #10
     964:	66010402 	strvs	r0, [r1], -r2, lsl #8
     968:	02002f05 	andeq	r2, r0, #5, 30
     96c:	052e0104 	streq	r0, [lr, #-260]!	; 0xfffffefc
     970:	0e052109 	adfeqs	f2, f5, #1.0
     974:	2e04052e 	cfsh32cs	mvfx0, mvfx4, #30
     978:	02002305 	andeq	r2, r0, #335544320	; 0x14000000
     97c:	052e0104 	streq	r0, [lr, #-260]!	; 0xfffffefc
     980:	0402003e 	streq	r0, [r2], #-62	; 0xffffffc2
     984:	2f056601 	svccs	0x00056601
     988:	01040200 	mrseq	r0, R12_usr
     98c:	2109052e 	tstcs	r9, lr, lsr #10
     990:	052e0e05 	streq	r0, [lr, #-3589]!	; 0xfffff1fb
     994:	23052e04 	movwcs	r2, #24068	; 0x5e04
     998:	01040200 	mrseq	r0, R12_usr
     99c:	003e052e 	eorseq	r0, lr, lr, lsr #10
     9a0:	66010402 	strvs	r0, [r1], -r2, lsl #8
     9a4:	02002f05 	andeq	r2, r0, #5, 30
     9a8:	052e0104 	streq	r0, [lr, #-260]!	; 0xfffffefc
     9ac:	0e052109 	adfeqs	f2, f5, #1.0
     9b0:	2e04052e 	cfsh32cs	mvfx0, mvfx4, #30
     9b4:	02002305 	andeq	r2, r0, #335544320	; 0x14000000
     9b8:	052e0104 	streq	r0, [lr, #-260]!	; 0xfffffefc
     9bc:	0402003e 	streq	r0, [r2], #-62	; 0xffffffc2
     9c0:	2f056601 	svccs	0x00056601
     9c4:	01040200 	mrseq	r0, R12_usr
     9c8:	2109052e 	tstcs	r9, lr, lsr #10
     9cc:	052e0e05 	streq	r0, [lr, #-3589]!	; 0xfffff1fb
     9d0:	23052e04 	movwcs	r2, #24068	; 0x5e04
     9d4:	01040200 	mrseq	r0, R12_usr
     9d8:	003e052e 	eorseq	r0, lr, lr, lsr #10
     9dc:	66010402 	strvs	r0, [r1], -r2, lsl #8
     9e0:	02002f05 	andeq	r2, r0, #5, 30
     9e4:	052e0104 	streq	r0, [lr, #-260]!	; 0xfffffefc
     9e8:	06022101 	streq	r2, [r2], -r1, lsl #2
     9ec:	1d010100 	stfnes	f0, [r1, #-0]
     9f0:	03000008 	movweq	r0, #8
     9f4:	0005c000 	andeq	ip, r5, r0
     9f8:	fb010200 	blx	41202 <_Min_Stack_Size+0x40e02>
     9fc:	01000d0e 	tsteq	r0, lr, lsl #26
     a00:	00010101 	andeq	r0, r1, r1, lsl #2
     a04:	00010000 	andeq	r0, r1, r0
     a08:	2e2e0100 	sufcse	f0, f6, f0
     a0c:	636e492f 	cmnvs	lr, #770048	; 0xbc000
     a10:	636e492f 	cmnvs	lr, #770048	; 0xbc000
     a14:	5c3a4300 	ldcpl	3, cr4, [sl], #-0
     a18:	535c5453 	cmppl	ip, #1392508928	; 0x53000000
     a1c:	32334d54 	eorscc	r4, r3, #84, 26	; 0x1500
     a20:	65627543 	strbvs	r7, [r2, #-1347]!	; 0xfffffabd
     a24:	5f454449 	svcpl	0x00454449
     a28:	2e342e31 	mrccs	14, 1, r2, cr4, cr1, {1}
     a2c:	54535c30 	ldrbpl	r5, [r3], #-3120	; 0xfffff3d0
     a30:	4332334d 	teqmi	r2, #872415233	; 0x34000001
     a34:	49656275 	stmdbmi	r5!, {r0, r2, r4, r5, r6, r9, sp, lr}^
     a38:	705c4544 	subsvc	r4, ip, r4, asr #10
     a3c:	6967756c 	stmdbvs	r7!, {r2, r3, r5, r6, r8, sl, ip, sp, lr}^
     a40:	635c736e 	cmpvs	ip, #-1207959551	; 0xb8000001
     a44:	732e6d6f 			; <UNDEFINED> instruction: 0x732e6d6f
     a48:	74732e74 	ldrbtvc	r2, [r3], #-3700	; 0xfffff18c
     a4c:	6332336d 	teqvs	r2, #-1275068415	; 0xb4000001
     a50:	2e656275 	mcrcs	2, 3, r6, cr5, cr5, {3}
     a54:	2e656469 	cdpcs	4, 6, cr6, cr5, cr9, {3}
     a58:	2e75636d 	cdpcs	3, 7, cr6, cr5, cr13, {3}
     a5c:	65747865 	ldrbvs	r7, [r4, #-2149]!	; 0xfffff79b
     a60:	6c616e72 	stclvs	14, cr6, [r1], #-456	; 0xfffffe38
     a64:	6c6f6f74 	stclvs	15, cr6, [pc], #-464	; 89c <_Min_Stack_Size+0x49c>
     a68:	6e672e73 	mcrvs	14, 3, r2, cr7, cr3, {3}
     a6c:	6f742d75 	svcvs	0x00742d75
     a70:	2d736c6f 	ldclcs	12, cr6, [r3, #-444]!	; 0xfffffe44
     a74:	2d726f66 	ldclcs	15, cr6, [r2, #-408]!	; 0xfffffe68
     a78:	336d7473 	cmncc	sp, #1929379840	; 0x73000000
     a7c:	31312e32 	teqcc	r1, r2, lsr lr
     a80:	722e332e 	eorvc	r3, lr, #-1207959552	; 0xb8000000
     a84:	2e316c65 	cdpcs	12, 3, cr6, cr1, cr5, {3}
     a88:	336e6977 	cmncc	lr, #1949696	; 0x1dc000
     a8c:	2e315f32 	mrccs	15, 1, r5, cr1, cr2, {1}
     a90:	30312e31 	eorscc	r2, r1, r1, lsr lr
     a94:	30322e30 	eorscc	r2, r2, r0, lsr lr
     a98:	39303332 	ldmdbcc	r0!, {r1, r4, r5, r8, r9, ip, sp}
     a9c:	32313431 	eorscc	r3, r1, #822083584	; 0x31000000
     aa0:	745c3533 	ldrbvc	r3, [ip], #-1331	; 0xfffffacd
     aa4:	736c6f6f 	cmnvc	ip, #444	; 0x1bc
     aa8:	6e69625c 	mcrvs	2, 3, r6, cr9, cr12, {2}
     aac:	2f2e2e2f 	svccs	0x002e2e2f
     ab0:	2f62696c 	svccs	0x0062696c
     ab4:	2f636367 	svccs	0x00636367
     ab8:	2d6d7261 	sfmcs	f7, 2, [sp, #-388]!	; 0xfffffe7c
     abc:	656e6f6e 	strbvs	r6, [lr, #-3950]!	; 0xfffff092
     ac0:	6261652d 	rsbvs	r6, r1, #188743680	; 0xb400000
     ac4:	31312f69 	teqcc	r1, r9, ror #30
     ac8:	312e332e 			; <UNDEFINED> instruction: 0x312e332e
     acc:	2f2e2e2f 	svccs	0x002e2e2f
     ad0:	2e2f2e2e 	cdpcs	14, 2, cr2, cr15, cr14, {1}
     ad4:	2e2e2f2e 	cdpcs	15, 2, cr2, cr14, cr14, {1}
     ad8:	6d72612f 	ldfvse	f6, [r2, #-188]!	; 0xffffff44
     adc:	6e6f6e2d 	cdpvs	14, 6, cr6, cr15, cr13, {1}
     ae0:	61652d65 	cmnvs	r5, r5, ror #26
     ae4:	692f6962 	stmdbvs	pc!, {r1, r5, r6, r8, fp, sp, lr}	; <UNPREDICTABLE>
     ae8:	756c636e 	strbvc	r6, [ip, #-878]!	; 0xfffffc92
     aec:	6d2f6564 	cfstr32vs	mvfx6, [pc, #-400]!	; 964 <_Min_Stack_Size+0x564>
     af0:	69686361 	stmdbvs	r8!, {r0, r5, r6, r8, r9, sp, lr}^
     af4:	4300656e 	movwmi	r6, #1390	; 0x56e
     af8:	54535c3a 	ldrbpl	r5, [r3], #-3130	; 0xfffff3c6
     afc:	4d54535c 	ldclmi	3, cr5, [r4, #-368]	; 0xfffffe90
     b00:	75433233 	strbvc	r3, [r3, #-563]	; 0xfffffdcd
     b04:	44496562 	strbmi	r6, [r9], #-1378	; 0xfffffa9e
     b08:	2e315f45 	cdpcs	15, 3, cr5, cr1, cr5, {2}
     b0c:	5c302e34 	ldcpl	14, cr2, [r0], #-208	; 0xffffff30
     b10:	334d5453 	movtcc	r5, #54355	; 0xd453
     b14:	62754332 	rsbsvs	r4, r5, #-939524096	; 0xc8000000
     b18:	45444965 	strbmi	r4, [r4, #-2405]	; 0xfffff69b
     b1c:	756c705c 	strbvc	r7, [ip, #-92]!	; 0xffffffa4
     b20:	736e6967 	cmnvc	lr, #1687552	; 0x19c000
     b24:	6d6f635c 	stclvs	3, cr6, [pc, #-368]!	; 9bc <_Min_Stack_Size+0x5bc>
     b28:	2e74732e 	cdpcs	3, 7, cr7, cr4, cr14, {1}
     b2c:	336d7473 	cmncc	sp, #1929379840	; 0x73000000
     b30:	62756332 	rsbsvs	r6, r5, #-939524096	; 0xc8000000
     b34:	64692e65 	strbtvs	r2, [r9], #-3685	; 0xfffff19b
     b38:	636d2e65 	cmnvs	sp, #1616	; 0x650
     b3c:	78652e75 	stmdavc	r5!, {r0, r2, r4, r5, r6, r9, sl, fp, sp}^
     b40:	6e726574 	mrcvs	5, 3, r6, cr2, cr4, {3}
     b44:	6f746c61 	svcvs	0x00746c61
     b48:	2e736c6f 	cdpcs	12, 7, cr6, cr3, cr15, {3}
     b4c:	2d756e67 	ldclcs	14, cr6, [r5, #-412]!	; 0xfffffe64
     b50:	6c6f6f74 	stclvs	15, cr6, [pc], #-464	; 988 <_Min_Stack_Size+0x588>
     b54:	6f662d73 	svcvs	0x00662d73
     b58:	74732d72 	ldrbtvc	r2, [r3], #-3442	; 0xfffff28e
     b5c:	2e32336d 	cdpcs	3, 3, cr3, cr2, cr13, {3}
     b60:	332e3131 			; <UNDEFINED> instruction: 0x332e3131
     b64:	6c65722e 	sfmvs	f7, 2, [r5], #-184	; 0xffffff48
     b68:	69772e31 	ldmdbvs	r7!, {r0, r4, r5, r9, sl, fp, sp}^
     b6c:	5f32336e 	svcpl	0x0032336e
     b70:	2e312e31 	mrccs	14, 1, r2, cr1, cr1, {1}
     b74:	2e303031 	mrccs	0, 1, r3, cr0, cr1, {1}
     b78:	33323032 	teqcc	r2, #50	; 0x32
     b7c:	34313930 	ldrtcc	r3, [r1], #-2352	; 0xfffff6d0
     b80:	35333231 	ldrcc	r3, [r3, #-561]!	; 0xfffffdcf
     b84:	6f6f745c 	svcvs	0x006f745c
     b88:	625c736c 	subsvs	r7, ip, #108, 6	; 0xb0000001
     b8c:	2e2f6e69 	cdpcs	14, 2, cr6, cr15, cr9, {3}
     b90:	696c2f2e 	stmdbvs	ip!, {r1, r2, r3, r5, r8, r9, sl, fp, sp}^
     b94:	63672f62 	cmnvs	r7, #392	; 0x188
     b98:	72612f63 	rsbvc	r2, r1, #396	; 0x18c
     b9c:	6f6e2d6d 	svcvs	0x006e2d6d
     ba0:	652d656e 	strvs	r6, [sp, #-1390]!	; 0xfffffa92
     ba4:	2f696261 	svccs	0x00696261
     ba8:	332e3131 			; <UNDEFINED> instruction: 0x332e3131
     bac:	2e2f312e 	sufcsep	f3, f7, #0.5
     bb0:	2e2e2f2e 	cdpcs	15, 2, cr2, cr14, cr14, {1}
     bb4:	2f2e2e2f 	svccs	0x002e2e2f
     bb8:	612f2e2e 			; <UNDEFINED> instruction: 0x612f2e2e
     bbc:	6e2d6d72 	mcrvs	13, 1, r6, cr13, cr2, {3}
     bc0:	2d656e6f 	stclcs	14, cr6, [r5, #-444]!	; 0xfffffe44
     bc4:	69626165 	stmdbvs	r2!, {r0, r2, r5, r6, r8, sp, lr}^
     bc8:	636e692f 	cmnvs	lr, #770048	; 0xbc000
     bcc:	6564756c 	strbvs	r7, [r4, #-1388]!	; 0xfffffa94
     bd0:	7379732f 	cmnvc	r9, #-1140850688	; 0xbc000000
     bd4:	2f3a4400 	svccs	0x003a4400
     bd8:	645f736b 	ldrbvs	r7, [pc], #-875	; be0 <_Min_Stack_Size+0x7e0>
     bdc:	6f6c7069 	svcvs	0x006c7069
     be0:	552f616d 	strpl	r6, [pc, #-365]!	; a7b <_Min_Stack_Size+0x67b>
     be4:	7374696e 	cmnvc	r4, #1802240	; 0x1b8000
     be8:	696e552f 	stmdbvs	lr!, {r0, r1, r2, r3, r5, r8, sl, ip, lr}^
     bec:	34312074 	ldrtcc	r2, [r1], #-116	; 0xffffff8c
     bf0:	73654c2f 	cmnvc	r5, #12032	; 0x2f00
     bf4:	206e6f73 	rsbcs	r6, lr, r3, ror pc
     bf8:	616c2f33 	cmnvs	ip, r3, lsr pc
     bfc:	732f3262 			; <UNDEFINED> instruction: 0x732f3262
     c00:	32336d74 	eorscc	r6, r3, #116, 26	; 0x1d00
     c04:	33303166 	teqcc	r0, #-2147483623	; 0x80000019
     c08:	645f3863 	ldrbvs	r3, [pc], #-2147	; c10 <_Min_Stack_Size+0x810>
     c0c:	65766972 	ldrbvs	r6, [r6, #-2418]!	; 0xfffff68e
     c10:	692f7372 	stmdbvs	pc!, {r1, r4, r5, r6, r8, r9, ip, sp, lr}	; <UNPREDICTABLE>
     c14:	4300636e 	movwmi	r6, #878	; 0x36e
     c18:	54535c3a 	ldrbpl	r5, [r3], #-3130	; 0xfffff3c6
     c1c:	4d54535c 	ldclmi	3, cr5, [r4, #-368]	; 0xfffffe90
     c20:	75433233 	strbvc	r3, [r3, #-563]	; 0xfffffdcd
     c24:	44496562 	strbmi	r6, [r9], #-1378	; 0xfffffa9e
     c28:	2e315f45 	cdpcs	15, 3, cr5, cr1, cr5, {2}
     c2c:	5c302e34 	ldcpl	14, cr2, [r0], #-208	; 0xffffff30
     c30:	334d5453 	movtcc	r5, #54355	; 0xd453
     c34:	62754332 	rsbsvs	r4, r5, #-939524096	; 0xc8000000
     c38:	45444965 	strbmi	r4, [r4, #-2405]	; 0xfffff69b
     c3c:	756c705c 	strbvc	r7, [ip, #-92]!	; 0xffffffa4
     c40:	736e6967 	cmnvc	lr, #1687552	; 0x19c000
     c44:	6d6f635c 	stclvs	3, cr6, [pc, #-368]!	; adc <_Min_Stack_Size+0x6dc>
     c48:	2e74732e 	cdpcs	3, 7, cr7, cr4, cr14, {1}
     c4c:	336d7473 	cmncc	sp, #1929379840	; 0x73000000
     c50:	62756332 	rsbsvs	r6, r5, #-939524096	; 0xc8000000
     c54:	64692e65 	strbtvs	r2, [r9], #-3685	; 0xfffff19b
     c58:	636d2e65 	cmnvs	sp, #1616	; 0x650
     c5c:	78652e75 	stmdavc	r5!, {r0, r2, r4, r5, r6, r9, sl, fp, sp}^
     c60:	6e726574 	mrcvs	5, 3, r6, cr2, cr4, {3}
     c64:	6f746c61 	svcvs	0x00746c61
     c68:	2e736c6f 	cdpcs	12, 7, cr6, cr3, cr15, {3}
     c6c:	2d756e67 	ldclcs	14, cr6, [r5, #-412]!	; 0xfffffe64
     c70:	6c6f6f74 	stclvs	15, cr6, [pc], #-464	; aa8 <_Min_Stack_Size+0x6a8>
     c74:	6f662d73 	svcvs	0x00662d73
     c78:	74732d72 	ldrbtvc	r2, [r3], #-3442	; 0xfffff28e
     c7c:	2e32336d 	cdpcs	3, 3, cr3, cr2, cr13, {3}
     c80:	332e3131 			; <UNDEFINED> instruction: 0x332e3131
     c84:	6c65722e 	sfmvs	f7, 2, [r5], #-184	; 0xffffff48
     c88:	69772e31 	ldmdbvs	r7!, {r0, r4, r5, r9, sl, fp, sp}^
     c8c:	5f32336e 	svcpl	0x0032336e
     c90:	2e312e31 	mrccs	14, 1, r2, cr1, cr1, {1}
     c94:	2e303031 	mrccs	0, 1, r3, cr0, cr1, {1}
     c98:	33323032 	teqcc	r2, #50	; 0x32
     c9c:	34313930 	ldrtcc	r3, [r1], #-2352	; 0xfffff6d0
     ca0:	35333231 	ldrcc	r3, [r3, #-561]!	; 0xfffffdcf
     ca4:	6f6f745c 	svcvs	0x006f745c
     ca8:	625c736c 	subsvs	r7, ip, #108, 6	; 0xb0000001
     cac:	2e2f6e69 	cdpcs	14, 2, cr6, cr15, cr9, {3}
     cb0:	696c2f2e 	stmdbvs	ip!, {r1, r2, r3, r5, r8, r9, sl, fp, sp}^
     cb4:	63672f62 	cmnvs	r7, #392	; 0x188
     cb8:	72612f63 	rsbvc	r2, r1, #396	; 0x18c
     cbc:	6f6e2d6d 	svcvs	0x006e2d6d
     cc0:	652d656e 	strvs	r6, [sp, #-1390]!	; 0xfffffa92
     cc4:	2f696261 	svccs	0x00696261
     cc8:	332e3131 			; <UNDEFINED> instruction: 0x332e3131
     ccc:	2e2f312e 	sufcsep	f3, f7, #0.5
     cd0:	2e2e2f2e 	cdpcs	15, 2, cr2, cr14, cr14, {1}
     cd4:	2f2e2e2f 	svccs	0x002e2e2f
     cd8:	612f2e2e 			; <UNDEFINED> instruction: 0x612f2e2e
     cdc:	6e2d6d72 	mcrvs	13, 1, r6, cr13, cr2, {3}
     ce0:	2d656e6f 	stclcs	14, cr6, [r5, #-444]!	; 0xfffffe44
     ce4:	69626165 	stmdbvs	r2!, {r0, r2, r5, r6, r8, sp, lr}^
     ce8:	636e692f 	cmnvs	lr, #770048	; 0xbc000
     cec:	6564756c 	strbvs	r7, [r4, #-1388]!	; 0xfffffa94
     cf0:	5c3a4300 	ldcpl	3, cr4, [sl], #-0
     cf4:	535c5453 	cmppl	ip, #1392508928	; 0x53000000
     cf8:	32334d54 	eorscc	r4, r3, #84, 26	; 0x1500
     cfc:	65627543 	strbvs	r7, [r2, #-1347]!	; 0xfffffabd
     d00:	5f454449 	svcpl	0x00454449
     d04:	2e342e31 	mrccs	14, 1, r2, cr4, cr1, {1}
     d08:	54535c30 	ldrbpl	r5, [r3], #-3120	; 0xfffff3d0
     d0c:	4332334d 	teqmi	r2, #872415233	; 0x34000001
     d10:	49656275 	stmdbmi	r5!, {r0, r2, r4, r5, r6, r9, sp, lr}^
     d14:	705c4544 	subsvc	r4, ip, r4, asr #10
     d18:	6967756c 	stmdbvs	r7!, {r2, r3, r5, r6, r8, sl, ip, sp, lr}^
     d1c:	635c736e 	cmpvs	ip, #-1207959551	; 0xb8000001
     d20:	732e6d6f 			; <UNDEFINED> instruction: 0x732e6d6f
     d24:	74732e74 	ldrbtvc	r2, [r3], #-3700	; 0xfffff18c
     d28:	6332336d 	teqvs	r2, #-1275068415	; 0xb4000001
     d2c:	2e656275 	mcrcs	2, 3, r6, cr5, cr5, {3}
     d30:	2e656469 	cdpcs	4, 6, cr6, cr5, cr9, {3}
     d34:	2e75636d 	cdpcs	3, 7, cr6, cr5, cr13, {3}
     d38:	65747865 	ldrbvs	r7, [r4, #-2149]!	; 0xfffff79b
     d3c:	6c616e72 	stclvs	14, cr6, [r1], #-456	; 0xfffffe38
     d40:	6c6f6f74 	stclvs	15, cr6, [pc], #-464	; b78 <_Min_Stack_Size+0x778>
     d44:	6e672e73 	mcrvs	14, 3, r2, cr7, cr3, {3}
     d48:	6f742d75 	svcvs	0x00742d75
     d4c:	2d736c6f 	ldclcs	12, cr6, [r3, #-444]!	; 0xfffffe44
     d50:	2d726f66 	ldclcs	15, cr6, [r2, #-408]!	; 0xfffffe68
     d54:	336d7473 	cmncc	sp, #1929379840	; 0x73000000
     d58:	31312e32 	teqcc	r1, r2, lsr lr
     d5c:	722e332e 	eorvc	r3, lr, #-1207959552	; 0xb8000000
     d60:	2e316c65 	cdpcs	12, 3, cr6, cr1, cr5, {3}
     d64:	336e6977 	cmncc	lr, #1949696	; 0x1dc000
     d68:	2e315f32 	mrccs	15, 1, r5, cr1, cr2, {1}
     d6c:	30312e31 	eorscc	r2, r1, r1, lsr lr
     d70:	30322e30 	eorscc	r2, r2, r0, lsr lr
     d74:	39303332 	ldmdbcc	r0!, {r1, r4, r5, r8, r9, ip, sp}
     d78:	32313431 	eorscc	r3, r1, #822083584	; 0x31000000
     d7c:	745c3533 	ldrbvc	r3, [ip], #-1331	; 0xfffffacd
     d80:	736c6f6f 	cmnvc	ip, #444	; 0x1bc
     d84:	6e69625c 	mcrvs	2, 3, r6, cr9, cr12, {2}
     d88:	2f2e2e2f 	svccs	0x002e2e2f
     d8c:	2d6d7261 	sfmcs	f7, 2, [sp, #-388]!	; 0xfffffe7c
     d90:	656e6f6e 	strbvs	r6, [lr, #-3950]!	; 0xfffff092
     d94:	6261652d 	rsbvs	r6, r1, #188743680	; 0xb400000
     d98:	6e692f69 	cdpvs	15, 6, cr2, cr9, cr9, {3}
     d9c:	64756c63 	ldrbtvs	r6, [r5], #-3171	; 0xfffff39d
     da0:	656e2f65 	strbvs	r2, [lr, #-3941]!	; 0xfffff09b
     da4:	62696c77 	rsbvs	r6, r9, #30464	; 0x7700
     da8:	6e616e2d 	cdpvs	14, 6, cr6, cr1, cr13, {1}
     dac:	3a43006f 	bcc	10c0f70 <_Min_Stack_Size+0x10c0b70>
     db0:	5c54535c 	mrrcpl	3, 5, r5, r4, cr12
     db4:	334d5453 	movtcc	r5, #54355	; 0xd453
     db8:	62754332 	rsbsvs	r4, r5, #-939524096	; 0xc8000000
     dbc:	45444965 	strbmi	r4, [r4, #-2405]	; 0xfffff69b
     dc0:	342e315f 	strtcc	r3, [lr], #-351	; 0xfffffea1
     dc4:	535c302e 	cmppl	ip, #46	; 0x2e
     dc8:	32334d54 	eorscc	r4, r3, #84, 26	; 0x1500
     dcc:	65627543 	strbvs	r7, [r2, #-1347]!	; 0xfffffabd
     dd0:	5c454449 	cfstrdpl	mvd4, [r5], {73}	; 0x49
     dd4:	67756c70 			; <UNDEFINED> instruction: 0x67756c70
     dd8:	5c736e69 	ldclpl	14, cr6, [r3], #-420	; 0xfffffe5c
     ddc:	2e6d6f63 	cdpcs	15, 6, cr6, cr13, cr3, {3}
     de0:	732e7473 			; <UNDEFINED> instruction: 0x732e7473
     de4:	32336d74 	eorscc	r6, r3, #116, 26	; 0x1d00
     de8:	65627563 	strbvs	r7, [r2, #-1379]!	; 0xfffffa9d
     dec:	6564692e 	strbvs	r6, [r4, #-2350]!	; 0xfffff6d2
     df0:	75636d2e 	strbvc	r6, [r3, #-3374]!	; 0xfffff2d2
     df4:	7478652e 	ldrbtvc	r6, [r8], #-1326	; 0xfffffad2
     df8:	616e7265 	cmnvs	lr, r5, ror #4
     dfc:	6f6f746c 	svcvs	0x006f746c
     e00:	672e736c 	strvs	r7, [lr, -ip, ror #6]!
     e04:	742d756e 	strtvc	r7, [sp], #-1390	; 0xfffffa92
     e08:	736c6f6f 	cmnvc	ip, #444	; 0x1bc
     e0c:	726f662d 	rsbvc	r6, pc, #47185920	; 0x2d00000
     e10:	6d74732d 	ldclvs	3, cr7, [r4, #-180]!	; 0xffffff4c
     e14:	312e3233 			; <UNDEFINED> instruction: 0x312e3233
     e18:	2e332e31 	mrccs	14, 1, r2, cr3, cr1, {1}
     e1c:	316c6572 	smccc	50770	; 0xc652
     e20:	6e69772e 	cdpvs	7, 6, cr7, cr9, cr14, {1}
     e24:	315f3233 	cmpcc	pc, r3, lsr r2	; <UNPREDICTABLE>
     e28:	312e312e 			; <UNDEFINED> instruction: 0x312e312e
     e2c:	322e3030 	eorcc	r3, lr, #48	; 0x30
     e30:	30333230 	eorscc	r3, r3, r0, lsr r2
     e34:	31343139 	teqcc	r4, r9, lsr r1
     e38:	5c353332 	ldcpl	3, cr3, [r5], #-200	; 0xffffff38
     e3c:	6c6f6f74 	stclvs	15, cr6, [pc], #-464	; c74 <_Min_Stack_Size+0x874>
     e40:	69625c73 	stmdbvs	r2!, {r0, r1, r4, r5, r6, sl, fp, ip, lr}^
     e44:	2e2e2f6e 	cdpcs	15, 2, cr2, cr14, cr14, {3}
     e48:	62696c2f 	rsbvs	r6, r9, #12032	; 0x2f00
     e4c:	6363672f 	cmnvs	r3, #12320768	; 0xbc0000
     e50:	6d72612f 	ldfvse	f6, [r2, #-188]!	; 0xffffff44
     e54:	6e6f6e2d 	cdpvs	14, 6, cr6, cr15, cr13, {1}
     e58:	61652d65 	cmnvs	r5, r5, ror #26
     e5c:	312f6962 			; <UNDEFINED> instruction: 0x312f6962
     e60:	2e332e31 	mrccs	14, 1, r2, cr3, cr1, {1}
     e64:	6e692f31 	mcrvs	15, 3, r2, cr9, cr1, {1}
     e68:	64756c63 	ldrbtvs	r6, [r5], #-3171	; 0xfffff39d
     e6c:	73000065 	movwvc	r0, #101	; 0x65
     e70:	32336d74 	eorscc	r6, r3, #116, 26	; 0x1d00
     e74:	33303166 	teqcc	r0, #-2147483623	; 0x80000019
     e78:	475f3863 	ldrbmi	r3, [pc, -r3, ror #16]
     e7c:	2e4f4950 			; <UNDEFINED> instruction: 0x2e4f4950
     e80:	00010063 	andeq	r0, r1, r3, rrx
     e84:	65645f00 	strbvs	r5, [r4, #-3840]!	; 0xfffff100
     e88:	6c756166 	ldfvse	f6, [r5], #-408	; 0xfffffe68
     e8c:	79745f74 	ldmdbvc	r4!, {r2, r4, r5, r6, r8, r9, sl, fp, ip, lr}^
     e90:	2e736570 	mrccs	5, 3, r6, cr3, cr0, {3}
     e94:	00020068 	andeq	r0, r2, r8, rrx
     e98:	74735f00 	ldrbtvc	r5, [r3], #-3840	; 0xfffff100
     e9c:	746e6964 	strbtvc	r6, [lr], #-2404	; 0xfffff69c
     ea0:	0300682e 	movweq	r6, #2094	; 0x82e
     ea4:	74730000 	ldrbtvc	r0, [r3], #-0
     ea8:	6632336d 	ldrtvs	r3, [r2], -sp, ror #6
     eac:	78333031 	ldmdavc	r3!, {r0, r4, r5, ip, sp}
     eb0:	00682e38 	rsbeq	r2, r8, r8, lsr lr
     eb4:	73000004 	movwvc	r0, #4
     eb8:	32336d74 	eorscc	r6, r3, #116, 26	; 0x1d00
     ebc:	33303166 	teqcc	r0, #-2147483623	; 0x80000019
     ec0:	475f3863 	ldrbmi	r3, [pc, -r3, ror #16]
     ec4:	2e4f4950 			; <UNDEFINED> instruction: 0x2e4f4950
     ec8:	00040068 	andeq	r0, r4, r8, rrx
     ecc:	64747300 	ldrbtvs	r7, [r4], #-768	; 0xfffffd00
     ed0:	2e62696c 	vnmulcs.f16	s13, s4, s25	; <UNPREDICTABLE>
     ed4:	00050068 	andeq	r0, r5, r8, rrx
     ed8:	65656900 	strbvs	r6, [r5, #-2304]!	; 0xfffff700
     edc:	2e706665 	cdpcs	6, 7, cr6, cr0, cr5, {3}
     ee0:	00020068 	andeq	r0, r2, r8, rrx
     ee4:	6e615f00 	cdpvs	15, 6, cr5, cr1, cr0, {0}
     ee8:	682e6973 	stmdavs	lr!, {r0, r1, r4, r5, r6, r8, fp, sp, lr}
     eec:	00000500 	andeq	r0, r0, r0, lsl #10
     ef0:	6c77656e 	cfldr64vs	mvdx6, [r7], #-440	; 0xfffffe48
     ef4:	682e6269 	stmdavs	lr!, {r0, r3, r5, r6, r9, sp, lr}
     ef8:	00000600 	andeq	r0, r0, r0, lsl #12
     efc:	77656e5f 			; <UNDEFINED> instruction: 0x77656e5f
     f00:	5f62696c 	svcpl	0x0062696c
     f04:	73726576 	cmnvc	r2, #494927872	; 0x1d800000
     f08:	2e6e6f69 	cdpcs	15, 6, cr6, cr14, cr9, {3}
     f0c:	00050068 	andeq	r0, r5, r8, rrx
     f10:	6e6f6300 	cdpvs	3, 6, cr6, cr15, cr0, {0}
     f14:	2e676966 	vnmulcs.f16	s13, s14, s13	; <UNPREDICTABLE>
     f18:	00030068 	andeq	r0, r3, r8, rrx
     f1c:	61656600 	cmnvs	r5, r0, lsl #12
     f20:	65727574 	ldrbvs	r7, [r2, #-1396]!	; 0xfffffa8c
     f24:	00682e73 	rsbeq	r2, r8, r3, ror lr
     f28:	73000003 	movwvc	r0, #3
     f2c:	65646474 	strbvs	r6, [r4, #-1140]!	; 0xfffffb8c
     f30:	00682e66 	rsbeq	r2, r8, r6, ror #28
     f34:	72000007 	andvc	r0, r0, #7
     f38:	746e6565 	strbtvc	r6, [lr], #-1381	; 0xfffffa9b
     f3c:	0300682e 	movweq	r6, #2094	; 0x82e
     f40:	745f0000 	ldrbvc	r0, [pc], #-0	; f48 <_Min_Stack_Size+0xb48>
     f44:	73657079 	cmnvc	r5, #121	; 0x79
     f48:	0300682e 	movweq	r6, #2094	; 0x82e
     f4c:	745f0000 	ldrbvc	r0, [pc], #-0	; f54 <_Min_Stack_Size+0xb54>
     f50:	73657079 	cmnvc	r5, #121	; 0x79
     f54:	0200682e 	andeq	r6, r0, #3014656	; 0x2e0000
     f58:	6f6c0000 	svcvs	0x006c0000
     f5c:	682e6b63 	stmdavs	lr!, {r0, r1, r5, r6, r8, r9, fp, sp, lr}
     f60:	00000300 	andeq	r0, r0, r0, lsl #6
     f64:	65737361 	ldrbvs	r7, [r3, #-865]!	; 0xfffffc9f
     f68:	682e7472 	stmdavs	lr!, {r1, r4, r5, r6, sl, ip, sp, lr}
     f6c:	00000500 	andeq	r0, r0, r0, lsl #10
     f70:	66656463 	strbtvs	r6, [r5], -r3, ror #8
     f74:	00682e73 	rsbeq	r2, r8, r3, ror lr
     f78:	73000003 	movwvc	r0, #3
     f7c:	696c6474 	stmdbvs	ip!, {r2, r4, r5, r6, sl, sp, lr}^
     f80:	00682e62 	rsbeq	r2, r8, r2, ror #28
     f84:	61000002 	tstvs	r0, r2
     f88:	636f6c6c 	cmnvs	pc, #108, 24	; 0x6c00
     f8c:	00682e61 	rsbeq	r2, r8, r1, ror #28
     f90:	73000005 	movwvc	r0, #5
     f94:	6e696474 	mcrvs	4, 3, r6, cr9, cr4, {3}
     f98:	00682e74 	rsbeq	r2, r8, r4, ror lr
     f9c:	73000007 	movwvc	r0, #7
     fa0:	6e696474 	mcrvs	4, 3, r6, cr9, cr4, {3}
     fa4:	00682e74 	rsbeq	r2, r8, r4, ror lr
     fa8:	5f000005 	svcpl	0x00000005
     fac:	73746e69 	cmnvc	r4, #1680	; 0x690
     fb0:	682e7075 	stmdavs	lr!, {r0, r2, r4, r5, r6, ip, sp, lr}
     fb4:	00000300 	andeq	r0, r0, r0, lsl #6
     fb8:	00010500 	andeq	r0, r1, r0, lsl #10
     fbc:	07180205 	ldreq	r0, [r8, -r5, lsl #4]
     fc0:	15030800 	strne	r0, [r3, #-2048]	; 0xfffff800
     fc4:	59020501 	stmdbpl	r2, {r0, r8, sl}
     fc8:	8c020a05 			; <UNDEFINED> instruction: 0x8c020a05
     fcc:	31311501 	teqcc	r1, r1, lsl #10
     fd0:	31313131 	teqcc	r1, r1, lsr r1
     fd4:	31313131 	teqcc	r1, r1, lsr r1
     fd8:	31313131 	teqcc	r1, r1, lsr r1
     fdc:	31090531 	tstcc	r9, r1, lsr r5
     fe0:	02210105 	eoreq	r0, r1, #1073741825	; 0x40000001
     fe4:	01010005 	tsteq	r1, r5
     fe8:	05000105 	streq	r0, [r0, #-261]	; 0xfffffefb
     fec:	00088802 	andeq	r8, r8, r2, lsl #16
     ff0:	00cd0308 	sbceq	r0, sp, r8, lsl #6
     ff4:	5b150501 	blpl	542400 <_Min_Stack_Size+0x542000>
     ff8:	052f2305 	streq	r2, [pc, #-773]!	; cfb <_Min_Stack_Size+0x8fb>
     ffc:	02002e50 	andeq	r2, r0, #80, 28	; 0x500
    1000:	2e060104 	adfcss	f0, f6, f4
    1004:	02040200 	andeq	r0, r4, #0, 4
    1008:	0012052e 	andseq	r0, r2, lr, lsr #10
    100c:	06040402 	streq	r0, [r4], -r2, lsl #8
    1010:	0021052e 	eoreq	r0, r1, lr, lsr #10
    1014:	24040402 	strcs	r0, [r4], #-1026	; 0xfffffbfe
    1018:	02001e05 	andeq	r1, r0, #5, 28	; 0x50
    101c:	05740404 	ldrbeq	r0, [r4, #-1028]!	; 0xfffffbfc
    1020:	04020018 	streq	r0, [r2], #-24	; 0xffffffe8
    1024:	15052e04 	strne	r2, [r5, #-3588]	; 0xfffff1fc
    1028:	04040200 	streq	r0, [r4], #-512	; 0xfffffe00
    102c:	04020020 	streq	r0, [r2], #-32	; 0xffffffe0
    1030:	04055b04 	streq	r5, [r5], #-2820	; 0xfffff4fc
    1034:	04040200 	streq	r0, [r4], #-512	; 0xfffffe00
    1038:	004d052e 	subeq	r0, sp, lr, lsr #10
    103c:	2e010402 	cdpcs	4, 0, cr0, cr1, cr2, {0}
    1040:	02003a05 	andeq	r3, r0, #20480	; 0x5000
    1044:	052e0104 	streq	r0, [lr, #-260]!	; 0xfffffefc
    1048:	02000185 	andeq	r0, r0, #1073741857	; 0x40000021
    104c:	052e0204 	streq	r0, [lr, #-516]!	; 0xfffffdfc
    1050:	04020072 	streq	r0, [r2], #-114	; 0xffffff8e
    1054:	c0052e02 	andgt	r2, r5, r2, lsl #28
    1058:	04020001 	streq	r0, [r2], #-1
    105c:	ad052e03 	stcge	14, cr2, [r5, #-12]
    1060:	04020001 	streq	r0, [r2], #-1
    1064:	22052e03 	andcs	r2, r5, #3, 28	; 0x30
    1068:	2e2d0531 	mcrcs	5, 1, r0, cr13, cr1, {1}
    106c:	05203105 	streq	r3, [r0, #-261]!	; 0xfffffefb
    1070:	48052037 	stmdami	r5, {r0, r1, r2, r4, r5, sp}
    1074:	3c370520 	cfldr32cc	mvfx0, [r7], #-128	; 0xffffff80
    1078:	052e5e05 	streq	r5, [lr, #-3589]!	; 0xfffff1fb
    107c:	1605200e 	strne	r2, [r5], -lr
    1080:	2e05054f 	cfsh32cs	mvfx0, mvfx5, #47
    1084:	02004b05 	andeq	r4, r0, #5120	; 0x1400
    1088:	052e0104 	streq	r0, [lr, #-260]!	; 0xfffffefc
    108c:	04020038 	streq	r0, [r2], #-56	; 0xffffffc8
    1090:	23052e01 	movwcs	r2, #24065	; 0x5e01
    1094:	2e360531 	mrccs	5, 1, r0, cr6, cr1, {1}
    1098:	05203f05 	streq	r3, [r0, #-3845]!	; 0xfffff0fb
    109c:	1b05200f 	blne	1490e0 <_Min_Stack_Size+0x148ce0>
    10a0:	2e0a054c 	cfsh32cs	mvfx0, mvfx10, #44
    10a4:	40300f05 	eorsmi	r0, r0, r5, lsl #30
    10a8:	052f1505 	streq	r1, [pc, #-1285]!	; bab <_Min_Stack_Size+0x7ab>
    10ac:	10052e06 	andne	r2, r5, r6, lsl #28
    10b0:	2e210531 	mcrcs	5, 1, r0, cr1, cr1, {1}
    10b4:	4f2e1005 	svcmi	0x002e1005
    10b8:	052e2305 	streq	r2, [lr, #-773]!	; 0xfffffcfb
    10bc:	10052e13 	andne	r2, r5, r3, lsl lr
    10c0:	40240520 	eormi	r0, r4, r0, lsr #10
    10c4:	05202705 	streq	r2, [r0, #-1797]!	; 0xfffff8fb
    10c8:	15056624 	strne	r6, [r5, #-1572]	; 0xfffff9dc
    10cc:	5901052e 	stmdbpl	r1, {r1, r2, r3, r5, r8, sl}
    10d0:	01000402 	tsteq	r0, r2, lsl #8
    10d4:	00010501 	andeq	r0, r1, r1, lsl #10
    10d8:	00000205 	andeq	r0, r0, r5, lsl #4
    10dc:	85030000 	strhi	r0, [r3, #-0]
    10e0:	0d050101 	stfeqs	f0, [r5, #-4]
    10e4:	3d0e054b 	cfstr32cc	mvfx0, [lr, #-300]	; 0xfffffed4
    10e8:	4b3d0d05 	blmi	f44504 <_Min_Stack_Size+0xf44104>
    10ec:	054c0e05 	strbeq	r0, [ip, #-3589]	; 0xfffff1fb
    10f0:	04053d0d 	streq	r3, [r5], #-3341	; 0xfffff2f3
    10f4:	4c110541 	cfldr32mi	mvfx0, [r1], {65}	; 0x41
    10f8:	03010567 	movweq	r0, #5479	; 0x1567
    10fc:	09056616 	stmdbeq	r5, {r1, r2, r4, r9, sl, sp, lr}
    1100:	05206c03 	streq	r6, [r0, #-3075]!	; 0xfffff3fd
    1104:	05674c11 	strbeq	r4, [r7, #-3089]!	; 0xfffff3ef
    1108:	66110301 	ldrvs	r0, [r1], -r1, lsl #6
    110c:	71030905 	tstvc	r3, r5, lsl #18
    1110:	4c110520 	cfldr32mi	mvfx0, [r1], {32}
    1114:	03010567 	movweq	r0, #5479	; 0x1567
    1118:	0905660c 	stmdbeq	r5, {r2, r3, r9, sl, sp, lr}
    111c:	05207603 	streq	r7, [r0, #-1539]!	; 0xfffff9fd
    1120:	05674c11 	strbeq	r4, [r7, #-3089]!	; 0xfffff3ef
    1124:	09056d01 	stmdbeq	r5, {r0, r8, sl, fp, sp, lr}
    1128:	4c11051b 	cfldr32mi	mvfx0, [r1], {27}
    112c:	68010567 	stmdavs	r1, {r0, r1, r2, r5, r6, r8, sl}
    1130:	01001202 	tsteq	r0, r2, lsl #4
    1134:	00010501 	andeq	r0, r1, r1, lsl #10
    1138:	00000205 	andeq	r0, r0, r5, lsl #4
    113c:	b7030000 	strlt	r0, [r3, -r0]
    1140:	0b050101 	bleq	14154c <_Min_Stack_Size+0x14114c>
    1144:	2e110568 	cfmsc32cs	mvfx0, mvfx1, mvfx8
    1148:	052e0405 	streq	r0, [lr, #-1029]!	; 0xfffffbfb
    114c:	0540300d 	strbeq	r3, [r0, #-13]
    1150:	01053009 	tsteq	r5, r9
    1154:	00050221 	andeq	r0, r5, r1, lsr #4
    1158:	01050101 	tsteq	r5, r1, lsl #2
    115c:	00020500 	andeq	r0, r2, r0, lsl #10
    1160:	03000000 	movweq	r0, #0
    1164:	050101ce 	streq	r0, [r1, #-462]	; 0xfffffe32
    1168:	0d054c1f 	stceq	12, cr4, [r5, #-124]	; 0xffffff84
    116c:	2109052e 	tstcs	r9, lr, lsr #10
    1170:	02210105 	eoreq	r0, r1, #1073741825	; 0x40000001
    1174:	01010005 	tsteq	r1, r5
    1178:	05000105 	streq	r0, [r0, #-261]	; 0xfffffefb
    117c:	00000002 	andeq	r0, r0, r2
    1180:	01e00300 	mvneq	r0, r0, lsl #6
    1184:	83040501 	movwhi	r0, #17665	; 0x4501
    1188:	05441105 	strbeq	r1, [r4, #-261]	; 0xfffffefb
    118c:	0105200f 	tsteq	r5, pc
    1190:	052e1203 	streq	r1, [lr, #-515]!	; 0xfffffdfd
    1194:	0e051b10 	vmoveq.32	d5[0], r1
    1198:	33010520 	movwcc	r0, #5408	; 0x1520
    119c:	01000502 	tsteq	r0, r2, lsl #10
    11a0:	00010501 	andeq	r0, r1, r1, lsl #10
    11a4:	00000205 	andeq	r0, r0, r5, lsl #4
    11a8:	88030000 	stmdahi	r3, {}	; <UNPREDICTABLE>
    11ac:	0d050102 	stfeqs	f0, [r5, #-8]
    11b0:	2e100567 	cfmsc32cs	mvfx0, mvfx0, mvfx7
    11b4:	05200d05 	streq	r0, [r0, #-3333]!	; 0xfffff2fb
    11b8:	05023d01 	streq	r3, [r2, #-3329]	; 0xfffff2ff
    11bc:	05010100 	streq	r0, [r1, #-256]	; 0xffffff00
    11c0:	02050001 	andeq	r0, r5, #1
    11c4:	00000000 	andeq	r0, r0, r0
    11c8:	01029703 	tsteq	r2, r3, lsl #14
    11cc:	05670d05 	strbeq	r0, [r7, #-3333]!	; 0xfffff2fb
    11d0:	0d052e13 	stceq	14, cr2, [r5, #-76]	; 0xffffffb4
    11d4:	3d01054a 	cfstr32cc	mvfx0, [r1, #-296]	; 0xfffffed8
    11d8:	01000502 	tsteq	r0, r2, lsl #10
    11dc:	00010501 	andeq	r0, r1, r1, lsl #10
    11e0:	00000205 	andeq	r0, r0, r5, lsl #4
    11e4:	a6030000 	strge	r0, [r3], -r0
    11e8:	14050102 	strne	r0, [r5], #-258	; 0xfffffefe
    11ec:	05661303 	strbeq	r1, [r6, #-771]!	; 0xfffffcfd
    11f0:	0e053e07 	cdpeq	14, 0, cr3, cr5, cr7, {0}
    11f4:	3e3e3e4d 	cdpcc	14, 3, cr3, cr14, cr13, {2}
    11f8:	052e0705 	streq	r0, [lr, #-1797]!	; 0xfffff8fb
    11fc:	05052215 	streq	r2, [r5, #-533]	; 0xfffffdeb
    1200:	2e04052e 	cfsh32cs	mvfx0, mvfx4, #30
    1204:	32300a05 	eorscc	r0, r0, #20480	; 0x5000
    1208:	02230105 	eoreq	r0, r3, #1073741825	; 0x40000001
    120c:	01010005 	tsteq	r1, r5
    1210:	0000061f 	andeq	r0, r0, pc, lsl r6
    1214:	05c60003 	strbeq	r0, [r6, #3]
    1218:	01020000 	mrseq	r0, (UNDEF: 2)
    121c:	000d0efb 	strdeq	r0, [sp], -fp
    1220:	01010101 	tsteq	r1, r1, lsl #2
    1224:	01000000 	mrseq	r0, (UNDEF: 0)
    1228:	2e010000 	cdpcs	0, 0, cr0, cr1, cr0, {0}
    122c:	72532f2e 	subsvc	r2, r3, #46, 30	; 0xb8
    1230:	3a430063 	bcc	10c13c4 <_Min_Stack_Size+0x10c0fc4>
    1234:	5c54535c 	mrrcpl	3, 5, r5, r4, cr12
    1238:	334d5453 	movtcc	r5, #54355	; 0xd453
    123c:	62754332 	rsbsvs	r4, r5, #-939524096	; 0xc8000000
    1240:	45444965 	strbmi	r4, [r4, #-2405]	; 0xfffff69b
    1244:	342e315f 	strtcc	r3, [lr], #-351	; 0xfffffea1
    1248:	535c302e 	cmppl	ip, #46	; 0x2e
    124c:	32334d54 	eorscc	r4, r3, #84, 26	; 0x1500
    1250:	65627543 	strbvs	r7, [r2, #-1347]!	; 0xfffffabd
    1254:	5c454449 	cfstrdpl	mvd4, [r5], {73}	; 0x49
    1258:	67756c70 			; <UNDEFINED> instruction: 0x67756c70
    125c:	5c736e69 	ldclpl	14, cr6, [r3], #-420	; 0xfffffe5c
    1260:	2e6d6f63 	cdpcs	15, 6, cr6, cr13, cr3, {3}
    1264:	732e7473 			; <UNDEFINED> instruction: 0x732e7473
    1268:	32336d74 	eorscc	r6, r3, #116, 26	; 0x1d00
    126c:	65627563 	strbvs	r7, [r2, #-1379]!	; 0xfffffa9d
    1270:	6564692e 	strbvs	r6, [r4, #-2350]!	; 0xfffff6d2
    1274:	75636d2e 	strbvc	r6, [r3, #-3374]!	; 0xfffff2d2
    1278:	7478652e 	ldrbtvc	r6, [r8], #-1326	; 0xfffffad2
    127c:	616e7265 	cmnvs	lr, r5, ror #4
    1280:	6f6f746c 	svcvs	0x006f746c
    1284:	672e736c 	strvs	r7, [lr, -ip, ror #6]!
    1288:	742d756e 	strtvc	r7, [sp], #-1390	; 0xfffffa92
    128c:	736c6f6f 	cmnvc	ip, #444	; 0x1bc
    1290:	726f662d 	rsbvc	r6, pc, #47185920	; 0x2d00000
    1294:	6d74732d 	ldclvs	3, cr7, [r4, #-180]!	; 0xffffff4c
    1298:	312e3233 			; <UNDEFINED> instruction: 0x312e3233
    129c:	2e332e31 	mrccs	14, 1, r2, cr3, cr1, {1}
    12a0:	316c6572 	smccc	50770	; 0xc652
    12a4:	6e69772e 	cdpvs	7, 6, cr7, cr9, cr14, {1}
    12a8:	315f3233 	cmpcc	pc, r3, lsr r2	; <UNPREDICTABLE>
    12ac:	312e312e 			; <UNDEFINED> instruction: 0x312e312e
    12b0:	322e3030 	eorcc	r3, lr, #48	; 0x30
    12b4:	30333230 	eorscc	r3, r3, r0, lsr r2
    12b8:	31343139 	teqcc	r4, r9, lsr r1
    12bc:	5c353332 	ldcpl	3, cr3, [r5], #-200	; 0xffffff38
    12c0:	6c6f6f74 	stclvs	15, cr6, [pc], #-464	; 10f8 <_Min_Stack_Size+0xcf8>
    12c4:	69625c73 	stmdbvs	r2!, {r0, r1, r4, r5, r6, sl, fp, ip, lr}^
    12c8:	2e2e2f6e 	cdpcs	15, 2, cr2, cr14, cr14, {3}
    12cc:	62696c2f 	rsbvs	r6, r9, #12032	; 0x2f00
    12d0:	6363672f 	cmnvs	r3, #12320768	; 0xbc0000
    12d4:	6d72612f 	ldfvse	f6, [r2, #-188]!	; 0xffffff44
    12d8:	6e6f6e2d 	cdpvs	14, 6, cr6, cr15, cr13, {1}
    12dc:	61652d65 	cmnvs	r5, r5, ror #26
    12e0:	312f6962 			; <UNDEFINED> instruction: 0x312f6962
    12e4:	2e332e31 	mrccs	14, 1, r2, cr3, cr1, {1}
    12e8:	2e2e2f31 	mcrcs	15, 1, r2, cr14, cr1, {1}
    12ec:	2f2e2e2f 	svccs	0x002e2e2f
    12f0:	2e2f2e2e 	cdpcs	14, 2, cr2, cr15, cr14, {1}
    12f4:	72612f2e 	rsbvc	r2, r1, #46, 30	; 0xb8
    12f8:	6f6e2d6d 	svcvs	0x006e2d6d
    12fc:	652d656e 	strvs	r6, [sp, #-1390]!	; 0xfffffa92
    1300:	2f696261 	svccs	0x00696261
    1304:	6c636e69 	stclvs	14, cr6, [r3], #-420	; 0xfffffe5c
    1308:	2f656475 	svccs	0x00656475
    130c:	6863616d 	stmdavs	r3!, {r0, r2, r3, r5, r6, r8, sp, lr}^
    1310:	00656e69 	rsbeq	r6, r5, r9, ror #28
    1314:	535c3a43 	cmppl	ip, #274432	; 0x43000
    1318:	54535c54 	ldrbpl	r5, [r3], #-3156	; 0xfffff3ac
    131c:	4332334d 	teqmi	r2, #872415233	; 0x34000001
    1320:	49656275 	stmdbmi	r5!, {r0, r2, r4, r5, r6, r9, sp, lr}^
    1324:	315f4544 	cmpcc	pc, r4, asr #10
    1328:	302e342e 	eorcc	r3, lr, lr, lsr #8
    132c:	4d54535c 	ldclmi	3, cr5, [r4, #-368]	; 0xfffffe90
    1330:	75433233 	strbvc	r3, [r3, #-563]	; 0xfffffdcd
    1334:	44496562 	strbmi	r6, [r9], #-1378	; 0xfffffa9e
    1338:	6c705c45 	ldclvs	12, cr5, [r0], #-276	; 0xfffffeec
    133c:	6e696775 	mcrvs	7, 3, r6, cr9, cr5, {3}
    1340:	6f635c73 	svcvs	0x00635c73
    1344:	74732e6d 	ldrbtvc	r2, [r3], #-3693	; 0xfffff193
    1348:	6d74732e 	ldclvs	3, cr7, [r4, #-184]!	; 0xffffff48
    134c:	75633233 	strbvc	r3, [r3, #-563]!	; 0xfffffdcd
    1350:	692e6562 	stmdbvs	lr!, {r1, r5, r6, r8, sl, sp, lr}
    1354:	6d2e6564 	cfstr32vs	mvfx6, [lr, #-400]!	; 0xfffffe70
    1358:	652e7563 	strvs	r7, [lr, #-1379]!	; 0xfffffa9d
    135c:	72657478 	rsbvc	r7, r5, #120, 8	; 0x78000000
    1360:	746c616e 	strbtvc	r6, [ip], #-366	; 0xfffffe92
    1364:	736c6f6f 	cmnvc	ip, #444	; 0x1bc
    1368:	756e672e 	strbvc	r6, [lr, #-1838]!	; 0xfffff8d2
    136c:	6f6f742d 	svcvs	0x006f742d
    1370:	662d736c 	strtvs	r7, [sp], -ip, ror #6
    1374:	732d726f 			; <UNDEFINED> instruction: 0x732d726f
    1378:	32336d74 	eorscc	r6, r3, #116, 26	; 0x1d00
    137c:	2e31312e 	rsfcssp	f3, f1, #0.5
    1380:	65722e33 	ldrbvs	r2, [r2, #-3635]!	; 0xfffff1cd
    1384:	772e316c 	strvc	r3, [lr, -ip, ror #2]!
    1388:	32336e69 	eorscc	r6, r3, #1680	; 0x690
    138c:	312e315f 			; <UNDEFINED> instruction: 0x312e315f
    1390:	3030312e 	eorscc	r3, r0, lr, lsr #2
    1394:	3230322e 	eorscc	r3, r0, #-536870910	; 0xe0000002
    1398:	31393033 	teqcc	r9, r3, lsr r0
    139c:	33323134 	teqcc	r2, #52, 2
    13a0:	6f745c35 	svcvs	0x00745c35
    13a4:	5c736c6f 	ldclpl	12, cr6, [r3], #-444	; 0xfffffe44
    13a8:	2f6e6962 	svccs	0x006e6962
    13ac:	6c2f2e2e 	stcvs	14, cr2, [pc], #-184	; 12fc <_Min_Stack_Size+0xefc>
    13b0:	672f6269 	strvs	r6, [pc, -r9, ror #4]!
    13b4:	612f6363 			; <UNDEFINED> instruction: 0x612f6363
    13b8:	6e2d6d72 	mcrvs	13, 1, r6, cr13, cr2, {3}
    13bc:	2d656e6f 	stclcs	14, cr6, [r5, #-444]!	; 0xfffffe44
    13c0:	69626165 	stmdbvs	r2!, {r0, r2, r5, r6, r8, sp, lr}^
    13c4:	2e31312f 	rsfcssp	f3, f1, #10.0
    13c8:	2f312e33 	svccs	0x00312e33
    13cc:	2e2f2e2e 	cdpcs	14, 2, cr2, cr15, cr14, {1}
    13d0:	2e2e2f2e 	cdpcs	15, 2, cr2, cr14, cr14, {1}
    13d4:	2f2e2e2f 	svccs	0x002e2e2f
    13d8:	2d6d7261 	sfmcs	f7, 2, [sp, #-388]!	; 0xfffffe7c
    13dc:	656e6f6e 	strbvs	r6, [lr, #-3950]!	; 0xfffff092
    13e0:	6261652d 	rsbvs	r6, r1, #188743680	; 0xb400000
    13e4:	6e692f69 	cdpvs	15, 6, cr2, cr9, cr9, {3}
    13e8:	64756c63 	ldrbtvs	r6, [r5], #-3171	; 0xfffff39d
    13ec:	79732f65 	ldmdbvc	r3!, {r0, r2, r5, r6, r8, r9, sl, fp, sp}^
    13f0:	3a440073 	bcc	11015c4 <_Min_Stack_Size+0x11011c4>
    13f4:	5f736b2f 	svcpl	0x00736b2f
    13f8:	6c706964 			; <UNDEFINED> instruction: 0x6c706964
    13fc:	2f616d6f 	svccs	0x00616d6f
    1400:	74696e55 	strbtvc	r6, [r9], #-3669	; 0xfffff1ab
    1404:	6e552f73 	mrcvs	15, 2, r2, cr5, cr3, {3}
    1408:	31207469 			; <UNDEFINED> instruction: 0x31207469
    140c:	654c2f34 	strbvs	r2, [ip, #-3892]	; 0xfffff0cc
    1410:	6e6f7373 	mcrvs	3, 3, r7, cr15, cr3, {3}
    1414:	6c2f3320 	stcvs	3, cr3, [pc], #-128	; 139c <_Min_Stack_Size+0xf9c>
    1418:	2f326261 	svccs	0x00326261
    141c:	336d7473 	cmncc	sp, #1929379840	; 0x73000000
    1420:	30316632 	eorscc	r6, r1, r2, lsr r6
    1424:	5f386333 	svcpl	0x00386333
    1428:	76697264 	strbtvc	r7, [r9], -r4, ror #4
    142c:	2f737265 	svccs	0x00737265
    1430:	00636e69 	rsbeq	r6, r3, r9, ror #28
    1434:	535c3a43 	cmppl	ip, #274432	; 0x43000
    1438:	54535c54 	ldrbpl	r5, [r3], #-3156	; 0xfffff3ac
    143c:	4332334d 	teqmi	r2, #872415233	; 0x34000001
    1440:	49656275 	stmdbmi	r5!, {r0, r2, r4, r5, r6, r9, sp, lr}^
    1444:	315f4544 	cmpcc	pc, r4, asr #10
    1448:	302e342e 	eorcc	r3, lr, lr, lsr #8
    144c:	4d54535c 	ldclmi	3, cr5, [r4, #-368]	; 0xfffffe90
    1450:	75433233 	strbvc	r3, [r3, #-563]	; 0xfffffdcd
    1454:	44496562 	strbmi	r6, [r9], #-1378	; 0xfffffa9e
    1458:	6c705c45 	ldclvs	12, cr5, [r0], #-276	; 0xfffffeec
    145c:	6e696775 	mcrvs	7, 3, r6, cr9, cr5, {3}
    1460:	6f635c73 	svcvs	0x00635c73
    1464:	74732e6d 	ldrbtvc	r2, [r3], #-3693	; 0xfffff193
    1468:	6d74732e 	ldclvs	3, cr7, [r4, #-184]!	; 0xffffff48
    146c:	75633233 	strbvc	r3, [r3, #-563]!	; 0xfffffdcd
    1470:	692e6562 	stmdbvs	lr!, {r1, r5, r6, r8, sl, sp, lr}
    1474:	6d2e6564 	cfstr32vs	mvfx6, [lr, #-400]!	; 0xfffffe70
    1478:	652e7563 	strvs	r7, [lr, #-1379]!	; 0xfffffa9d
    147c:	72657478 	rsbvc	r7, r5, #120, 8	; 0x78000000
    1480:	746c616e 	strbtvc	r6, [ip], #-366	; 0xfffffe92
    1484:	736c6f6f 	cmnvc	ip, #444	; 0x1bc
    1488:	756e672e 	strbvc	r6, [lr, #-1838]!	; 0xfffff8d2
    148c:	6f6f742d 	svcvs	0x006f742d
    1490:	662d736c 	strtvs	r7, [sp], -ip, ror #6
    1494:	732d726f 			; <UNDEFINED> instruction: 0x732d726f
    1498:	32336d74 	eorscc	r6, r3, #116, 26	; 0x1d00
    149c:	2e31312e 	rsfcssp	f3, f1, #0.5
    14a0:	65722e33 	ldrbvs	r2, [r2, #-3635]!	; 0xfffff1cd
    14a4:	772e316c 	strvc	r3, [lr, -ip, ror #2]!
    14a8:	32336e69 	eorscc	r6, r3, #1680	; 0x690
    14ac:	312e315f 			; <UNDEFINED> instruction: 0x312e315f
    14b0:	3030312e 	eorscc	r3, r0, lr, lsr #2
    14b4:	3230322e 	eorscc	r3, r0, #-536870910	; 0xe0000002
    14b8:	31393033 	teqcc	r9, r3, lsr r0
    14bc:	33323134 	teqcc	r2, #52, 2
    14c0:	6f745c35 	svcvs	0x00745c35
    14c4:	5c736c6f 	ldclpl	12, cr6, [r3], #-444	; 0xfffffe44
    14c8:	2f6e6962 	svccs	0x006e6962
    14cc:	6c2f2e2e 	stcvs	14, cr2, [pc], #-184	; 141c <_Min_Stack_Size+0x101c>
    14d0:	672f6269 	strvs	r6, [pc, -r9, ror #4]!
    14d4:	612f6363 			; <UNDEFINED> instruction: 0x612f6363
    14d8:	6e2d6d72 	mcrvs	13, 1, r6, cr13, cr2, {3}
    14dc:	2d656e6f 	stclcs	14, cr6, [r5, #-444]!	; 0xfffffe44
    14e0:	69626165 	stmdbvs	r2!, {r0, r2, r5, r6, r8, sp, lr}^
    14e4:	2e31312f 	rsfcssp	f3, f1, #10.0
    14e8:	2f312e33 	svccs	0x00312e33
    14ec:	2e2f2e2e 	cdpcs	14, 2, cr2, cr15, cr14, {1}
    14f0:	2e2e2f2e 	cdpcs	15, 2, cr2, cr14, cr14, {1}
    14f4:	2f2e2e2f 	svccs	0x002e2e2f
    14f8:	2d6d7261 	sfmcs	f7, 2, [sp, #-388]!	; 0xfffffe7c
    14fc:	656e6f6e 	strbvs	r6, [lr, #-3950]!	; 0xfffff092
    1500:	6261652d 	rsbvs	r6, r1, #188743680	; 0xb400000
    1504:	6e692f69 	cdpvs	15, 6, cr2, cr9, cr9, {3}
    1508:	64756c63 	ldrbtvs	r6, [r5], #-3171	; 0xfffff39d
    150c:	3a430065 	bcc	10c16a8 <_Min_Stack_Size+0x10c12a8>
    1510:	5c54535c 	mrrcpl	3, 5, r5, r4, cr12
    1514:	334d5453 	movtcc	r5, #54355	; 0xd453
    1518:	62754332 	rsbsvs	r4, r5, #-939524096	; 0xc8000000
    151c:	45444965 	strbmi	r4, [r4, #-2405]	; 0xfffff69b
    1520:	342e315f 	strtcc	r3, [lr], #-351	; 0xfffffea1
    1524:	535c302e 	cmppl	ip, #46	; 0x2e
    1528:	32334d54 	eorscc	r4, r3, #84, 26	; 0x1500
    152c:	65627543 	strbvs	r7, [r2, #-1347]!	; 0xfffffabd
    1530:	5c454449 	cfstrdpl	mvd4, [r5], {73}	; 0x49
    1534:	67756c70 			; <UNDEFINED> instruction: 0x67756c70
    1538:	5c736e69 	ldclpl	14, cr6, [r3], #-420	; 0xfffffe5c
    153c:	2e6d6f63 	cdpcs	15, 6, cr6, cr13, cr3, {3}
    1540:	732e7473 			; <UNDEFINED> instruction: 0x732e7473
    1544:	32336d74 	eorscc	r6, r3, #116, 26	; 0x1d00
    1548:	65627563 	strbvs	r7, [r2, #-1379]!	; 0xfffffa9d
    154c:	6564692e 	strbvs	r6, [r4, #-2350]!	; 0xfffff6d2
    1550:	75636d2e 	strbvc	r6, [r3, #-3374]!	; 0xfffff2d2
    1554:	7478652e 	ldrbtvc	r6, [r8], #-1326	; 0xfffffad2
    1558:	616e7265 	cmnvs	lr, r5, ror #4
    155c:	6f6f746c 	svcvs	0x006f746c
    1560:	672e736c 	strvs	r7, [lr, -ip, ror #6]!
    1564:	742d756e 	strtvc	r7, [sp], #-1390	; 0xfffffa92
    1568:	736c6f6f 	cmnvc	ip, #444	; 0x1bc
    156c:	726f662d 	rsbvc	r6, pc, #47185920	; 0x2d00000
    1570:	6d74732d 	ldclvs	3, cr7, [r4, #-180]!	; 0xffffff4c
    1574:	312e3233 			; <UNDEFINED> instruction: 0x312e3233
    1578:	2e332e31 	mrccs	14, 1, r2, cr3, cr1, {1}
    157c:	316c6572 	smccc	50770	; 0xc652
    1580:	6e69772e 	cdpvs	7, 6, cr7, cr9, cr14, {1}
    1584:	315f3233 	cmpcc	pc, r3, lsr r2	; <UNPREDICTABLE>
    1588:	312e312e 			; <UNDEFINED> instruction: 0x312e312e
    158c:	322e3030 	eorcc	r3, lr, #48	; 0x30
    1590:	30333230 	eorscc	r3, r3, r0, lsr r2
    1594:	31343139 	teqcc	r4, r9, lsr r1
    1598:	5c353332 	ldcpl	3, cr3, [r5], #-200	; 0xffffff38
    159c:	6c6f6f74 	stclvs	15, cr6, [pc], #-464	; 13d4 <_Min_Stack_Size+0xfd4>
    15a0:	69625c73 	stmdbvs	r2!, {r0, r1, r4, r5, r6, sl, fp, ip, lr}^
    15a4:	2e2e2f6e 	cdpcs	15, 2, cr2, cr14, cr14, {3}
    15a8:	6d72612f 	ldfvse	f6, [r2, #-188]!	; 0xffffff44
    15ac:	6e6f6e2d 	cdpvs	14, 6, cr6, cr15, cr13, {1}
    15b0:	61652d65 	cmnvs	r5, r5, ror #26
    15b4:	692f6962 	stmdbvs	pc!, {r1, r5, r6, r8, fp, sp, lr}	; <UNPREDICTABLE>
    15b8:	756c636e 	strbvc	r6, [ip, #-878]!	; 0xfffffc92
    15bc:	6e2f6564 	cfsh64vs	mvdx6, mvdx15, #52
    15c0:	696c7765 	stmdbvs	ip!, {r0, r2, r5, r6, r8, r9, sl, ip, sp, lr}^
    15c4:	616e2d62 	cmnvs	lr, r2, ror #26
    15c8:	43006f6e 	movwmi	r6, #3950	; 0xf6e
    15cc:	54535c3a 	ldrbpl	r5, [r3], #-3130	; 0xfffff3c6
    15d0:	4d54535c 	ldclmi	3, cr5, [r4, #-368]	; 0xfffffe90
    15d4:	75433233 	strbvc	r3, [r3, #-563]	; 0xfffffdcd
    15d8:	44496562 	strbmi	r6, [r9], #-1378	; 0xfffffa9e
    15dc:	2e315f45 	cdpcs	15, 3, cr5, cr1, cr5, {2}
    15e0:	5c302e34 	ldcpl	14, cr2, [r0], #-208	; 0xffffff30
    15e4:	334d5453 	movtcc	r5, #54355	; 0xd453
    15e8:	62754332 	rsbsvs	r4, r5, #-939524096	; 0xc8000000
    15ec:	45444965 	strbmi	r4, [r4, #-2405]	; 0xfffff69b
    15f0:	756c705c 	strbvc	r7, [ip, #-92]!	; 0xffffffa4
    15f4:	736e6967 	cmnvc	lr, #1687552	; 0x19c000
    15f8:	6d6f635c 	stclvs	3, cr6, [pc, #-368]!	; 1490 <_Min_Stack_Size+0x1090>
    15fc:	2e74732e 	cdpcs	3, 7, cr7, cr4, cr14, {1}
    1600:	336d7473 	cmncc	sp, #1929379840	; 0x73000000
    1604:	62756332 	rsbsvs	r6, r5, #-939524096	; 0xc8000000
    1608:	64692e65 	strbtvs	r2, [r9], #-3685	; 0xfffff19b
    160c:	636d2e65 	cmnvs	sp, #1616	; 0x650
    1610:	78652e75 	stmdavc	r5!, {r0, r2, r4, r5, r6, r9, sl, fp, sp}^
    1614:	6e726574 	mrcvs	5, 3, r6, cr2, cr4, {3}
    1618:	6f746c61 	svcvs	0x00746c61
    161c:	2e736c6f 	cdpcs	12, 7, cr6, cr3, cr15, {3}
    1620:	2d756e67 	ldclcs	14, cr6, [r5, #-412]!	; 0xfffffe64
    1624:	6c6f6f74 	stclvs	15, cr6, [pc], #-464	; 145c <_Min_Stack_Size+0x105c>
    1628:	6f662d73 	svcvs	0x00662d73
    162c:	74732d72 	ldrbtvc	r2, [r3], #-3442	; 0xfffff28e
    1630:	2e32336d 	cdpcs	3, 3, cr3, cr2, cr13, {3}
    1634:	332e3131 			; <UNDEFINED> instruction: 0x332e3131
    1638:	6c65722e 	sfmvs	f7, 2, [r5], #-184	; 0xffffff48
    163c:	69772e31 	ldmdbvs	r7!, {r0, r4, r5, r9, sl, fp, sp}^
    1640:	5f32336e 	svcpl	0x0032336e
    1644:	2e312e31 	mrccs	14, 1, r2, cr1, cr1, {1}
    1648:	2e303031 	mrccs	0, 1, r3, cr0, cr1, {1}
    164c:	33323032 	teqcc	r2, #50	; 0x32
    1650:	34313930 	ldrtcc	r3, [r1], #-2352	; 0xfffff6d0
    1654:	35333231 	ldrcc	r3, [r3, #-561]!	; 0xfffffdcf
    1658:	6f6f745c 	svcvs	0x006f745c
    165c:	625c736c 	subsvs	r7, ip, #108, 6	; 0xb0000001
    1660:	2e2f6e69 	cdpcs	14, 2, cr6, cr15, cr9, {3}
    1664:	696c2f2e 	stmdbvs	ip!, {r1, r2, r3, r5, r8, r9, sl, fp, sp}^
    1668:	63672f62 	cmnvs	r7, #392	; 0x188
    166c:	72612f63 	rsbvc	r2, r1, #396	; 0x18c
    1670:	6f6e2d6d 	svcvs	0x006e2d6d
    1674:	652d656e 	strvs	r6, [sp, #-1390]!	; 0xfffffa92
    1678:	2f696261 	svccs	0x00696261
    167c:	332e3131 			; <UNDEFINED> instruction: 0x332e3131
    1680:	692f312e 	stmdbvs	pc!, {r1, r2, r3, r5, r8, ip, sp}	; <UNPREDICTABLE>
    1684:	756c636e 	strbvc	r6, [ip, #-878]!	; 0xfffffc92
    1688:	00006564 	andeq	r6, r0, r4, ror #10
    168c:	6e69616d 	powvsez	f6, f1, #5.0
    1690:	0100632e 	tsteq	r0, lr, lsr #6
    1694:	645f0000 	ldrbvs	r0, [pc], #-0	; 169c <_Min_Stack_Size+0x129c>
    1698:	75616665 	strbvc	r6, [r1, #-1637]!	; 0xfffff99b
    169c:	745f746c 	ldrbvc	r7, [pc], #-1132	; 16a4 <_Min_Stack_Size+0x12a4>
    16a0:	73657079 	cmnvc	r5, #121	; 0x79
    16a4:	0200682e 	andeq	r6, r0, #3014656	; 0x2e0000
    16a8:	735f0000 	cmpvc	pc, #0
    16ac:	6e696474 	mcrvs	4, 3, r6, cr9, cr4, {3}
    16b0:	00682e74 	rsbeq	r2, r8, r4, ror lr
    16b4:	73000003 	movwvc	r0, #3
    16b8:	32336d74 	eorscc	r6, r3, #116, 26	; 0x1d00
    16bc:	33303166 	teqcc	r0, #-2147483623	; 0x80000019
    16c0:	682e3878 	stmdavs	lr!, {r3, r4, r5, r6, fp, ip, sp}
    16c4:	00000400 	andeq	r0, r0, r0, lsl #8
    16c8:	336d7473 	cmncc	sp, #1929379840	; 0x73000000
    16cc:	30316632 	eorscc	r6, r1, r2, lsr r6
    16d0:	5f386333 	svcpl	0x00386333
    16d4:	49545845 	ldmdbmi	r4, {r0, r2, r6, fp, ip, lr}^
    16d8:	0400682e 	streq	r6, [r0], #-2094	; 0xfffff7d2
    16dc:	74730000 	ldrbtvc	r0, [r3], #-0
    16e0:	62696c64 	rsbvs	r6, r9, #100, 24	; 0x6400
    16e4:	0500682e 	streq	r6, [r0, #-2094]	; 0xfffff7d2
    16e8:	65690000 	strbvs	r0, [r9, #-0]!
    16ec:	70666565 	rsbvc	r6, r6, r5, ror #10
    16f0:	0200682e 	andeq	r6, r0, #3014656	; 0x2e0000
    16f4:	615f0000 	cmpvs	pc, r0
    16f8:	2e69736e 	cdpcs	3, 6, cr7, cr9, cr14, {3}
    16fc:	00050068 	andeq	r0, r5, r8, rrx
    1700:	77656e00 	strbvc	r6, [r5, -r0, lsl #28]!
    1704:	2e62696c 	vnmulcs.f16	s13, s4, s25	; <UNPREDICTABLE>
    1708:	00060068 	andeq	r0, r6, r8, rrx
    170c:	656e5f00 	strbvs	r5, [lr, #-3840]!	; 0xfffff100
    1710:	62696c77 	rsbvs	r6, r9, #30464	; 0x7700
    1714:	7265765f 	rsbvc	r7, r5, #99614720	; 0x5f00000
    1718:	6e6f6973 			; <UNDEFINED> instruction: 0x6e6f6973
    171c:	0500682e 	streq	r6, [r0, #-2094]	; 0xfffff7d2
    1720:	6f630000 	svcvs	0x00630000
    1724:	6769666e 	strbvs	r6, [r9, -lr, ror #12]!
    1728:	0300682e 	movweq	r6, #2094	; 0x82e
    172c:	65660000 	strbvs	r0, [r6, #-0]!
    1730:	72757461 	rsbsvc	r7, r5, #1627389952	; 0x61000000
    1734:	682e7365 	stmdavs	lr!, {r0, r2, r5, r6, r8, r9, ip, sp, lr}
    1738:	00000300 	andeq	r0, r0, r0, lsl #6
    173c:	64647473 	strbtvs	r7, [r4], #-1139	; 0xfffffb8d
    1740:	682e6665 	stmdavs	lr!, {r0, r2, r5, r6, r9, sl, sp, lr}
    1744:	00000700 	andeq	r0, r0, r0, lsl #14
    1748:	6e656572 	mcrvs	5, 3, r6, cr5, cr2, {3}
    174c:	00682e74 	rsbeq	r2, r8, r4, ror lr
    1750:	5f000003 	svcpl	0x00000003
    1754:	65707974 	ldrbvs	r7, [r0, #-2420]!	; 0xfffff68c
    1758:	00682e73 	rsbeq	r2, r8, r3, ror lr
    175c:	5f000003 	svcpl	0x00000003
    1760:	65707974 	ldrbvs	r7, [r0, #-2420]!	; 0xfffff68c
    1764:	00682e73 	rsbeq	r2, r8, r3, ror lr
    1768:	6c000002 	stcvs	0, cr0, [r0], {2}
    176c:	2e6b636f 	cdpcs	3, 6, cr6, cr11, cr15, {3}
    1770:	00030068 	andeq	r0, r3, r8, rrx
    1774:	73736100 	cmnvc	r3, #0, 2
    1778:	2e747265 	cdpcs	2, 7, cr7, cr4, cr5, {3}
    177c:	00050068 	andeq	r0, r5, r8, rrx
    1780:	65646300 	strbvs	r6, [r4, #-768]!	; 0xfffffd00
    1784:	682e7366 	stmdavs	lr!, {r1, r2, r5, r6, r8, r9, ip, sp, lr}
    1788:	00000300 	andeq	r0, r0, r0, lsl #6
    178c:	6c647473 	cfstrdvs	mvd7, [r4], #-460	; 0xfffffe34
    1790:	682e6269 	stmdavs	lr!, {r0, r3, r5, r6, r9, sp, lr}
    1794:	00000200 	andeq	r0, r0, r0, lsl #4
    1798:	6f6c6c61 	svcvs	0x006c6c61
    179c:	682e6163 	stmdavs	lr!, {r0, r1, r5, r6, r8, sp, lr}
    17a0:	00000500 	andeq	r0, r0, r0, lsl #10
    17a4:	69647473 	stmdbvs	r4!, {r0, r1, r4, r5, r6, sl, ip, sp, lr}^
    17a8:	682e746e 	stmdavs	lr!, {r1, r2, r3, r5, r6, sl, ip, sp, lr}
    17ac:	00000700 	andeq	r0, r0, r0, lsl #14
    17b0:	69647473 	stmdbvs	r4!, {r0, r1, r4, r5, r6, sl, ip, sp, lr}^
    17b4:	682e746e 	stmdavs	lr!, {r1, r2, r3, r5, r6, sl, ip, sp, lr}
    17b8:	00000500 	andeq	r0, r0, r0, lsl #10
    17bc:	746e695f 	strbtvc	r6, [lr], #-2399	; 0xfffff6a1
    17c0:	2e707573 	mrccs	5, 3, r7, cr0, cr3, {3}
    17c4:	00030068 	andeq	r0, r3, r8, rrx
    17c8:	6d747300 	ldclvs	3, cr7, [r4, #-0]
    17cc:	31663233 	cmncc	r6, r3, lsr r2
    17d0:	38633330 	stmdacc	r3!, {r4, r5, r8, r9, ip, sp}^
    17d4:	4950475f 	ldmdbmi	r0, {r0, r1, r2, r3, r4, r6, r8, r9, sl, lr}^
    17d8:	00682e4f 	rsbeq	r2, r8, pc, asr #28
    17dc:	00000004 	andeq	r0, r0, r4
    17e0:	05000105 	streq	r0, [r0, #-261]	; 0xfffffefb
    17e4:	00098402 	andeq	r8, r9, r2, lsl #8
    17e8:	010c0308 	tsteq	ip, r8, lsl #6
    17ec:	052f0b05 	streq	r0, [pc, #-2821]!	; cef <_Min_Stack_Size+0x8ef>
    17f0:	01053e02 	tsteq	r5, r2, lsl #28
    17f4:	0009024d 	andeq	r0, r9, sp, asr #4
    17f8:	01050101 	tsteq	r5, r1, lsl #2
    17fc:	a8020500 	stmdage	r2, {r8, sl}
    1800:	03080009 	movweq	r0, #32777	; 0x8009
    1804:	02050115 	andeq	r0, r5, #1073741829	; 0x40000005
    1808:	1405673e 	strne	r6, [r5], #-1854	; 0xfffff8c2
    180c:	67180569 	ldrvs	r0, [r8, -r9, ror #10]
    1810:	052f1205 	streq	r1, [pc, #-517]!	; 1613 <_Min_Stack_Size+0x1213>
    1814:	02052f1a 	andeq	r2, r5, #26, 30	; 0x68
    1818:	5a0b052f 	bpl	2c2cdc <_Min_Stack_Size+0x2c28dc>
    181c:	03410205 	movteq	r0, #4613	; 0x1205
    1820:	06053c31 			; <UNDEFINED> instruction: 0x06053c31
    1824:	2e050550 	cfrshl32cs	mvfx5, mvfx0, r0
    1828:	05300d05 	ldreq	r0, [r0, #-3333]!	; 0xfffff2fb
    182c:	0b023a05 	bleq	90048 <_Min_Stack_Size+0x8fc48>
    1830:	80010100 	andhi	r0, r1, r0, lsl #2
    1834:	03000000 	movweq	r0, #0
    1838:	00003900 	andeq	r3, r0, r0, lsl #18
    183c:	fb010200 	blx	42046 <_Min_Stack_Size+0x41c46>
    1840:	01000d0e 	tsteq	r0, lr, lsl #26
    1844:	00010101 	andeq	r0, r1, r1, lsl #2
    1848:	00010000 	andeq	r0, r1, r0
    184c:	2e2e0100 	sufcse	f0, f6, f0
    1850:	6174532f 	cmnvs	r4, pc, lsr #6
    1854:	70757472 	rsbsvc	r7, r5, r2, ror r4
    1858:	74730000 	ldrbtvc	r0, [r3], #-0
    185c:	75747261 	ldrbvc	r7, [r4, #-609]!	; 0xfffffd9f
    1860:	74735f70 	ldrbtvc	r5, [r3], #-3952	; 0xfffff090
    1864:	6632336d 	ldrtvs	r3, [r2], -sp, ror #6
    1868:	63333031 	teqvs	r3, #49	; 0x31
    186c:	2e787438 	mrccs	4, 3, r7, cr8, cr8, {1}
    1870:	00010073 	andeq	r0, r1, r3, ror r0
    1874:	05000000 	streq	r0, [r0, #-0]
    1878:	000a2002 	andeq	r2, sl, r2
    187c:	01390308 	teqeq	r9, r8, lsl #6
    1880:	21312221 	teqcs	r1, r1, lsr #4
    1884:	23212121 			; <UNDEFINED> instruction: 0x23212121
    1888:	21232121 			; <UNDEFINED> instruction: 0x21232121
    188c:	21212321 			; <UNDEFINED> instruction: 0x21212321
    1890:	23212321 			; <UNDEFINED> instruction: 0x23212321
    1894:	31302321 	teqcc	r0, r1, lsr #6
    1898:	34205603 	strtcc	r5, [r0], #-1539	; 0xfffff9fd
    189c:	0f032f2f 	svceq	0x00032f2f
    18a0:	02022f2e 	andeq	r2, r2, #46, 30	; 0xb8
    18a4:	00010100 	andeq	r0, r1, r0, lsl #2
    18a8:	0a700205 	beq	1c020c4 <_Min_Stack_Size+0x1c01cc4>
    18ac:	f2030800 	vadd.i8	d0, d3, d0
    18b0:	01020100 	mrseq	r0, (UNDEF: 18)
    18b4:	Address 0x00000000000018b4 is out of bounds.


Disassembly of section .debug_str:

00000000 <.debug_str>:
       0:	31433249 	cmpcc	r3, r9, asr #4
       4:	5f56455f 	svcpl	0x0056455f
       8:	20515249 	subscs	r5, r1, r9, asr #4
       c:	5f003133 	svcpl	0x00003133
      10:	554e475f 	strbpl	r4, [lr, #-1887]	; 0xfffff8a1
      14:	4b494c43 	blmi	1253128 <_Min_Stack_Size+0x1252d28>
      18:	5f5f5f45 	svcpl	0x005f5f45
      1c:	54434553 	strbpl	r4, [r3], #-1363	; 0xfffffaad
      20:	204e4f49 	subcs	r4, lr, r9, asr #30
      24:	4e5f0031 	mrcmi	0, 2, r0, cr15, cr1, {1}
      28:	494c5745 	stmdbmi	ip, {r0, r2, r6, r8, r9, sl, ip, lr}^
      2c:	45565f42 	ldrbmi	r5, [r6, #-3906]	; 0xfffff0be
      30:	4f495352 	svcmi	0x00495352
      34:	3422204e 	strtcc	r2, [r2], #-78	; 0xffffffb2
      38:	302e322e 	eorcc	r3, lr, lr, lsr #4
      3c:	49570022 	ldmdbmi	r7, {r1, r5}^
      40:	4d5f544e 	cfldrdmi	mvd5, [pc, #-312]	; ffffff10 <_estack+0xdfffaf10>
      44:	28204e49 	stmdacs	r0!, {r0, r3, r6, r9, sl, fp, lr}
      48:	49575f5f 	ldmdbmi	r7, {r0, r1, r2, r3, r4, r6, r8, r9, sl, fp, ip, lr}^
      4c:	4d5f544e 	cfldrdmi	mvd5, [pc, #-312]	; ffffff1c <_estack+0xdfffaf1c>
      50:	5f5f4e49 	svcpl	0x005f4e49
      54:	5f5f0029 	svcpl	0x005f0029
      58:	49434544 	stmdbmi	r3, {r2, r6, r8, sl, lr}^
      5c:	5f4c414d 	svcpl	0x004c414d
      60:	5f474944 	svcpl	0x00474944
      64:	3731205f 			; <UNDEFINED> instruction: 0x3731205f
      68:	625f5f00 	subsvs	r5, pc, #0, 30
      6c:	746c6975 	strbtvc	r6, [ip], #-2421	; 0xfffff68b
      70:	695f6e69 	ldmdbvs	pc, {r0, r3, r5, r6, r9, sl, fp, sp, lr}^	; <UNPREDICTABLE>
      74:	6c615f73 	stclvs	15, cr5, [r1], #-460	; 0xfffffe34
      78:	656e6769 	strbvs	r6, [lr, #-1897]!	; 0xfffff897
      7c:	2c782864 	ldclcs	8, cr2, [r8], #-400	; 0xfffffe70
      80:	67696c61 	strbvs	r6, [r9, -r1, ror #24]!
      84:	2820296e 	stmdacs	r0!, {r1, r2, r3, r5, r6, r8, fp, sp}
      88:	5f5f2828 	svcpl	0x005f2828
      8c:	746e6975 	strbtvc	r6, [lr], #-2421	; 0xfffff68b
      90:	5f727470 	svcpl	0x00727470
      94:	20782974 	rsbscs	r2, r8, r4, ror r9
      98:	28282026 	stmdacs	r8!, {r1, r2, r5, sp}
      9c:	67696c61 	strbvs	r6, [r9, -r1, ror #24]!
      a0:	2d20296e 			; <UNDEFINED> instruction: 0x2d20296e
      a4:	29293120 	stmdbcs	r9!, {r5, r8, ip, sp}
      a8:	203d3d20 	eorscs	r3, sp, r0, lsr #26
      ac:	5f002930 	svcpl	0x00002930
      b0:	4148555f 	cmpmi	r8, pc, asr r5
      b4:	4942465f 	stmdbmi	r2, {r0, r1, r2, r3, r4, r6, r9, sl, lr}^
      b8:	205f5f54 	subscs	r5, pc, r4, asr pc	; <UNPREDICTABLE>
      bc:	5f5f0038 	svcpl	0x005f0038
      c0:	44495653 	strbmi	r5, [r9], #-1619	; 0xfffff9ad
      c4:	5349565f 	movtpl	r5, #38495	; 0x965f
      c8:	454c4249 	strbmi	r4, [ip, #-585]	; 0xfffffdb7
      cc:	5f003120 	svcpl	0x00003120
      d0:	746e695f 	strbtvc	r6, [lr], #-2399	; 0xfffff6a1
      d4:	2b203032 	blcs	80c1a4 <_Min_Stack_Size+0x80bda4>
      d8:	58450032 	stmdapl	r5, {r1, r4, r5}^
      dc:	50364954 	eorspl	r4, r6, r4, asr r9
      e0:	28203644 	stmdacs	r0!, {r2, r6, r9, sl, ip, sp}
      e4:	49545845 	ldmdbmi	r4, {r0, r2, r6, fp, ip, lr}^
      e8:	4950475f 	ldmdbmi	r0, {r0, r1, r2, r3, r4, r6, r8, r9, sl, lr}^
      ec:	614d5f4f 	cmpvs	sp, pc, asr #30
      f0:	676e6970 			; <UNDEFINED> instruction: 0x676e6970
      f4:	7b29745f 	blvc	a5d278 <_Min_Stack_Size+0xa5ce78>
      f8:	49545845 	ldmdbmi	r4, {r0, r2, r6, fp, ip, lr}^
      fc:	47202c36 			; <UNDEFINED> instruction: 0x47202c36
     100:	444f4950 	strbmi	r4, [pc], #-2384	; 108 <_Min_Heap_Size-0xf8>
     104:	5047202c 	subpl	r2, r7, ip, lsr #32
     108:	505f4f49 	subspl	r4, pc, r9, asr #30
     10c:	365f4e49 	ldrbcc	r4, [pc], -r9, asr #28
     110:	5845202c 	stmdapl	r5, {r2, r3, r5, sp}^
     114:	5f364954 	svcpl	0x00364954
     118:	7d515249 	lfmvc	f5, 2, [r1, #-292]	; 0xfffffedc
     11c:	41434d00 	cmpmi	r3, r0, lsl #26
     120:	50475f4c 	subpl	r5, r7, ip, asr #30
     124:	495f4f49 	ldmdbmi	pc, {r0, r3, r6, r8, r9, sl, fp, lr}^	; <UNPREDICTABLE>
     128:	0074696e 	rsbseq	r6, r4, lr, ror #18
     12c:	4c465f5f 	mcrrmi	15, 5, r5, r6, cr15
     130:	5f343654 	svcpl	0x00343654
     134:	4f4e4544 	svcmi	0x004e4544
     138:	4d5f4d52 	ldclmi	13, cr4, [pc, #-328]	; fffffff8 <_estack+0xdfffaff8>
     13c:	5f5f4e49 	svcpl	0x005f4e49
     140:	392e3420 	stmdbcc	lr!, {r5, sl, ip, sp}
     144:	35363034 	ldrcc	r3, [r6, #-52]!	; 0xffffffcc
     148:	38353436 	ldmdacc	r5!, {r1, r2, r4, r5, sl, ip, sp}
     14c:	34323134 	ldrtcc	r3, [r2], #-308	; 0xfffffecc
     150:	65343536 	ldrvs	r3, [r4, #-1334]!	; 0xfffffaca
     154:	3432332d 	ldrtcc	r3, [r2], #-813	; 0xfffffcd3
     158:	00343646 	eorseq	r3, r4, r6, asr #12
     15c:	5f434e49 	svcpl	0x00434e49
     160:	334d5453 	movtcc	r5, #54355	; 0xd453
     164:	30314632 	eorscc	r4, r1, r2, lsr r6
     168:	5f385833 	svcpl	0x00385833
     16c:	00205f48 	eoreq	r5, r0, r8, asr #30
     170:	5f433249 	svcpl	0x00433249
     174:	5f315243 	svcpl	0x00315243
     178:	5f434550 	svcpl	0x00434550
     17c:	206b734d 	rsbcs	r7, fp, sp, asr #6
     180:	31783028 	cmncc	r8, r8, lsr #32
     184:	3c204c55 	stccc	12, cr4, [r0], #-340	; 0xfffffeac
     188:	3249203c 	subcc	r2, r9, #60	; 0x3c
     18c:	52435f43 	subpl	r5, r3, #268	; 0x10c
     190:	45505f31 	ldrbmi	r5, [r0, #-3889]	; 0xfffff0cf
     194:	6f505f43 	svcvs	0x00505f43
     198:	5f002973 	svcpl	0x00002973
     19c:	4343475f 	movtmi	r4, #14175	; 0x375f
     1a0:	4f54415f 	svcmi	0x0054415f
     1a4:	5f43494d 	svcpl	0x0043494d
     1a8:	41484357 	cmpmi	r8, r7, asr r3
     1ac:	5f545f52 	svcpl	0x00545f52
     1b0:	4b434f4c 	blmi	10d3ee8 <_Min_Stack_Size+0x10d3ae8>
     1b4:	4552465f 	ldrbmi	r4, [r2, #-1631]	; 0xfffff9a1
     1b8:	00322045 	eorseq	r2, r2, r5, asr #32
     1bc:	49545845 	ldmdbmi	r4, {r0, r2, r6, fp, ip, lr}^
     1c0:	39425039 	stmdbcc	r2, {r0, r3, r4, r5, ip, lr}^
     1c4:	58452820 	stmdapl	r5, {r5, fp, sp}^
     1c8:	475f4954 			; <UNDEFINED> instruction: 0x475f4954
     1cc:	5f4f4950 	svcpl	0x004f4950
     1d0:	6970614d 	ldmdbvs	r0!, {r0, r2, r3, r6, r8, sp, lr}^
     1d4:	745f676e 	ldrbvc	r6, [pc], #-1902	; 1dc <_Min_Heap_Size-0x24>
     1d8:	58457b29 	stmdapl	r5, {r0, r3, r5, r8, r9, fp, ip, sp, lr}^
     1dc:	2c394954 			; <UNDEFINED> instruction: 0x2c394954
     1e0:	49504720 	ldmdbmi	r0, {r5, r8, r9, sl, lr}^
     1e4:	202c424f 	eorcs	r4, ip, pc, asr #4
     1e8:	4f495047 	svcmi	0x00495047
     1ec:	4e49505f 	mcrmi	0, 2, r5, cr9, cr15, {2}
     1f0:	202c395f 	eorcs	r3, ip, pc, asr r9
     1f4:	49545845 	ldmdbmi	r4, {r0, r2, r6, fp, ip, lr}^
     1f8:	52495f39 	subpl	r5, r9, #57, 30	; 0xe4
     1fc:	5f007d51 	svcpl	0x00007d51
     200:	4148435f 	cmpmi	r8, pc, asr r3
     204:	4e555f52 	mrcmi	15, 2, r5, cr5, cr2, {2}
     208:	4e474953 			; <UNDEFINED> instruction: 0x4e474953
     20c:	5f5f4445 	svcpl	0x005f4445
     210:	47003120 	strmi	r3, [r0, -r0, lsr #2]
     214:	424f4950 	submi	r4, pc, #80, 18	; 0x140000
     218:	5341425f 	movtpl	r4, #4703	; 0x125f
     21c:	78302045 	ldmdavc	r0!, {r0, r2, r6, sp}
     220:	31303034 	teqcc	r0, r4, lsr r0
     224:	30304330 	eorscc	r4, r0, r0, lsr r3
     228:	49004c55 	stmdbmi	r0, {r0, r2, r4, r6, sl, fp, lr}
     22c:	435f4332 	cmpmi	pc, #-939524096	; 0xc8000000
     230:	455f3152 	ldrbmi	r3, [pc, #-338]	; e6 <_Min_Heap_Size-0x11a>
     234:	4345504e 	movtmi	r5, #20558	; 0x504e
     238:	736f505f 	cmnvc	pc, #95	; 0x5f
     23c:	55352820 	ldrpl	r2, [r5, #-2080]!	; 0xfffff7e0
     240:	564e0029 	strbpl	r0, [lr], -r9, lsr #32
     244:	495f4349 	ldmdbmi	pc, {r0, r3, r6, r8, r9, lr}^	; <UNPREDICTABLE>
     248:	30345152 	eorscc	r5, r4, r2, asr r1
     24c:	5458455f 	ldrbpl	r4, [r8], #-1375	; 0xfffffaa1
     250:	5f303149 	svcpl	0x00303149
     254:	445f3531 	ldrbmi	r3, [pc], #-1329	; 25c <_Min_Heap_Size+0x5c>
     258:	62617369 	rsbvs	r7, r1, #-1543503871	; 0xa4000001
     25c:	2820656c 	stmdacs	r0!, {r2, r3, r5, r6, r8, sl, sp, lr}
     260:	4349564e 	movtmi	r5, #38478	; 0x964e
     264:	4543495f 	strbmi	r4, [r3, #-2399]	; 0xfffff6a1
     268:	7c203152 	stfvcs	f3, [r0], #-328	; 0xfffffeb8
     26c:	3c31203d 	ldccc	0, cr2, [r1], #-244	; 0xffffff0c
     270:	0029383c 	eoreq	r3, r9, ip, lsr r8
     274:	65775f5f 	ldrbvs	r5, [r7, #-3935]!	; 0xfffff0a1
     278:	735f6b61 	cmpvc	pc, #99328	; 0x18400
     27c:	6f626d79 	svcvs	0x00626d79
     280:	5f5f206c 	svcpl	0x005f206c
     284:	72747461 	rsbsvc	r7, r4, #1627389952	; 0x61000000
     288:	74756269 	ldrbtvc	r6, [r5], #-617	; 0xfffffd97
     28c:	285f5f65 	ldmdacs	pc, {r0, r2, r5, r6, r8, r9, sl, fp, ip, lr}^	; <UNPREDICTABLE>
     290:	775f5f28 	ldrbvc	r5, [pc, -r8, lsr #30]
     294:	5f6b6165 	svcpl	0x006b6165
     298:	0029295f 	eoreq	r2, r9, pc, asr r9
     29c:	49545845 	ldmdbmi	r4, {r0, r2, r6, fp, ip, lr}^
     2a0:	5f005243 	svcpl	0x00005243
     2a4:	544c465f 	strbpl	r4, [ip], #-1631	; 0xfffff9a1
     2a8:	485f3436 	ldmdami	pc, {r1, r2, r4, r5, sl, ip, sp}^	; <UNPREDICTABLE>
     2ac:	495f5341 	ldmdbmi	pc, {r0, r6, r8, r9, ip, lr}^	; <UNPREDICTABLE>
     2b0:	4e49464e 	cdpmi	6, 4, cr4, cr9, cr14, {2}
     2b4:	5f595449 	svcpl	0x00595449
     2b8:	0031205f 	eorseq	r2, r1, pc, asr r0
     2bc:	65725f5f 	ldrbvs	r5, [r2, #-3935]!	; 0xfffff0a1
     2c0:	72697571 	rsbvc	r7, r9, #473956352	; 0x1c400000
     2c4:	655f7365 	ldrbvs	r7, [pc, #-869]	; ffffff67 <_estack+0xdfffaf67>
     2c8:	756c6378 	strbvc	r6, [ip, #-888]!	; 0xfffffc88
     2cc:	65766973 	ldrbvs	r6, [r6, #-2419]!	; 0xfffff68d
     2d0:	2e2e2e28 	cdpcs	14, 2, cr2, cr14, cr8, {1}
     2d4:	5f5f2029 	svcpl	0x005f2029
     2d8:	6b636f6c 	blvs	18dc090 <_Min_Stack_Size+0x18dbc90>
     2dc:	6e6e615f 	mcrvs	1, 3, r6, cr14, cr15, {2}
     2e0:	7461746f 	strbtvc	r7, [r1], #-1135	; 0xfffffb91
     2e4:	78652865 	stmdavc	r5!, {r0, r2, r5, r6, fp, sp}^
     2e8:	73756c63 	cmnvc	r5, #25344	; 0x6300
     2ec:	5f657669 	svcpl	0x00657669
     2f0:	6b636f6c 	blvs	18dc0a8 <_Min_Stack_Size+0x18dbca8>
     2f4:	65725f73 	ldrbvs	r5, [r2, #-3955]!	; 0xfffff08d
     2f8:	72697571 	rsbvc	r7, r9, #473956352	; 0x1c400000
     2fc:	5f286465 	svcpl	0x00286465
     300:	5f41565f 	svcpl	0x0041565f
     304:	53475241 	movtpl	r5, #29249	; 0x7241
     308:	29295f5f 	stmdbcs	r9!, {r0, r1, r2, r3, r4, r6, r8, r9, sl, fp, ip, lr}
     30c:	45525f00 	ldrbmi	r5, [r2, #-3840]	; 0xfffff100
     310:	5f544e45 	svcpl	0x00544e45
     314:	444e4152 	strbmi	r4, [lr], #-338	; 0xfffffeae
     318:	415f3834 	cmpmi	pc, r4, lsr r8	; <UNPREDICTABLE>
     31c:	70284444 	eorvc	r4, r8, r4, asr #8
     320:	20297274 	eorcs	r7, r9, r4, ror r2
     324:	74702828 	ldrbtvc	r2, [r0], #-2088	; 0xfffff7d8
     328:	3e2d2972 			; <UNDEFINED> instruction: 0x3e2d2972
     32c:	3834725f 	ldmdacc	r4!, {r0, r1, r2, r3, r4, r6, r9, ip, sp, lr}
     330:	615f3e2d 	cmpvs	pc, sp, lsr #28
     334:	00296464 	eoreq	r6, r9, r4, ror #8
     338:	31544e49 	cmpcc	r4, r9, asr #28
     33c:	494d5f36 	stmdbmi	sp, {r1, r2, r4, r5, r8, r9, sl, fp, ip, lr}^
     340:	2d28204e 	stccs	0, cr2, [r8, #-312]!	; 0xfffffec8
     344:	4e495f5f 	mcrmi	15, 2, r5, cr9, cr15, {2}
     348:	5f363154 	svcpl	0x00363154
     34c:	5f58414d 	svcpl	0x0058414d
     350:	202d205f 	eorcs	r2, sp, pc, asr r0
     354:	5f002931 	svcpl	0x00002931
     358:	414c4c5f 	cmpmi	ip, pc, asr ip
     35c:	4d554343 	ldclmi	3, cr4, [r5, #-268]	; 0xfffffef4
     360:	4e494d5f 	mcrmi	13, 2, r4, cr9, cr15, {2}
     364:	28205f5f 	stmdacs	r0!, {r0, r1, r2, r3, r4, r6, r8, r9, sl, fp, ip, lr}
     368:	3158302d 	cmpcc	r8, sp, lsr #32
     36c:	4c313350 	ldcmi	3, cr3, [r1], #-320	; 0xfffffec0
     370:	302d4b4c 	eorcc	r4, sp, ip, asr #22
     374:	33503158 	cmpcc	r0, #88, 2
     378:	4b4c4c31 	blmi	1313444 <_Min_Stack_Size+0x1313044>
     37c:	50470029 	subpl	r0, r7, r9, lsr #32
     380:	4f5f4f49 	svcmi	0x005f4f49
     384:	75707475 	ldrbvc	r7, [r0, #-1141]!	; 0xfffffb8b
     388:	70535f74 	subsvc	r5, r3, r4, ror pc
     38c:	00646565 	rsbeq	r6, r4, r5, ror #10
     390:	4f4c5f5f 	svcmi	0x004c5f5f
     394:	495f4b43 	ldmdbmi	pc, {r0, r1, r6, r8, r9, fp, lr}^	; <UNPREDICTABLE>
     398:	2854494e 	ldmdacs	r4, {r1, r2, r3, r6, r8, fp, lr}^
     39c:	73616c63 	cmnvc	r1, #25344	; 0x6300
     3a0:	6f6c2c73 	svcvs	0x006c2c73
     3a4:	20296b63 	eorcs	r6, r9, r3, ror #22
     3a8:	65747865 	ldrbvs	r7, [r4, #-2149]!	; 0xfffff79b
     3ac:	73206e72 			; <UNDEFINED> instruction: 0x73206e72
     3b0:	63757274 	cmnvs	r5, #116, 4	; 0x40000007
     3b4:	5f5f2074 	svcpl	0x005f2074
     3b8:	6b636f6c 	blvs	18dc170 <_Min_Stack_Size+0x18dbd70>
     3bc:	6c5f5f20 	mrrcvs	15, 2, r5, pc, cr0	; <UNPREDICTABLE>
     3c0:	5f6b636f 	svcpl	0x006b636f
     3c4:	20232320 	eorcs	r2, r3, r0, lsr #6
     3c8:	6b636f6c 	blvs	18dc180 <_Min_Stack_Size+0x18dbd80>
     3cc:	6c63203b 	stclvs	0, cr2, [r3], #-236	; 0xffffff14
     3d0:	20737361 	rsbscs	r7, r3, r1, ror #6
     3d4:	434f4c5f 	movtmi	r4, #64607	; 0xfc5f
     3d8:	20545f4b 	subscs	r5, r4, fp, asr #30
     3dc:	6b636f6c 	blvs	18dc194 <_Min_Stack_Size+0x18dbd94>
     3e0:	26203d20 	strtcs	r3, [r0], -r0, lsr #26
     3e4:	6f6c5f5f 	svcvs	0x006c5f5f
     3e8:	205f6b63 	subscs	r6, pc, r3, ror #22
     3ec:	6c202323 	stcvs	3, cr2, [r0], #-140	; 0xffffff74
     3f0:	006b636f 	rsbeq	r6, fp, pc, ror #6
     3f4:	54505f5f 	ldrbpl	r5, [r0], #-3935	; 0xfffff0a1
     3f8:	46494452 			; <UNDEFINED> instruction: 0x46494452
     3fc:	414d5f46 	cmpmi	sp, r6, asr #30
     400:	205f5f58 	subscs	r5, pc, r8, asr pc	; <UNPREDICTABLE>
     404:	66377830 			; <UNDEFINED> instruction: 0x66377830
     408:	66666666 	strbtvs	r6, [r6], -r6, ror #12
     40c:	5f006666 	svcpl	0x00006666
     410:	474e4f4c 	strbmi	r4, [lr, -ip, asr #30]
     414:	554f445f 	strbpl	r4, [pc, #-1119]	; ffffffbd <_estack+0xdfffafbd>
     418:	20454c42 	subcs	r4, r5, r2, asr #24
     41c:	676e6f6c 	strbvs	r6, [lr, -ip, ror #30]!
     420:	756f6420 	strbvc	r6, [pc, #-1056]!	; 8 <_Min_Heap_Size-0x1f8>
     424:	00656c62 	rsbeq	r6, r5, r2, ror #24
     428:	49545845 	ldmdbmi	r4, {r0, r2, r6, fp, ip, lr}^
     42c:	52495f39 	subpl	r5, r9, #57, 30	; 0xe4
     430:	33322051 	teqcc	r2, #81	; 0x51
     434:	495f5f00 	ldmdbmi	pc, {r8, r9, sl, fp, ip, lr}^	; <UNPREDICTABLE>
     438:	414d544e 	cmpmi	sp, lr, asr #8
     43c:	28435f58 	stmdacs	r3, {r3, r4, r6, r8, r9, sl, fp, ip, lr}^
     440:	63202963 			; <UNDEFINED> instruction: 0x63202963
     444:	20232320 	eorcs	r2, r3, r0, lsr #6
     448:	5f004c4c 	svcpl	0x00004c4c
     44c:	544e4955 	strbpl	r4, [lr], #-2389	; 0xfffff6ab
     450:	545f3233 	ldrbpl	r3, [pc], #-563	; 458 <_Min_Stack_Size+0x58>
     454:	4345445f 	movtmi	r4, #21599	; 0x545f
     458:	4552414c 	ldrbmi	r4, [r2, #-332]	; 0xfffffeb4
     45c:	57002044 	strpl	r2, [r0, -r4, asr #32]
     460:	52414843 	subpl	r4, r1, #4390912	; 0x430000
     464:	58414d5f 	stmdapl	r1, {r0, r1, r2, r3, r4, r6, r8, sl, fp, lr}^
     468:	5f5f2820 	svcpl	0x005f2820
     46c:	41484357 	cmpmi	r8, r7, asr r3
     470:	414d5f52 	cmpmi	sp, r2, asr pc
     474:	295f5f58 	ldmdbcs	pc, {r3, r4, r6, r8, r9, sl, fp, ip, lr}^	; <UNPREDICTABLE>
     478:	495f5f00 	ldmdbmi	pc, {r8, r9, sl, fp, ip, lr}^	; <UNPREDICTABLE>
     47c:	414d544e 	cmpmi	sp, lr, asr #8
     480:	414d5f58 	cmpmi	sp, r8, asr pc
     484:	205f5f58 	subscs	r5, pc, r8, asr pc	; <UNPREDICTABLE>
     488:	66377830 			; <UNDEFINED> instruction: 0x66377830
     48c:	66666666 	strbtvs	r6, [r6], -r6, ror #12
     490:	66666666 	strbtvs	r6, [r6], -r6, ror #12
     494:	66666666 	strbtvs	r6, [r6], -r6, ror #12
     498:	4c4c6666 	mcrrmi	6, 6, r6, ip, cr6
     49c:	545f5f00 	ldrbpl	r5, [pc], #-3840	; 4a4 <_Min_Stack_Size+0xa4>
     4a0:	42495f51 	submi	r5, r9, #324	; 0x144
     4a4:	5f5f5449 	svcpl	0x005f5449
     4a8:	5f003020 	svcpl	0x00003020
     4ac:	544c465f 	strbpl	r4, [ip], #-1631	; 0xfffff9a1
     4b0:	445f3436 	ldrbmi	r3, [pc], #-1078	; 4b8 <_Min_Stack_Size+0xb8>
     4b4:	4d494345 	stclmi	3, cr4, [r9, #-276]	; 0xfffffeec
     4b8:	445f4c41 	ldrbmi	r4, [pc], #-3137	; 4c0 <_Min_Stack_Size+0xc0>
     4bc:	5f5f4749 	svcpl	0x005f4749
     4c0:	00373120 	eorseq	r3, r7, r0, lsr #2
     4c4:	4349564e 	movtmi	r5, #38478	; 0x964e
     4c8:	4543495f 	strbmi	r4, [r3, #-2399]	; 0xfffff6a1
     4cc:	2a203052 	bcs	80c61c <_Min_Stack_Size+0x80c21c>
     4d0:	6c6f7628 	stclvs	6, cr7, [pc], #-160	; 438 <_Min_Stack_Size+0x38>
     4d4:	6c697461 	cfstrdvs	mvd7, [r9], #-388	; 0xfffffe7c
     4d8:	69752065 	ldmdbvs	r5!, {r0, r2, r5, r6, sp}^
     4dc:	3233746e 	eorscc	r7, r3, #1845493760	; 0x6e000000
     4e0:	2a20745f 	bcs	81d664 <_Min_Stack_Size+0x81d264>
     4e4:	564e2829 	strbpl	r2, [lr], -r9, lsr #16
     4e8:	425f4349 	subsmi	r4, pc, #603979777	; 0x24000001
     4ec:	20455341 	subcs	r5, r5, r1, asr #6
     4f0:	7830202b 	ldmdavc	r0!, {r0, r1, r3, r5, sp}
     4f4:	00293038 	eoreq	r3, r9, r8, lsr r0
     4f8:	5f433249 	svcpl	0x00433249
     4fc:	5f325253 	svcpl	0x00325253
     500:	5f4c534d 	svcpl	0x004c534d
     504:	206b734d 	rsbcs	r7, fp, sp, asr #6
     508:	31783028 	cmncc	r8, r8, lsr #32
     50c:	3c204c55 	stccc	12, cr4, [r0], #-340	; 0xfffffeac
     510:	3249203c 	subcc	r2, r9, #60	; 0x3c
     514:	52535f43 	subspl	r5, r3, #268	; 0x10c
     518:	534d5f32 	movtpl	r5, #57138	; 0xdf32
     51c:	6f505f4c 	svcvs	0x00505f4c
     520:	5f002973 	svcpl	0x00002973
     524:	4e454552 	mcrmi	5, 2, r4, cr5, cr2, {2}
     528:	49535f54 	ldmdbmi	r3, {r2, r4, r6, r8, r9, sl, fp, ip, lr}^
     52c:	4c414e47 	mcrrmi	14, 4, r4, r1, cr7
     530:	5a49535f 	bpl	12552b4 <_Min_Stack_Size+0x1254eb4>
     534:	34322045 	ldrtcc	r2, [r2], #-69	; 0xffffffbb
     538:	6d4b5f00 	stclvs	15, cr5, [fp, #-0]
     53c:	28207861 	stmdacs	r0!, {r0, r5, r6, fp, ip, sp, lr}
     540:	657a6973 	ldrbvs	r6, [sl, #-2419]!	; 0xfffff68d
     544:	2820666f 	stmdacs	r0!, {r0, r1, r2, r3, r5, r6, r9, sl, sp, lr}
     548:	657a6973 	ldrbvs	r6, [sl, #-2419]!	; 0xfffff68d
     54c:	2029745f 	eorcs	r7, r9, pc, asr r4
     550:	33203c3c 			; <UNDEFINED> instruction: 0x33203c3c
     554:	525f0029 	subspl	r0, pc, #41	; 0x29
     558:	544e4545 	strbpl	r4, [lr], #-1349	; 0xfffffabb
     55c:	4548435f 	strbmi	r4, [r8, #-863]	; 0xfffffca1
     560:	535f4b43 	cmppl	pc, #68608	; 0x10c00
     564:	414e4749 	cmpmi	lr, r9, asr #14
     568:	55425f4c 	strbpl	r5, [r2, #-3916]	; 0xfffff0b4
     56c:	61762846 	cmnvs	r6, r6, asr #16
     570:	5f202972 	svcpl	0x00202972
     574:	4e454552 	mcrmi	5, 2, r4, cr5, cr2, {2}
     578:	48435f54 	stmdami	r3, {r2, r4, r6, r8, r9, sl, fp, ip, lr}^
     57c:	284b4345 	stmdacs	fp, {r0, r2, r6, r8, r9, lr}^
     580:	2c726176 	ldfcse	f6, [r2], #-472	; 0xfffffe28
     584:	69735f20 	ldmdbvs	r3!, {r5, r8, r9, sl, fp, ip, lr}^
     588:	6c616e67 	stclvs	14, cr6, [r1], #-412	; 0xfffffe64
     58c:	6675625f 			; <UNDEFINED> instruction: 0x6675625f
     590:	6863202c 	stmdavs	r3!, {r2, r3, r5, sp}^
     594:	2a207261 	bcs	81cf20 <_Min_Stack_Size+0x81cb20>
     598:	525f202c 	subspl	r2, pc, #44	; 0x2c
     59c:	544e4545 	strbpl	r4, [lr], #-1349	; 0xfffffabb
     5a0:	4749535f 	smlsldmi	r5, r9, pc, r3	; <UNPREDICTABLE>
     5a4:	5f4c414e 	svcpl	0x004c414e
     5a8:	455a4953 	ldrbmi	r4, [sl, #-2387]	; 0xfffff6ad
     5ac:	0029202c 	eoreq	r2, r9, ip, lsr #32
     5b0:	4c555f5f 	mrrcmi	15, 5, r5, r5, cr15	; <UNPREDICTABLE>
     5b4:	55434341 	strbpl	r4, [r3, #-833]	; 0xfffffcbf
     5b8:	42465f4d 	submi	r5, r6, #308	; 0x134
     5bc:	5f5f5449 	svcpl	0x005f5449
     5c0:	00323320 	eorseq	r3, r2, r0, lsr #6
     5c4:	43575f5f 	cmpmi	r7, #380	; 0x17c
     5c8:	5f524148 	svcpl	0x00524148
     5cc:	5f58414d 	svcpl	0x0058414d
     5d0:	7830205f 	ldmdavc	r0!, {r0, r1, r2, r3, r4, r6, sp}
     5d4:	66666666 	strbtvs	r6, [r6], -r6, ror #12
     5d8:	66666666 	strbtvs	r6, [r6], -r6, ror #12
     5dc:	5f5f0055 	svcpl	0x005f0055
     5e0:	434e4f43 	movtmi	r4, #61251	; 0xef43
     5e4:	78285441 	stmdavc	r8!, {r0, r6, sl, ip, lr}
     5e8:	2029792c 	eorcs	r7, r9, ip, lsr #18
     5ec:	4f435f5f 	svcmi	0x00435f5f
     5f0:	5441434e 	strbpl	r4, [r1], #-846	; 0xfffffcb2
     5f4:	2c782831 	ldclcs	8, cr2, [r8], #-196	; 0xffffff3c
     5f8:	49002979 	stmdbmi	r0, {r0, r3, r4, r5, r6, r8, fp, sp}
     5fc:	535f4332 	cmppl	pc, #-939524096	; 0xc8000000
     600:	415f3152 	cmpmi	pc, r2, asr r1	; <UNPREDICTABLE>
     604:	204f4c52 	subcs	r4, pc, r2, asr ip	; <UNPREDICTABLE>
     608:	5f433249 	svcpl	0x00433249
     60c:	5f315253 	svcpl	0x00315253
     610:	4f4c5241 	svcmi	0x004c5241
     614:	6b734d5f 	blvs	1cd3b98 <_Min_Stack_Size+0x1cd3798>
     618:	475f5f00 	ldrbmi	r5, [pc, -r0, lsl #30]
     61c:	4c43554e 	cfstr64mi	mvdx5, [r3], {78}	; 0x4e
     620:	5f454b49 	svcpl	0x00454b49
     624:	59545f5f 	ldmdbpl	r4, {r0, r1, r2, r3, r4, r6, r8, r9, sl, fp, ip, lr}^
     628:	464f4550 			; <UNDEFINED> instruction: 0x464f4550
     62c:	5f003120 	svcpl	0x00003120
     630:	746e695f 	strbtvc	r6, [lr], #-2399	; 0xfffff6a1
     634:	5f5f3032 	svcpl	0x005f3032
     638:	465f5f00 	ldrbmi	r5, [pc], -r0, lsl #30
     63c:	4d5f544c 	cfldrdmi	mvd5, [pc, #-304]	; 514 <_Min_Stack_Size+0x114>
     640:	5f544e41 	svcpl	0x00544e41
     644:	5f474944 	svcpl	0x00474944
     648:	3432205f 	ldrtcc	r2, [r2], #-95	; 0xffffffa1
     64c:	43324900 	teqmi	r2, #0, 18
     650:	3252535f 	subscc	r5, r2, #2080374785	; 0x7c000001
     654:	4152545f 	cmpmi	r2, pc, asr r4
     658:	43324920 	teqmi	r2, #32, 18	; 0x80000
     65c:	3252535f 	subscc	r5, r2, #2080374785	; 0x7c000001
     660:	4152545f 	cmpmi	r2, pc, asr r4
     664:	6b734d5f 	blvs	1cd3be8 <_Min_Stack_Size+0x1cd37e8>
     668:	535f5f00 	cmppl	pc, #0, 30
     66c:	4f455a49 	svcmi	0x00455a49
     670:	4f4c5f46 	svcmi	0x004c5f46
     674:	4c5f474e 	mrrcmi	7, 4, r4, pc, cr14	; <UNPREDICTABLE>
     678:	5f474e4f 	svcpl	0x00474e4f
     67c:	0038205f 	eorseq	r2, r8, pc, asr r0
     680:	42445f5f 	submi	r5, r4, #380	; 0x17c
     684:	414d5f4c 	cmpmi	sp, ip, asr #30
     688:	30315f58 	eorscc	r5, r1, r8, asr pc
     68c:	5058455f 	subspl	r4, r8, pc, asr r5
     690:	33205f5f 			; <UNDEFINED> instruction: 0x33205f5f
     694:	5f003830 	svcpl	0x00003830
     698:	544c465f 	strbpl	r4, [ip], #-1631	; 0xfffff9a1
     69c:	4d5f3436 	cfldrdmi	mvd3, [pc, #-216]	; 5cc <_Min_Stack_Size+0x1cc>
     6a0:	5f544e41 	svcpl	0x00544e41
     6a4:	5f474944 	svcpl	0x00474944
     6a8:	3335205f 	teqcc	r5, #95	; 0x5f
     6ac:	465f5f00 	ldrbmi	r5, [pc], -r0, lsl #30
     6b0:	54434152 	strbpl	r4, [r3], #-338	; 0xfffffeae
     6b4:	4e494d5f 	mcrmi	13, 2, r4, cr9, cr15, {2}
     6b8:	28205f5f 	stmdacs	r0!, {r0, r1, r2, r3, r4, r6, r8, r9, sl, fp, ip, lr}
     6bc:	352e302d 	strcc	r3, [lr, #-45]!	; 0xffffffd3
     6c0:	2e302d52 	mrccs	13, 1, r2, cr0, cr2, {2}
     6c4:	00295235 	eoreq	r5, r9, r5, lsr r2
     6c8:	4f505f5f 	svcmi	0x00505f5f
     6cc:	5f584953 	svcpl	0x00584953
     6d0:	49534956 	ldmdbmi	r3, {r1, r2, r4, r6, r8, fp, lr}^
     6d4:	20454c42 	subcs	r4, r5, r2, asr #24
     6d8:	38303032 	ldmdacc	r0!, {r1, r4, r5, ip, sp}
     6dc:	49003930 	stmdbmi	r0, {r4, r5, r8, fp, ip, sp}
     6e0:	435f4332 	cmpmi	pc, #-939524096	; 0xc8000000
     6e4:	505f3152 	subspl	r3, pc, r2, asr r1	; <UNPREDICTABLE>
     6e8:	4920534f 	stmdbmi	r0!, {r0, r1, r2, r3, r6, r8, r9, ip, lr}
     6ec:	435f4332 	cmpmi	pc, #-939524096	; 0xc8000000
     6f0:	505f3152 	subspl	r3, pc, r2, asr r1	; <UNPREDICTABLE>
     6f4:	4d5f534f 	ldclmi	3, cr5, [pc, #-316]	; 5c0 <_Min_Stack_Size+0x1c0>
     6f8:	5f006b73 	svcpl	0x00006b73
     6fc:	4153555f 	cmpmi	r3, pc, asr r5
     700:	4d554343 	ldclmi	3, cr4, [r5, #-268]	; 0xfffffef4
     704:	58414d5f 	stmdapl	r1, {r0, r1, r2, r3, r4, r6, r8, sl, fp, lr}^
     708:	30205f5f 	eorcc	r5, r0, pc, asr pc
     70c:	46464658 			; <UNDEFINED> instruction: 0x46464658
     710:	382d5046 	stmdacc	sp!, {r1, r2, r6, ip, lr}
     714:	004b4855 	subeq	r4, fp, r5, asr r8
     718:	46535f5f 	usaxmi	r5, r3, pc	; <UNPREDICTABLE>
     71c:	54434152 	strbpl	r4, [r3], #-338	; 0xfffffeae
     720:	4942465f 	stmdbmi	r2, {r0, r1, r2, r3, r4, r6, r9, sl, lr}^
     724:	205f5f54 	subscs	r5, pc, r4, asr pc	; <UNPREDICTABLE>
     728:	5f5f0037 	svcpl	0x005f0037
     72c:	4d544e49 	ldclmi	14, cr4, [r4, #-292]	; 0xfffffedc
     730:	575f5841 	ldrbpl	r5, [pc, -r1, asr #16]
     734:	48544449 	ldmdami	r4, {r0, r3, r6, sl, lr}^
     738:	36205f5f 	qsaxcc	r5, r0, pc	; <UNPREDICTABLE>
     73c:	525f0034 	subspl	r0, pc, #52	; 0x34
     740:	544e4545 	strbpl	r4, [lr], #-1349	; 0xfffffabb
     744:	53424d5f 	movtpl	r4, #11615	; 0x2d5f
     748:	574f5452 	smlsldpl	r5, pc, r2, r4	; <UNPREDICTABLE>
     74c:	535f5343 	cmppl	pc, #201326593	; 0xc000001
     750:	45544154 	ldrbmi	r4, [r4, #-340]	; 0xfffffeac
     754:	72747028 	rsbsvc	r7, r4, #40	; 0x28
     758:	28282029 	stmdacs	r8!, {r0, r3, r5, sp}
     75c:	29727470 	ldmdbcs	r2!, {r4, r5, r6, sl, ip, sp, lr}^
     760:	6d5f3e2d 	ldclvs	14, cr3, [pc, #-180]	; 6b4 <_Min_Stack_Size+0x2b4>
     764:	2d637369 	stclcs	3, cr7, [r3, #-420]!	; 0xfffffe5c
     768:	626d5f3e 	rsbvs	r5, sp, #62, 30	; 0xf8
     76c:	6f747273 	svcvs	0x00747273
     770:	5f736377 	svcpl	0x00736377
     774:	74617473 	strbtvc	r7, [r1], #-1139	; 0xfffffb8d
     778:	5f002965 	svcpl	0x00002965
     77c:	4d52415f 	ldfmie	f4, [r2, #-380]	; 0xfffffe84
     780:	4145465f 	cmpmi	r5, pc, asr r6
     784:	45525554 	ldrbmi	r5, [r2, #-1364]	; 0xfffffaac
     788:	3146425f 	cmpcc	r6, pc, asr r2
     78c:	43535f36 	cmpmi	r3, #54, 30	; 0xd8
     790:	52414c41 	subpl	r4, r1, #16640	; 0x4100
     794:	4952415f 	ldmdbmi	r2, {r0, r1, r2, r3, r4, r6, r8, lr}^
     798:	454d4854 	strbmi	r4, [sp, #-2132]	; 0xfffff7ac
     79c:	00434954 	subeq	r4, r3, r4, asr r9
     7a0:	51535f5f 	cmppl	r3, pc, asr pc
     7a4:	4942495f 	stmdbmi	r2, {r0, r1, r2, r3, r4, r6, r8, fp, lr}^
     7a8:	205f5f54 	subscs	r5, pc, r4, asr pc	; <UNPREDICTABLE>
     7ac:	5f5f0030 	svcpl	0x005f0030
     7b0:	4544524f 	strbmi	r5, [r4, #-591]	; 0xfffffdb1
     7b4:	44505f52 	ldrbmi	r5, [r0], #-3922	; 0xfffff0ae
     7b8:	4e455f50 	mcrmi	15, 2, r5, cr5, cr0, {2}
     7bc:	4e414944 	vmlsmi.f16	s9, s2, s8	; <UNPREDICTABLE>
     7c0:	33205f5f 			; <UNDEFINED> instruction: 0x33205f5f
     7c4:	00323134 	eorseq	r3, r2, r4, lsr r1
     7c8:	49535f5f 	ldmdbmi	r3, {r0, r1, r2, r3, r4, r6, r8, r9, sl, fp, ip, lr}^
     7cc:	545f455a 	ldrbpl	r4, [pc], #-1370	; 7d4 <_Min_Stack_Size+0x3d4>
     7d0:	5f455059 	svcpl	0x00455059
     7d4:	6e75205f 	mrcvs	0, 3, r2, cr5, cr15, {2}
     7d8:	6e676973 			; <UNDEFINED> instruction: 0x6e676973
     7dc:	69206465 	stmdbvs	r0!, {r0, r2, r5, r6, sl, sp, lr}
     7e0:	5f00746e 	svcpl	0x0000746e
     7e4:	5f434347 	svcpl	0x00434347
     7e8:	50415257 	subpl	r5, r1, r7, asr r2
     7ec:	4454535f 	ldrbmi	r5, [r4], #-863	; 0xfffffca1
     7f0:	5f544e49 	svcpl	0x00544e49
     7f4:	5f002048 	svcpl	0x00002048
     7f8:	544c465f 	strbpl	r4, [ip], #-1631	; 0xfffff9a1
     7fc:	5341485f 	movtpl	r4, #6239	; 0x185f
     800:	4e45445f 	mcrmi	4, 2, r4, cr5, cr15, {2}
     804:	5f4d524f 	svcpl	0x004d524f
     808:	0031205f 	eorseq	r2, r1, pc, asr r0
     80c:	4e495f5f 	mcrmi	15, 2, r5, cr9, cr15, {2}
     810:	545f3854 	ldrbpl	r3, [pc], #-2132	; 818 <_Min_Stack_Size+0x418>
     814:	5f455059 	svcpl	0x00455059
     818:	6973205f 	ldmdbvs	r3!, {r0, r1, r2, r3, r4, r6, sp}^
     81c:	64656e67 	strbtvs	r6, [r5], #-3687	; 0xfffff199
     820:	61686320 	cmnvs	r8, r0, lsr #6
     824:	5f5f0072 	svcpl	0x005f0072
     828:	33544c46 	cmpcc	r4, #17920	; 0x4600
     82c:	494d5f32 	stmdbmi	sp, {r1, r4, r5, r8, r9, sl, fp, ip, lr}^
     830:	205f5f4e 	subscs	r5, pc, lr, asr #30
     834:	37312e31 			; <UNDEFINED> instruction: 0x37312e31
     838:	34393435 	ldrtcc	r3, [r9], #-1077	; 0xfffffbcb
     83c:	38303533 	ldmdacc	r0!, {r0, r1, r4, r5, r8, sl, ip, sp}
     840:	38323232 	ldmdacc	r2!, {r1, r4, r5, r9, ip, sp}
     844:	2d653537 	cfstr64cs	mvdx3, [r5, #-220]!	; 0xffffff24
     848:	33463833 	movtcc	r3, #26675	; 0x6833
     84c:	32490032 	subcc	r0, r9, #50	; 0x32
     850:	52535f43 	subspl	r5, r3, #268	; 0x10c
     854:	4d535f31 	ldclmi	15, cr5, [r3, #-196]	; 0xffffff3c
     858:	454c4142 	strbmi	r4, [ip, #-322]	; 0xfffffebe
     85c:	4d5f5452 	cfldrdmi	mvd5, [pc, #-328]	; 71c <_Min_Stack_Size+0x31c>
     860:	28206b73 	stmdacs	r0!, {r0, r1, r4, r5, r6, r8, r9, fp, sp, lr}
     864:	55317830 	ldrpl	r7, [r1, #-2096]!	; 0xfffff7d0
     868:	3c3c204c 	ldccc	0, cr2, [ip], #-304	; 0xfffffed0
     86c:	43324920 	teqmi	r2, #32, 18	; 0x80000
     870:	3152535f 	cmpcc	r2, pc, asr r3
     874:	424d535f 	submi	r5, sp, #2080374785	; 0x7c000001
     878:	52454c41 	subpl	r4, r5, #16640	; 0x4100
     87c:	6f505f54 	svcvs	0x00505f54
     880:	5f002973 	svcpl	0x00002973
     884:	4153555f 	cmpmi	r3, pc, asr r5
     888:	4d554343 	ldclmi	3, cr4, [r5, #-268]	; 0xfffffef4
     88c:	4e494d5f 	mcrmi	13, 2, r4, cr9, cr15, {2}
     890:	30205f5f 	eorcc	r5, r0, pc, asr pc
     894:	4855302e 	ldmdami	r5, {r1, r2, r3, r5, ip, sp}^
     898:	5047004b 	subpl	r0, r7, fp, asr #32
     89c:	4d5f4f49 	ldclmi	15, cr4, [pc, #-292]	; 780 <_Min_Stack_Size+0x380>
     8a0:	5f45444f 	svcpl	0x0045444f
     8a4:	5054554f 	subspl	r5, r4, pc, asr #10
     8a8:	415f5455 	cmpmi	pc, r5, asr r4	; <UNPREDICTABLE>
     8ac:	50505f46 	subspl	r5, r0, r6, asr #30
     8b0:	30783020 	rsbscc	r3, r8, r0, lsr #32
     8b4:	30303030 	eorscc	r3, r0, r0, lsr r0
     8b8:	55363030 	ldrpl	r3, [r6, #-48]!	; 0xffffffd0
     8bc:	465f5f00 	ldrbmi	r5, [pc], -r0, lsl #30
     8c0:	3233544c 	eorscc	r5, r3, #76, 8	; 0x4c000000
     8c4:	4345445f 	movtmi	r4, #21599	; 0x545f
     8c8:	4c414d49 	mcrrmi	13, 4, r4, r1, cr9
     8cc:	4749445f 	smlsldmi	r4, r9, pc, r4	; <UNPREDICTABLE>
     8d0:	39205f5f 	stmdbcc	r0!, {r0, r1, r2, r3, r4, r6, r8, r9, sl, fp, ip, lr}
     8d4:	475f5f00 	ldrbmi	r5, [pc, -r0, lsl #30]
     8d8:	415f4343 	cmpmi	pc, r3, asr #6
     8dc:	494d4f54 	stmdbmi	sp, {r2, r4, r6, r8, r9, sl, fp, lr}^
     8e0:	4c4c5f43 	mcrrmi	15, 4, r5, ip, cr3
     8e4:	5f474e4f 	svcpl	0x00474e4f
     8e8:	4b434f4c 	blmi	10d4620 <_Min_Stack_Size+0x10d4220>
     8ec:	4552465f 	ldrbmi	r4, [r2, #-1631]	; 0xfffff9a1
     8f0:	00312045 	eorseq	r2, r1, r5, asr #32
     8f4:	444c5f5f 	strbmi	r5, [ip], #-3935	; 0xfffff0a1
     8f8:	4d5f4c42 	ldclmi	12, cr4, [pc, #-264]	; 7f8 <_Min_Stack_Size+0x3f8>
     8fc:	455f4e49 	ldrbmi	r4, [pc, #-3657]	; fffffabb <_estack+0xdfffaabb>
     900:	5f5f5058 	svcpl	0x005f5058
     904:	312d2820 			; <UNDEFINED> instruction: 0x312d2820
     908:	29313230 	ldmdbcs	r1!, {r4, r5, r9, ip, sp}
     90c:	45525f00 	ldrbmi	r5, [r2, #-3840]	; 0xfffff100
     910:	5f544e45 	svcpl	0x00544e45
     914:	54494e49 	strbpl	r4, [r9], #-3657	; 0xfffff1b7
     918:	4e41525f 	mcrmi	2, 2, r5, cr1, cr15, {2}
     91c:	28383444 	ldmdacs	r8!, {r2, r6, sl, ip, sp}
     920:	29726176 	ldmdbcs	r2!, {r1, r2, r4, r5, r6, r8, sp, lr}^
     924:	206f6420 	rsbcs	r6, pc, r0, lsr #8
     928:	7473207b 	ldrbtvc	r2, [r3], #-123	; 0xffffff85
     92c:	74637572 	strbtvc	r7, [r3], #-1394	; 0xfffffa8e
     930:	65725f20 	ldrbvs	r5, [r2, #-3872]!	; 0xfffff0e0
     934:	20746e65 	rsbscs	r6, r4, r5, ror #28
     938:	20725f2a 	rsbscs	r5, r2, sl, lsr #30
     93c:	7628203d 			; <UNDEFINED> instruction: 0x7628203d
     940:	3b297261 	blcc	a5d2cc <_Min_Stack_Size+0xa5cecc>
     944:	2d725f20 	ldclcs	15, cr5, [r2, #-128]!	; 0xffffff80
     948:	34725f3e 	ldrbtcc	r5, [r2], #-3902	; 0xfffff0c2
     94c:	5f3e2d38 	svcpl	0x003e2d38
     950:	64656573 	strbtvs	r6, [r5], #-1395	; 0xfffffa8d
     954:	205d305b 	subscs	r3, sp, fp, asr r0
     958:	525f203d 	subspl	r2, pc, #61	; 0x3d
     95c:	34444e41 	strbcc	r4, [r4], #-3649	; 0xfffff1bf
     960:	45535f38 	ldrbmi	r5, [r3, #-3896]	; 0xfffff0c8
     964:	305f4445 	subscc	r4, pc, r5, asr #8
     968:	725f203b 	subsvc	r2, pc, #59	; 0x3b
     96c:	725f3e2d 	subsvc	r3, pc, #720	; 0x2d0
     970:	3e2d3834 	mcrcc	8, 1, r3, cr13, cr4, {1}
     974:	6565735f 	strbvs	r7, [r5, #-863]!	; 0xfffffca1
     978:	5d315b64 	vldmdbpl	r1!, {d5-<overflow reg d54>}
     97c:	5f203d20 	svcpl	0x00203d20
     980:	444e4152 	strbmi	r4, [lr], #-338	; 0xfffffeae
     984:	535f3834 	cmppl	pc, #52, 16	; 0x340000
     988:	5f444545 	svcpl	0x00444545
     98c:	5f203b31 	svcpl	0x00203b31
     990:	5f3e2d72 	svcpl	0x003e2d72
     994:	2d383472 	cfldrscs	mvf3, [r8, #-456]!	; 0xfffffe38
     998:	65735f3e 	ldrbvs	r5, [r3, #-3902]!	; 0xfffff0c2
     99c:	325b6465 	subscc	r6, fp, #1694498816	; 0x65000000
     9a0:	203d205d 	eorscs	r2, sp, sp, asr r0
     9a4:	4e41525f 	mcrmi	2, 2, r5, cr1, cr15, {2}
     9a8:	5f383444 	svcpl	0x00383444
     9ac:	44454553 	strbmi	r4, [r5], #-1363	; 0xfffffaad
     9b0:	203b325f 	eorscs	r3, fp, pc, asr r2
     9b4:	3e2d725f 	mcrcc	2, 1, r7, cr13, cr15, {2}
     9b8:	3834725f 	ldmdacc	r4!, {r0, r1, r2, r3, r4, r6, r9, ip, sp, lr}
     9bc:	6d5f3e2d 	ldclvs	14, cr3, [pc, #-180]	; 910 <_Min_Stack_Size+0x510>
     9c0:	5b746c75 	blpl	1d1bb9c <_Min_Stack_Size+0x1d1b79c>
     9c4:	3d205d30 	stccc	13, cr5, [r0, #-192]!	; 0xffffff40
     9c8:	41525f20 	cmpmi	r2, r0, lsr #30
     9cc:	3834444e 	ldmdacc	r4!, {r1, r2, r3, r6, sl, lr}
     9d0:	4c554d5f 	mrrcmi	13, 5, r4, r5, cr15
     9d4:	3b305f54 	blcc	c1872c <_Min_Stack_Size+0xc1832c>
     9d8:	2d725f20 	ldclcs	15, cr5, [r2, #-128]!	; 0xffffff80
     9dc:	34725f3e 	ldrbtcc	r5, [r2], #-3902	; 0xfffff0c2
     9e0:	5f3e2d38 	svcpl	0x003e2d38
     9e4:	746c756d 	strbtvc	r7, [ip], #-1389	; 0xfffffa93
     9e8:	205d315b 	subscs	r3, sp, fp, asr r1
     9ec:	525f203d 	subspl	r2, pc, #61	; 0x3d
     9f0:	34444e41 	strbcc	r4, [r4], #-3649	; 0xfffff1bf
     9f4:	554d5f38 	strbpl	r5, [sp, #-3896]	; 0xfffff0c8
     9f8:	315f544c 	cmpcc	pc, ip, asr #8
     9fc:	725f203b 	subsvc	r2, pc, #59	; 0x3b
     a00:	725f3e2d 	subsvc	r3, pc, #720	; 0x2d0
     a04:	3e2d3834 	mcrcc	8, 1, r3, cr13, cr4, {1}
     a08:	6c756d5f 	ldclvs	13, cr6, [r5], #-380	; 0xfffffe84
     a0c:	5d325b74 	vldmdbpl	r2!, {d5-<overflow reg d62>}
     a10:	5f203d20 	svcpl	0x00203d20
     a14:	444e4152 	strbmi	r4, [lr], #-338	; 0xfffffeae
     a18:	4d5f3834 	ldclmi	8, cr3, [pc, #-208]	; 950 <_Min_Stack_Size+0x550>
     a1c:	5f544c55 	svcpl	0x00544c55
     a20:	5f203b32 	svcpl	0x00203b32
     a24:	5f3e2d72 	svcpl	0x003e2d72
     a28:	2d383472 	cfldrscs	mvf3, [r8, #-456]!	; 0xfffffe38
     a2c:	64615f3e 	strbtvs	r5, [r1], #-3902	; 0xfffff0c2
     a30:	203d2064 	eorscs	r2, sp, r4, rrx
     a34:	4e41525f 	mcrmi	2, 2, r5, cr1, cr15, {2}
     a38:	5f383444 	svcpl	0x00383444
     a3c:	3b444441 	blcc	1111b48 <_Min_Stack_Size+0x1111748>
     a40:	2d725f20 	ldclcs	15, cr5, [r2, #-128]!	; 0xffffff80
     a44:	34725f3e 	ldrbtcc	r5, [r2], #-3902	; 0xfffff0c2
     a48:	5f3e2d38 	svcpl	0x003e2d38
     a4c:	646e6172 	strbtvs	r6, [lr], #-370	; 0xfffffe8e
     a50:	78656e5f 	stmdavc	r5!, {r0, r1, r2, r3, r4, r6, r9, sl, fp, sp, lr}^
     a54:	203d2074 	eorscs	r2, sp, r4, ror r0
     a58:	7d203b31 	fstmdbxvc	r0!, {d3-d26}	;@ Deprecated
     a5c:	69687720 	stmdbvs	r8!, {r5, r8, r9, sl, ip, sp, lr}^
     a60:	2820656c 	stmdacs	r0!, {r2, r3, r5, r6, r8, sl, sp, lr}
     a64:	5f002930 	svcpl	0x00002930
     a68:	42444c5f 	submi	r4, r4, #24320	; 0x5f00
     a6c:	414d5f4c 	cmpmi	sp, ip, asr #30
     a70:	445f544e 	ldrbmi	r5, [pc], #-1102	; a78 <_Min_Stack_Size+0x678>
     a74:	5f5f4749 	svcpl	0x005f4749
     a78:	00333520 	eorseq	r3, r3, r0, lsr #10
     a7c:	49545845 	ldmdbmi	r4, {r0, r2, r6, fp, ip, lr}^
     a80:	38435038 	stmdacc	r3, {r3, r4, r5, ip, lr}^
     a84:	58452820 	stmdapl	r5, {r5, fp, sp}^
     a88:	475f4954 			; <UNDEFINED> instruction: 0x475f4954
     a8c:	5f4f4950 	svcpl	0x004f4950
     a90:	6970614d 	ldmdbvs	r0!, {r0, r2, r3, r6, r8, sp, lr}^
     a94:	745f676e 	ldrbvc	r6, [pc], #-1902	; a9c <_Min_Stack_Size+0x69c>
     a98:	58457b29 	stmdapl	r5, {r0, r3, r5, r8, r9, fp, ip, sp, lr}^
     a9c:	2c384954 			; <UNDEFINED> instruction: 0x2c384954
     aa0:	49504720 	ldmdbmi	r0, {r5, r8, r9, sl, lr}^
     aa4:	202c434f 	eorcs	r4, ip, pc, asr #6
     aa8:	4f495047 	svcmi	0x00495047
     aac:	4e49505f 	mcrmi	0, 2, r5, cr9, cr15, {2}
     ab0:	202c385f 	eorcs	r3, ip, pc, asr r8
     ab4:	49545845 	ldmdbmi	r4, {r0, r2, r6, fp, ip, lr}^
     ab8:	52495f38 	subpl	r5, r9, #56, 30	; 0xe0
     abc:	49007d51 	stmdbmi	r0, {r0, r4, r6, r8, sl, fp, ip, sp, lr}
     ac0:	465f544e 	ldrbmi	r5, [pc], -lr, asr #8
     ac4:	31545341 	cmpcc	r4, r1, asr #6
     ac8:	494d5f36 	stmdbmi	sp, {r1, r2, r4, r5, r8, r9, sl, fp, ip, lr}^
     acc:	2d28204e 	stccs	0, cr2, [r8, #-312]!	; 0xfffffec8
     ad0:	4e495f5f 	mcrmi	15, 2, r5, cr9, cr15, {2}
     ad4:	41465f54 	cmpmi	r6, r4, asr pc
     ad8:	36315453 			; <UNDEFINED> instruction: 0x36315453
     adc:	58414d5f 	stmdapl	r1, {r0, r1, r2, r3, r4, r6, r8, sl, fp, lr}^
     ae0:	2d205f5f 	stccs	15, cr5, [r0, #-380]!	; 0xfffffe84
     ae4:	00293120 	eoreq	r3, r9, r0, lsr #2
     ae8:	4f495047 	svcmi	0x00495047
     aec:	4e49505f 	mcrmi	0, 2, r5, cr9, cr15, {2}
     af0:	2820395f 	stmdacs	r0!, {r0, r1, r2, r3, r4, r6, r8, fp, ip, sp}
     af4:	6e697528 	cdpvs	5, 6, cr7, cr9, cr8, {1}
     af8:	5f363174 	svcpl	0x00363174
     afc:	78302974 	ldmdavc	r0!, {r2, r4, r5, r6, r8, fp, sp}
     b00:	30303230 	eorscc	r3, r0, r0, lsr r2
     b04:	5f5f0029 	svcpl	0x005f0029
     b08:	544e4955 	strbpl	r4, [lr], #-2389	; 0xfffff6ab
     b0c:	28435f38 	stmdacs	r3, {r3, r4, r5, r8, r9, sl, fp, ip, lr}^
     b10:	63202963 			; <UNDEFINED> instruction: 0x63202963
     b14:	495f5f00 	ldmdbmi	pc, {r8, r9, sl, fp, ip, lr}^	; <UNPREDICTABLE>
     b18:	3631544e 	ldrtcc	r5, [r1], -lr, asr #8
     b1c:	5059545f 	subspl	r5, r9, pc, asr r4
     b20:	205f5f45 	subscs	r5, pc, r5, asr #30
     b24:	726f6873 	rsbvc	r6, pc, #7536640	; 0x730000
     b28:	6e692074 	mcrvs	0, 3, r2, cr9, cr4, {3}
     b2c:	5f5f0074 	svcpl	0x005f0074
     b30:	67696c61 	strbvs	r6, [r9, -r1, ror #24]!
     b34:	2864656e 	stmdacs	r4!, {r1, r2, r3, r5, r6, r8, sl, sp, lr}^
     b38:	5f202978 	svcpl	0x00202978
     b3c:	7474615f 	ldrbtvc	r6, [r4], #-351	; 0xfffffea1
     b40:	75626972 	strbvc	r6, [r2, #-2418]!	; 0xfffff68e
     b44:	5f5f6574 	svcpl	0x005f6574
     b48:	5f5f2828 	svcpl	0x005f2828
     b4c:	67696c61 	strbvs	r6, [r9, -r1, ror #24]!
     b50:	5f64656e 	svcpl	0x0064656e
     b54:	2978285f 	ldmdbcs	r8!, {r0, r1, r2, r3, r4, r6, fp, sp}^
     b58:	5f002929 	svcpl	0x00002929
     b5c:	544c465f 	strbpl	r4, [ip], #-1631	; 0xfffff9a1
     b60:	4d5f3436 	cfldrdmi	mvd3, [pc, #-216]	; a90 <_Min_Stack_Size+0x690>
     b64:	5f5f5841 	svcpl	0x005f5841
     b68:	372e3120 	strcc	r3, [lr, -r0, lsr #2]!
     b6c:	39363739 	ldmdbcc	r6!, {r0, r3, r4, r5, r8, r9, sl, ip, sp}
     b70:	34333133 	ldrtcc	r3, [r3], #-307	; 0xfffffecd
     b74:	33323638 	teqcc	r2, #56, 12	; 0x3800000
     b78:	65373531 	ldrvs	r3, [r7, #-1329]!	; 0xfffffacf
     b7c:	3830332b 	ldmdacc	r0!, {r0, r1, r3, r5, r8, r9, ip, sp}
     b80:	00343646 	eorseq	r3, r4, r6, asr #12
     b84:	5f433249 	svcpl	0x00433249
     b88:	5f315243 	svcpl	0x00315243
     b8c:	54424d53 	strbpl	r4, [r2], #-3411	; 0xfffff2ad
     b90:	5f455059 	svcpl	0x00455059
     b94:	206b734d 	rsbcs	r7, fp, sp, asr #6
     b98:	31783028 	cmncc	r8, r8, lsr #32
     b9c:	3c204c55 	stccc	12, cr4, [r0], #-340	; 0xfffffeac
     ba0:	3249203c 	subcc	r2, r9, #60	; 0x3c
     ba4:	52435f43 	subpl	r5, r3, #268	; 0x10c
     ba8:	4d535f31 	ldclmi	15, cr5, [r3, #-196]	; 0xffffff3c
     bac:	50595442 	subspl	r5, r9, r2, asr #8
     bb0:	6f505f45 	svcvs	0x00505f45
     bb4:	4e002973 			; <UNDEFINED> instruction: 0x4e002973
     bb8:	5f434956 	svcpl	0x00434956
     bbc:	31515249 	cmpcc	r1, r9, asr #4
     bc0:	58455f30 	stmdapl	r5, {r4, r5, r8, r9, sl, fp, ip, lr}^
     bc4:	5f344954 	svcpl	0x00344954
     bc8:	61736944 	cmnvs	r3, r4, asr #18
     bcc:	20656c62 	rsbcs	r6, r5, r2, ror #24
     bd0:	49564e28 	ldmdbmi	r6, {r3, r5, r9, sl, fp, lr}^
     bd4:	43495f43 	movtmi	r5, #40771	; 0x9f43
     bd8:	20305245 	eorscs	r5, r0, r5, asr #4
     bdc:	31203d7c 			; <UNDEFINED> instruction: 0x31203d7c
     be0:	30313c3c 	eorscc	r3, r1, ip, lsr ip
     be4:	525f0029 	subspl	r0, pc, #41	; 0x29
     be8:	544e4545 	strbpl	r4, [lr], #-1349	; 0xfffffabb
     bec:	5343575f 	movtpl	r5, #14175	; 0x375f
     bf0:	4d4f5452 	cfstrdmi	mvd5, [pc, #-328]	; ab0 <_Min_Stack_Size+0x6b0>
     bf4:	535f5342 	cmppl	pc, #134217729	; 0x8000001
     bf8:	45544154 	ldrbmi	r4, [r4, #-340]	; 0xfffffeac
     bfc:	72747028 	rsbsvc	r7, r4, #40	; 0x28
     c00:	28282029 	stmdacs	r8!, {r0, r3, r5, sp}
     c04:	29727470 	ldmdbcs	r2!, {r4, r5, r6, sl, ip, sp, lr}^
     c08:	6d5f3e2d 	ldclvs	14, cr3, [pc, #-180]	; b5c <_Min_Stack_Size+0x75c>
     c0c:	2d637369 	stclcs	3, cr7, [r3, #-420]!	; 0xfffffe5c
     c10:	63775f3e 	cmnvs	r7, #62, 30	; 0xf8
     c14:	6f747273 	svcvs	0x00747273
     c18:	5f73626d 	svcpl	0x0073626d
     c1c:	74617473 	strbtvc	r7, [r1], #-1139	; 0xfffffb8d
     c20:	49002965 	stmdbmi	r0, {r0, r2, r5, r6, r8, fp, sp}
     c24:	535f4332 	cmppl	pc, #-939524096	; 0xc8000000
     c28:	545f3152 	ldrbpl	r3, [pc], #-338	; c30 <_Min_Stack_Size+0x830>
     c2c:	4d5f4558 	cfldr64mi	mvdx4, [pc, #-352]	; ad4 <_Min_Stack_Size+0x6d4>
     c30:	28206b73 	stmdacs	r0!, {r0, r1, r4, r5, r6, r8, r9, fp, sp, lr}
     c34:	55317830 	ldrpl	r7, [r1, #-2096]!	; 0xfffff7d0
     c38:	3c3c204c 	ldccc	0, cr2, [ip], #-304	; 0xfffffed0
     c3c:	43324920 	teqmi	r2, #32, 18	; 0x80000
     c40:	3152535f 	cmpcc	r2, pc, asr r3
     c44:	4558545f 	ldrbmi	r5, [r8, #-1119]	; 0xfffffba1
     c48:	736f505f 	cmnvc	pc, #95	; 0x5f
     c4c:	58450029 	stmdapl	r5, {r0, r3, r5}^
     c50:	31314954 	teqcc	r1, r4, asr r9
     c54:	31314250 	teqcc	r1, r0, asr r2
     c58:	58452820 	stmdapl	r5, {r5, fp, sp}^
     c5c:	475f4954 			; <UNDEFINED> instruction: 0x475f4954
     c60:	5f4f4950 	svcpl	0x004f4950
     c64:	6970614d 	ldmdbvs	r0!, {r0, r2, r3, r6, r8, sp, lr}^
     c68:	745f676e 	ldrbvc	r6, [pc], #-1902	; c70 <_Min_Stack_Size+0x870>
     c6c:	58457b29 	stmdapl	r5, {r0, r3, r5, r8, r9, fp, ip, sp, lr}^
     c70:	31314954 	teqcc	r1, r4, asr r9
     c74:	5047202c 	subpl	r2, r7, ip, lsr #32
     c78:	2c424f49 	mcrrcs	15, 4, r4, r2, cr9
     c7c:	49504720 	ldmdbmi	r0, {r5, r8, r9, sl, lr}^
     c80:	49505f4f 	ldmdbmi	r0, {r0, r1, r2, r3, r6, r8, r9, sl, fp, ip, lr}^
     c84:	31315f4e 	teqcc	r1, lr, asr #30
     c88:	5845202c 	stmdapl	r5, {r2, r3, r5, sp}^
     c8c:	31314954 	teqcc	r1, r4, asr r9
     c90:	5152495f 	cmppl	r2, pc, asr r9
     c94:	5f5f007d 	svcpl	0x005f007d
     c98:	6f626e75 	svcvs	0x00626e75
     c9c:	65646e75 	strbvs	r6, [r4, #-3701]!	; 0xfffff18b
     ca0:	5f002064 	svcpl	0x00002064
     ca4:	544e495f 	strbpl	r4, [lr], #-2399	; 0xfffff6a1
     ca8:	68222038 	stmdavs	r2!, {r3, r4, r5, sp}
     cac:	4e002268 	cdpmi	2, 0, cr2, cr0, cr8, {3}
     cb0:	5f434956 	svcpl	0x00434956
     cb4:	38515249 	ldmdacc	r1, {r0, r3, r6, r9, ip, lr}^
     cb8:	5458455f 	ldrbpl	r4, [r8], #-1375	; 0xfffffaa1
     cbc:	455f3249 	ldrbmi	r3, [pc, #-585]	; a7b <_Min_Stack_Size+0x67b>
     cc0:	6c62616e 	stfvse	f6, [r2], #-440	; 0xfffffe48
     cc4:	4e282065 	cdpmi	0, 2, cr2, cr8, cr5, {3}
     cc8:	5f434956 	svcpl	0x00434956
     ccc:	52455349 	subpl	r5, r5, #603979777	; 0x24000001
     cd0:	3d7c2030 	ldclcc	0, cr2, [ip, #-192]!	; 0xffffff40
     cd4:	3c3c3120 	ldfccs	f3, [ip], #-128	; 0xffffff80
     cd8:	5f002938 	svcpl	0x00002938
     cdc:	4343475f 	movtmi	r4, #14175	; 0x375f
     ce0:	5641485f 			; <UNDEFINED> instruction: 0x5641485f
     ce4:	59535f45 	ldmdbpl	r3, {r0, r2, r6, r8, r9, sl, fp, ip, lr}^
     ce8:	435f434e 	cmpmi	pc, #939524097	; 0x38000001
     cec:	41504d4f 	cmpmi	r0, pc, asr #26
     cf0:	415f4552 	cmpmi	pc, r2, asr r5	; <UNPREDICTABLE>
     cf4:	535f444e 	cmppl	pc, #1308622848	; 0x4e000000
     cf8:	5f504157 	svcpl	0x00504157
     cfc:	00312031 	eorseq	r2, r1, r1, lsr r0
     d00:	5f544e49 	svcpl	0x00544e49
     d04:	5341454c 	movtpl	r4, #5452	; 0x154c
     d08:	5f363154 	svcpl	0x00363154
     d0c:	2058414d 	subscs	r4, r8, sp, asr #2
     d10:	495f5f28 	ldmdbmi	pc, {r3, r5, r8, r9, sl, fp, ip, lr}^	; <UNPREDICTABLE>
     d14:	4c5f544e 	cfldrdmi	mvd5, [pc], {78}	; 0x4e
     d18:	54534145 	ldrbpl	r4, [r3], #-325	; 0xfffffebb
     d1c:	4d5f3631 	ldclmi	6, cr3, [pc, #-196]	; c60 <_Min_Stack_Size+0x860>
     d20:	5f5f5841 	svcpl	0x005f5841
     d24:	5f5f0029 	svcpl	0x005f0029
     d28:	6c697562 	cfstr64vs	mvdx7, [r9], #-392	; 0xfffffe78
     d2c:	5f6e6974 	svcpl	0x006e6974
     d30:	67696c61 	strbvs	r6, [r9, -r1, ror #24]!
     d34:	6f645f6e 	svcvs	0x00645f6e
     d38:	78286e77 	stmdavc	r8!, {r0, r1, r2, r4, r5, r6, r9, sl, fp, sp, lr}
     d3c:	696c612c 	stmdbvs	ip!, {r2, r3, r5, r8, sp, lr}^
     d40:	20296e67 	eorcs	r6, r9, r7, ror #28
     d44:	5f5f2828 	svcpl	0x005f2828
     d48:	65707974 	ldrbvs	r7, [r0, #-2420]!	; 0xfffff68c
     d4c:	5f5f666f 	svcpl	0x005f666f
     d50:	29297828 	stmdbcs	r9!, {r3, r5, fp, ip, sp, lr}
     d54:	29782828 	ldmdbcs	r8!, {r3, r5, fp, sp}^
     d58:	287e2826 	ldmdacs	lr!, {r1, r2, r5, fp, sp}^
     d5c:	696c6128 	stmdbvs	ip!, {r3, r5, r8, sp, lr}^
     d60:	2d296e67 	stccs	14, cr6, [r9, #-412]!	; 0xfffffe64
     d64:	29292931 	stmdbcs	r9!, {r0, r4, r5, r8, fp, sp}
     d68:	5f5f0029 	svcpl	0x005f0029
     d6c:	43445453 	movtmi	r5, #17491	; 0x4453
     d70:	534f485f 	movtpl	r4, #63583	; 0xf85f
     d74:	5f444554 	svcpl	0x00444554
     d78:	0031205f 	eorseq	r2, r1, pc, asr r0
     d7c:	4c555f5f 	mrrcmi	15, 5, r5, r5, cr15	; <UNPREDICTABLE>
     d80:	4152464c 	cmpmi	r2, ip, asr #12
     d84:	465f5443 	ldrbmi	r5, [pc], -r3, asr #8
     d88:	5f544942 	svcpl	0x00544942
     d8c:	3436205f 	ldrtcc	r2, [r6], #-95	; 0xffffffa1
     d90:	444c5f00 	strbmi	r5, [ip], #-3840	; 0xfffff100
     d94:	455f4c42 	ldrbmi	r4, [pc, #-3138]	; 15a <_Min_Heap_Size-0xa6>
     d98:	42445f51 	submi	r5, r4, #324	; 0x144
     d9c:	0031204c 	eorseq	r2, r1, ip, asr #32
     da0:	49545845 	ldmdbmi	r4, {r0, r2, r6, fp, ip, lr}^
     da4:	42503331 	subsmi	r3, r0, #-1006632960	; 0xc4000000
     da8:	28203331 	stmdacs	r0!, {r0, r4, r5, r8, r9, ip, sp}
     dac:	49545845 	ldmdbmi	r4, {r0, r2, r6, fp, ip, lr}^
     db0:	4950475f 	ldmdbmi	r0, {r0, r1, r2, r3, r4, r6, r8, r9, sl, lr}^
     db4:	614d5f4f 	cmpvs	sp, pc, asr #30
     db8:	676e6970 			; <UNDEFINED> instruction: 0x676e6970
     dbc:	7b29745f 	blvc	a5df40 <_Min_Stack_Size+0xa5db40>
     dc0:	49545845 	ldmdbmi	r4, {r0, r2, r6, fp, ip, lr}^
     dc4:	202c3331 	eorcs	r3, ip, r1, lsr r3
     dc8:	4f495047 	svcmi	0x00495047
     dcc:	47202c42 	strmi	r2, [r0, -r2, asr #24]!
     dd0:	5f4f4950 	svcpl	0x004f4950
     dd4:	5f4e4950 	svcpl	0x004e4950
     dd8:	202c3331 	eorcs	r3, ip, r1, lsr r3
     ddc:	49545845 	ldmdbmi	r4, {r0, r2, r6, fp, ip, lr}^
     de0:	495f3331 	ldmdbmi	pc, {r0, r4, r5, r8, r9, ip, sp}^	; <UNPREDICTABLE>
     de4:	007d5152 	rsbseq	r5, sp, r2, asr r1
     de8:	4e495f5f 	mcrmi	15, 2, r5, cr9, cr15, {2}
     dec:	41465f54 	cmpmi	r6, r4, asr pc
     df0:	34365453 	ldrtcc	r5, [r6], #-1107	; 0xfffffbad
     df4:	5059545f 	subspl	r5, r9, pc, asr r4
     df8:	205f5f45 	subscs	r5, pc, r5, asr #30
     dfc:	676e6f6c 	strbvs	r6, [lr, -ip, ror #30]!
     e00:	6e6f6c20 	cdpvs	12, 6, cr6, cr15, cr0, {1}
     e04:	6e692067 	cdpvs	0, 6, cr2, cr9, cr7, {3}
     e08:	5f5f0074 	svcpl	0x005f0074
     e0c:	544e4957 	strbpl	r4, [lr], #-2391	; 0xfffff6a9
     e10:	5059545f 	subspl	r5, r9, pc, asr r4
     e14:	205f5f45 	subscs	r5, pc, r5, asr #30
     e18:	69736e75 	ldmdbvs	r3!, {r0, r2, r4, r5, r6, r9, sl, fp, sp, lr}^
     e1c:	64656e67 	strbtvs	r6, [r5], #-3687	; 0xfffff199
     e20:	746e6920 	strbtvc	r6, [lr], #-2336	; 0xfffff6e0
     e24:	544e4900 	strbpl	r4, [lr], #-2304	; 0xfffff700
     e28:	414d5f38 	cmpmi	sp, r8, lsr pc
     e2c:	5f282058 	svcpl	0x00282058
     e30:	544e495f 	strbpl	r4, [lr], #-2399	; 0xfffff6a1
     e34:	414d5f38 	cmpmi	sp, r8, lsr pc
     e38:	295f5f58 	ldmdbcs	pc, {r3, r4, r6, r8, r9, sl, fp, ip, lr}^	; <UNPREDICTABLE>
     e3c:	465f5f00 	ldrbmi	r5, [pc], -r0, lsl #30
     e40:	3233544c 	eorscc	r5, r3, #76, 8	; 0x4c000000
     e44:	41485f58 	cmpmi	r8, r8, asr pc
     e48:	55515f53 	ldrbpl	r5, [r1, #-3923]	; 0xfffff0ad
     e4c:	5f544549 	svcpl	0x00544549
     e50:	5f4e414e 	svcpl	0x004e414e
     e54:	0031205f 	eorseq	r2, r1, pc, asr r0
     e58:	49535f5f 	ldmdbmi	r3, {r0, r1, r2, r3, r4, r6, r8, r9, sl, fp, ip, lr}^
     e5c:	545f455a 	ldrbpl	r4, [pc], #-1370	; e64 <_Min_Stack_Size+0xa64>
     e60:	00205f5f 	eoreq	r5, r0, pc, asr pc
     e64:	44525450 	ldrbmi	r5, [r2], #-1104	; 0xfffffbb0
     e68:	5f464649 	svcpl	0x00464649
     e6c:	2058414d 	subscs	r4, r8, sp, asr #2
     e70:	505f5f28 	subspl	r5, pc, r8, lsr #30
     e74:	49445254 	stmdbmi	r4, {r2, r4, r6, r9, ip, lr}^
     e78:	4d5f4646 	ldclmi	6, cr4, [pc, #-280]	; d68 <_Min_Stack_Size+0x968>
     e7c:	5f5f5841 	svcpl	0x005f5841
     e80:	58450029 	stmdapl	r5, {r0, r3, r5}^
     e84:	34314954 	ldrtcc	r4, [r1], #-2388	; 0xfffff6ac
     e88:	34314150 	ldrtcc	r4, [r1], #-336	; 0xfffffeb0
     e8c:	58452820 	stmdapl	r5, {r5, fp, sp}^
     e90:	475f4954 			; <UNDEFINED> instruction: 0x475f4954
     e94:	5f4f4950 	svcpl	0x004f4950
     e98:	6970614d 	ldmdbvs	r0!, {r0, r2, r3, r6, r8, sp, lr}^
     e9c:	745f676e 	ldrbvc	r6, [pc], #-1902	; ea4 <_Min_Stack_Size+0xaa4>
     ea0:	58457b29 	stmdapl	r5, {r0, r3, r5, r8, r9, fp, ip, sp, lr}^
     ea4:	34314954 	ldrtcc	r4, [r1], #-2388	; 0xfffff6ac
     ea8:	5047202c 	subpl	r2, r7, ip, lsr #32
     eac:	2c414f49 	mcrrcs	15, 4, r4, r1, cr9
     eb0:	49504720 	ldmdbmi	r0, {r5, r8, r9, sl, lr}^
     eb4:	49505f4f 	ldmdbmi	r0, {r0, r1, r2, r3, r6, r8, r9, sl, fp, ip, lr}^
     eb8:	34315f4e 	ldrtcc	r5, [r1], #-3918	; 0xfffff0b2
     ebc:	5845202c 	stmdapl	r5, {r2, r3, r5, sp}^
     ec0:	34314954 	ldrtcc	r4, [r1], #-2388	; 0xfffff6ac
     ec4:	5152495f 	cmppl	r2, pc, asr r9
     ec8:	5f5f007d 	svcpl	0x005f007d
     ecc:	33544c46 	cmpcc	r4, #17920	; 0x4600
     ed0:	414d5f32 	cmpmi	sp, r2, lsr pc
     ed4:	30315f58 	eorscc	r5, r1, r8, asr pc
     ed8:	5058455f 	subspl	r4, r8, pc, asr r5
     edc:	33205f5f 			; <UNDEFINED> instruction: 0x33205f5f
     ee0:	5f5f0038 	svcpl	0x005f0038
     ee4:	5f515155 	svcpl	0x00515155
     ee8:	54494246 	strbpl	r4, [r9], #-582	; 0xfffffdba
     eec:	38205f5f 	stmdacc	r0!, {r0, r1, r2, r3, r4, r6, r8, r9, sl, fp, ip, lr}
     ef0:	43324900 	teqmi	r2, #0, 18
     ef4:	3152535f 	cmpcc	r2, pc, asr r3
     ef8:	5245425f 	subpl	r4, r5, #-268435451	; 0xf0000005
     efc:	734d5f52 	movtvc	r5, #57170	; 0xdf52
     f00:	3028206b 	eorcc	r2, r8, fp, rrx
     f04:	4c553178 	ldfmie	f3, [r5], {120}	; 0x78
     f08:	203c3c20 	eorscs	r3, ip, r0, lsr #24
     f0c:	5f433249 	svcpl	0x00433249
     f10:	5f315253 	svcpl	0x00315253
     f14:	52524542 	subspl	r4, r2, #276824064	; 0x10800000
     f18:	736f505f 	cmnvc	pc, #95	; 0x5f
     f1c:	525f0029 	subspl	r0, pc, #41	; 0x29
     f20:	544e4545 	strbpl	r4, [lr], #-1349	; 0xfffffabb
     f24:	4548435f 	strbmi	r4, [r8, #-863]	; 0xfffffca1
     f28:	545f4b43 	ldrbpl	r4, [pc], #-2883	; f30 <_Min_Stack_Size+0xb30>
     f2c:	6176284d 	cmnvs	r6, sp, asr #16
     f30:	5f202972 	svcpl	0x00202972
     f34:	4e454552 	mcrmi	5, 2, r4, cr5, cr2, {2}
     f38:	48435f54 	stmdami	r3, {r2, r4, r6, r8, r9, sl, fp, ip, lr}^
     f3c:	284b4345 	stmdacs	fp, {r0, r2, r6, r8, r9, lr}^
     f40:	2c726176 	ldfcse	f6, [r2], #-472	; 0xfffffe28
     f44:	6f6c5f20 	svcvs	0x006c5f20
     f48:	746c6163 	strbtvc	r6, [ip], #-355	; 0xfffffe9d
     f4c:	5f656d69 	svcpl	0x00656d69
     f50:	2c667562 	cfstr64cs	mvdx7, [r6], #-392	; 0xfffffe78
     f54:	72747320 	rsbsvc	r7, r4, #32, 6	; 0x80000000
     f58:	20746375 	rsbscs	r6, r4, r5, ror r3
     f5c:	6d745f5f 	ldclvs	15, cr5, [r4, #-380]!	; 0xfffffe84
     f60:	202c2a20 	eorcs	r2, ip, r0, lsr #20
     f64:	657a6973 	ldrbvs	r6, [sl, #-2419]!	; 0xfffff68d
     f68:	2a20666f 	bcs	81a92c <_Min_Stack_Size+0x81a52c>
     f6c:	61762828 	cmnvs	r6, r8, lsr #16
     f70:	3e2d2972 			; <UNDEFINED> instruction: 0x3e2d2972
     f74:	636f6c5f 	cmnvs	pc, #24320	; 0x5f00
     f78:	69746c61 	ldmdbvs	r4!, {r0, r5, r6, sl, fp, sp, lr}^
     f7c:	625f656d 	subsvs	r6, pc, #457179136	; 0x1b400000
     f80:	2c296675 	stccs	6, cr6, [r9], #-468	; 0xfffffe2c
     f84:	5f002920 	svcpl	0x00002920
     f88:	4653555f 			; <UNDEFINED> instruction: 0x4653555f
     f8c:	54434152 	strbpl	r4, [r3], #-338	; 0xfffffeae
     f90:	58414d5f 	stmdapl	r1, {r0, r1, r2, r3, r4, r6, r8, sl, fp, lr}^
     f94:	30205f5f 	eorcc	r5, r0, pc, asr pc
     f98:	50464658 	subpl	r4, r6, r8, asr r6
     f9c:	4855382d 	ldmdami	r5, {r0, r2, r3, r5, fp, ip, sp}^
     fa0:	58450052 	stmdapl	r5, {r1, r4, r6}^
     fa4:	30314954 	eorscc	r4, r1, r4, asr r9
     fa8:	00303120 	eorseq	r3, r0, r0, lsr #2
     fac:	49545845 	ldmdbmi	r4, {r0, r2, r6, fp, ip, lr}^
     fb0:	4950475f 	ldmdbmi	r0, {r0, r1, r2, r3, r4, r6, r8, r9, sl, lr}^
     fb4:	614d5f4f 	cmpvs	sp, pc, asr #30
     fb8:	676e6970 			; <UNDEFINED> instruction: 0x676e6970
     fbc:	5f00745f 	svcpl	0x0000745f
     fc0:	65656e5f 	strbvs	r6, [r5, #-3679]!	; 0xfffff1a1
     fc4:	63775f64 	cmnvs	r7, #100, 30	; 0x190
     fc8:	5f726168 	svcpl	0x00726168
     fcc:	5f5f0074 	svcpl	0x005f0074
     fd0:	33544c46 	cmpcc	r4, #17920	; 0x4600
     fd4:	494d5f32 	stmdbmi	sp, {r1, r4, r5, r8, r9, sl, fp, ip, lr}^
     fd8:	58455f4e 	stmdapl	r5, {r1, r2, r3, r6, r8, r9, sl, fp, ip, lr}^
     fdc:	205f5f50 	subscs	r5, pc, r0, asr pc	; <UNPREDICTABLE>
     fe0:	32312d28 	eorscc	r2, r1, #40, 26	; 0xa00
     fe4:	5f002935 	svcpl	0x00002935
     fe8:	7365725f 	cmnvc	r5, #-268435451	; 0xf0000005
     fec:	5f746c75 	svcpl	0x00746c75
     ff0:	5f657375 	svcpl	0x00657375
     ff4:	63656863 	cmnvs	r5, #6488064	; 0x630000
     ff8:	5f5f206b 	svcpl	0x005f206b
     ffc:	72747461 	rsbsvc	r7, r4, #1627389952	; 0x61000000
    1000:	74756269 	ldrbtvc	r6, [r5], #-617	; 0xfffffd97
    1004:	285f5f65 	ldmdacs	pc, {r0, r2, r5, r6, r8, r9, sl, fp, ip, lr}^	; <UNPREDICTABLE>
    1008:	775f5f28 	ldrbvc	r5, [pc, -r8, lsr #30]
    100c:	5f6e7261 	svcpl	0x006e7261
    1010:	73756e75 	cmnvc	r5, #1872	; 0x750
    1014:	725f6465 	subsvc	r6, pc, #1694498816	; 0x65000000
    1018:	6c757365 	ldclvs	3, cr7, [r5], #-404	; 0xfffffe6c
    101c:	295f5f74 	ldmdbcs	pc, {r2, r4, r5, r6, r8, r9, sl, fp, ip, lr}^	; <UNPREDICTABLE>
    1020:	5f5f0029 	svcpl	0x005f0029
    1024:	67696c61 	strbvs	r6, [r9, -r1, ror #24]!
    1028:	6f645f6e 	svcvs	0x00645f6e
    102c:	78286e77 	stmdavc	r8!, {r0, r1, r2, r4, r5, r6, r9, sl, fp, sp, lr}
    1030:	2029792c 	eorcs	r7, r9, ip, lsr #18
    1034:	75625f5f 	strbvc	r5, [r2, #-3935]!	; 0xfffff0a1
    1038:	69746c69 	ldmdbvs	r4!, {r0, r3, r5, r6, sl, fp, sp, lr}^
    103c:	6c615f6e 	stclvs	15, cr5, [r1], #-440	; 0xfffffe48
    1040:	5f6e6769 	svcpl	0x006e6769
    1044:	6e776f64 	cdpvs	15, 7, cr6, cr7, cr4, {3}
    1048:	202c7828 	eorcs	r7, ip, r8, lsr #16
    104c:	4d002979 	vstrmi.16	s4, [r0, #-242]	; 0xffffff0e	; <UNPREDICTABLE>
    1050:	5f4c4143 	svcpl	0x004c4143
    1054:	49545845 	ldmdbmi	r4, {r0, r2, r6, fp, ip, lr}^
    1058:	4950475f 	ldmdbmi	r0, {r0, r1, r2, r3, r4, r6, r8, r9, sl, lr}^
    105c:	70555f4f 	subsvc	r5, r5, pc, asr #30
    1060:	65746164 	ldrbvs	r6, [r4, #-356]!	; 0xfffffe9c
    1064:	54584500 	ldrbpl	r4, [r8], #-1280	; 0xfffffb00
    1068:	43503449 	cmpmi	r0, #1224736768	; 0x49000000
    106c:	45282034 	strmi	r2, [r8, #-52]!	; 0xffffffcc
    1070:	5f495458 	svcpl	0x00495458
    1074:	4f495047 	svcmi	0x00495047
    1078:	70614d5f 	rsbvc	r4, r1, pc, asr sp
    107c:	5f676e69 	svcpl	0x00676e69
    1080:	457b2974 	ldrbmi	r2, [fp, #-2420]!	; 0xfffff68c
    1084:	34495458 	strbcc	r5, [r9], #-1112	; 0xfffffba8
    1088:	5047202c 	subpl	r2, r7, ip, lsr #32
    108c:	2c434f49 	mcrrcs	15, 4, r4, r3, cr9
    1090:	49504720 	ldmdbmi	r0, {r5, r8, r9, sl, lr}^
    1094:	49505f4f 	ldmdbmi	r0, {r0, r1, r2, r3, r6, r8, r9, sl, fp, ip, lr}^
    1098:	2c345f4e 	ldccs	15, cr5, [r4], #-312	; 0xfffffec8
    109c:	54584520 	ldrbpl	r4, [r8], #-1312	; 0xfffffae0
    10a0:	495f3449 	ldmdbmi	pc, {r0, r3, r6, sl, ip, sp}^	; <UNPREDICTABLE>
    10a4:	007d5152 	rsbseq	r5, sp, r2, asr r1
    10a8:	43525f5f 	cmpmi	r2, #380	; 0x17c
    10ac:	5f444953 	svcpl	0x00444953
    10b0:	52554f53 	subspl	r4, r5, #332	; 0x14c
    10b4:	73284543 			; <UNDEFINED> instruction: 0x73284543
    10b8:	74732029 	ldrbtvc	r2, [r3], #-41	; 0xffffffd7
    10bc:	74637572 	strbtvc	r7, [r3], #-1394	; 0xfffffa8e
    10c0:	685f5f20 	ldmdavs	pc, {r5, r8, r9, sl, fp, ip, lr}^	; <UNPREDICTABLE>
    10c4:	006b6361 	rsbeq	r6, fp, r1, ror #6
    10c8:	54535953 	ldrbpl	r5, [r3], #-2387	; 0xfffff6ad
    10cc:	4d5f4d45 	ldclmi	13, cr4, [pc, #-276]	; fc0 <_Min_Stack_Size+0xbc0>
    10d0:	524f4d45 	subpl	r4, pc, #4416	; 0x1140
    10d4:	41425f59 	cmpmi	r2, r9, asr pc
    10d8:	30204553 	eorcc	r4, r0, r3, asr r5
    10dc:	46463178 			; <UNDEFINED> instruction: 0x46463178
    10e0:	30304646 	eorscc	r4, r0, r6, asr #12
    10e4:	004c5530 	subeq	r5, ip, r0, lsr r5
    10e8:	4453425f 	ldrbmi	r4, [r3], #-607	; 0xfffffda1
    10ec:	5254505f 	subspl	r5, r4, #95	; 0x5f
    10f0:	46464944 	strbmi	r4, [r6], -r4, asr #18
    10f4:	205f545f 	subscs	r5, pc, pc, asr r4	; <UNPREDICTABLE>
    10f8:	544e4900 	strbpl	r4, [lr], #-2304	; 0xfffff700
    10fc:	4d5f3631 	ldclmi	6, cr3, [pc, #-196]	; 1040 <_Min_Stack_Size+0xc40>
    1100:	28205841 	stmdacs	r0!, {r0, r6, fp, ip, lr}
    1104:	4e495f5f 	mcrmi	15, 2, r5, cr9, cr15, {2}
    1108:	5f363154 	svcpl	0x00363154
    110c:	5f58414d 	svcpl	0x0058414d
    1110:	4900295f 	stmdbmi	r0, {r0, r1, r2, r3, r4, r6, r8, fp, sp}
    1114:	535f4332 	cmppl	pc, #-939524096	; 0xc8000000
    1118:	425f3152 	subsmi	r3, pc, #-2147483628	; 0x80000014
    111c:	20525245 	subscs	r5, r2, r5, asr #4
    1120:	5f433249 	svcpl	0x00433249
    1124:	5f315253 	svcpl	0x00315253
    1128:	52524542 	subspl	r4, r2, #276824064	; 0x10800000
    112c:	6b734d5f 	blvs	1cd46b0 <_Min_Stack_Size+0x1cd42b0>
    1130:	49504700 	ldmdbmi	r0, {r8, r9, sl, lr}^
    1134:	4f4d5f4f 	svcmi	0x004d5f4f
    1138:	495f4544 	ldmdbmi	pc, {r2, r6, r8, sl, lr}^	; <UNPREDICTABLE>
    113c:	5455504e 	ldrbpl	r5, [r5], #-78	; 0xffffffb2
    1140:	2044505f 	subcs	r5, r4, pc, asr r0
    1144:	30307830 	eorscc	r7, r0, r0, lsr r8
    1148:	30303030 	eorscc	r3, r0, r0, lsr r0
    114c:	00553330 	subseq	r3, r5, r0, lsr r3
    1150:	49545845 	ldmdbmi	r4, {r0, r2, r6, fp, ip, lr}^
    1154:	44503431 	ldrbmi	r3, [r0], #-1073	; 0xfffffbcf
    1158:	28203431 	stmdacs	r0!, {r0, r4, r5, sl, ip, sp}
    115c:	49545845 	ldmdbmi	r4, {r0, r2, r6, fp, ip, lr}^
    1160:	4950475f 	ldmdbmi	r0, {r0, r1, r2, r3, r4, r6, r8, r9, sl, lr}^
    1164:	614d5f4f 	cmpvs	sp, pc, asr #30
    1168:	676e6970 			; <UNDEFINED> instruction: 0x676e6970
    116c:	7b29745f 	blvc	a5e2f0 <_Min_Stack_Size+0xa5def0>
    1170:	49545845 	ldmdbmi	r4, {r0, r2, r6, fp, ip, lr}^
    1174:	202c3431 	eorcs	r3, ip, r1, lsr r4
    1178:	4f495047 	svcmi	0x00495047
    117c:	47202c44 	strmi	r2, [r0, -r4, asr #24]!
    1180:	5f4f4950 	svcpl	0x004f4950
    1184:	5f4e4950 	svcpl	0x004e4950
    1188:	202c3431 	eorcs	r3, ip, r1, lsr r4
    118c:	49545845 	ldmdbmi	r4, {r0, r2, r6, fp, ip, lr}^
    1190:	495f3431 	ldmdbmi	pc, {r0, r4, r5, sl, ip, sp}^	; <UNPREDICTABLE>
    1194:	007d5152 	rsbseq	r5, sp, r2, asr r1
    1198:	4c555f5f 	mrrcmi	15, 5, r5, r5, cr15	; <UNPREDICTABLE>
    119c:	43415246 	movtmi	r5, #4678	; 0x1246
    11a0:	42465f54 	submi	r5, r6, #84, 30	; 0x150
    11a4:	5f5f5449 	svcpl	0x005f5449
    11a8:	00323320 	eorseq	r3, r2, r0, lsr #6
    11ac:	49545845 	ldmdbmi	r4, {r0, r2, r6, fp, ip, lr}^
    11b0:	31203231 			; <UNDEFINED> instruction: 0x31203231
    11b4:	5f5f0032 	svcpl	0x005f0032
    11b8:	36544c46 	ldrbcc	r4, [r4], -r6, asr #24
    11bc:	494d5f34 	stmdbmi	sp, {r2, r4, r5, r8, r9, sl, fp, ip, lr}^
    11c0:	30315f4e 	eorscc	r5, r1, lr, asr #30
    11c4:	5058455f 	subspl	r4, r8, pc, asr r5
    11c8:	28205f5f 	stmdacs	r0!, {r0, r1, r2, r3, r4, r6, r8, r9, sl, fp, ip, lr}
    11cc:	3730332d 	ldrcc	r3, [r0, -sp, lsr #6]!
    11d0:	5f5f0029 	svcpl	0x005f0029
    11d4:	657a6973 	ldrbvs	r6, [sl, #-2419]!	; 0xfffff68d
    11d8:	0020745f 	eoreq	r7, r0, pc, asr r4
    11dc:	6f625f5f 	svcvs	0x00625f5f
    11e0:	65646e75 	strbvs	r6, [r4, #-3701]!	; 0xfffff18b
    11e4:	5f002064 	svcpl	0x00002064
    11e8:	746e695f 	strbtvc	r6, [lr], #-2399	; 0xfffff6a1
    11ec:	7361665f 	cmnvc	r1, #99614720	; 0x5f00000
    11f0:	5f323374 	svcpl	0x00323374
    11f4:	65645f74 	strbvs	r5, [r4, #-3956]!	; 0xfffff08c
    11f8:	656e6966 	strbvs	r6, [lr, #-2406]!	; 0xfffff69a
    11fc:	00312064 	eorseq	r2, r1, r4, rrx
    1200:	55424544 	strbpl	r4, [r2, #-1348]	; 0xfffffabc
    1204:	00312047 	eorseq	r2, r1, r7, asr #32
    1208:	49545845 	ldmdbmi	r4, {r0, r2, r6, fp, ip, lr}^
    120c:	31415031 	cmpcc	r1, r1, lsr r0
    1210:	58452820 	stmdapl	r5, {r5, fp, sp}^
    1214:	475f4954 			; <UNDEFINED> instruction: 0x475f4954
    1218:	5f4f4950 	svcpl	0x004f4950
    121c:	6970614d 	ldmdbvs	r0!, {r0, r2, r3, r6, r8, sp, lr}^
    1220:	745f676e 	ldrbvc	r6, [pc], #-1902	; 1228 <_Min_Stack_Size+0xe28>
    1224:	58457b29 	stmdapl	r5, {r0, r3, r5, r8, r9, fp, ip, sp, lr}^
    1228:	2c314954 			; <UNDEFINED> instruction: 0x2c314954
    122c:	49504720 	ldmdbmi	r0, {r5, r8, r9, sl, lr}^
    1230:	202c414f 	eorcs	r4, ip, pc, asr #2
    1234:	4f495047 	svcmi	0x00495047
    1238:	4e49505f 	mcrmi	0, 2, r5, cr9, cr15, {2}
    123c:	202c315f 	eorcs	r3, ip, pc, asr r1
    1240:	49545845 	ldmdbmi	r4, {r0, r2, r6, fp, ip, lr}^
    1244:	52495f31 	subpl	r5, r9, #49, 30	; 0xc4
    1248:	47007d51 	smlsdmi	r0, r1, sp, r7
    124c:	5f4f4950 	svcpl	0x004f4950
    1250:	5f4e4950 	svcpl	0x004e4950
    1254:	28282031 	stmdacs	r8!, {r0, r4, r5, sp}
    1258:	746e6975 	strbtvc	r6, [lr], #-2421	; 0xfffff68b
    125c:	745f3631 	ldrbvc	r3, [pc], #-1585	; 1264 <_Min_Stack_Size+0xe64>
    1260:	30783029 	rsbscc	r3, r8, r9, lsr #32
    1264:	29323030 	ldmdbcs	r2!, {r4, r5, ip, sp}
    1268:	49504700 	ldmdbmi	r0, {r8, r9, sl, lr}^
    126c:	45525f4f 	ldrbmi	r5, [r2, #-3919]	; 0xfffff0b1
    1270:	4e525554 	mrcmi	5, 2, r5, cr2, cr4, {2}
    1274:	434f4c5f 	movtmi	r4, #64607	; 0xfc5f
    1278:	52455f4b 	subpl	r5, r5, #300	; 0x12c
    127c:	20524f52 	subscs	r4, r2, r2, asr pc
    1280:	4e490031 	mcrmi	0, 2, r0, cr9, cr1, {1}
    1284:	5f363154 	svcpl	0x00363154
    1288:	29782843 	ldmdbcs	r8!, {r0, r1, r6, fp, sp}^
    128c:	495f5f20 	ldmdbmi	pc, {r5, r8, r9, sl, fp, ip, lr}^	; <UNPREDICTABLE>
    1290:	3631544e 	ldrtcc	r5, [r1], -lr, asr #8
    1294:	7828435f 	stmdavc	r8!, {r0, r1, r2, r3, r4, r6, r8, r9, lr}
    1298:	5f5f0029 	svcpl	0x005f0029
    129c:	41524653 	cmpmi	r2, r3, asr r6
    12a0:	455f5443 	ldrbmi	r5, [pc, #-1091]	; e65 <_Min_Stack_Size+0xa65>
    12a4:	4c495350 	mcrrmi	3, 5, r5, r9, cr0
    12a8:	5f5f4e4f 	svcpl	0x005f4e4f
    12ac:	31783020 	cmncc	r8, r0, lsr #32
    12b0:	48372d50 	ldmdami	r7!, {r4, r6, r8, sl, fp, sp}
    12b4:	5f5f0052 	svcpl	0x005f0052
    12b8:	434e4f43 	movtmi	r4, #61251	; 0xef43
    12bc:	28315441 	ldmdacs	r1!, {r0, r6, sl, ip, lr}
    12c0:	29792c78 	ldmdbcs	r9!, {r3, r4, r5, r6, sl, fp, sp}^
    12c4:	23207820 			; <UNDEFINED> instruction: 0x23207820
    12c8:	00792023 	rsbseq	r2, r9, r3, lsr #32
    12cc:	5f433249 	svcpl	0x00433249
    12d0:	5f315243 	svcpl	0x00315243
    12d4:	5f4b4341 	svcpl	0x004b4341
    12d8:	20736f50 	rsbscs	r6, r3, r0, asr pc
    12dc:	55303128 	ldrpl	r3, [r0, #-296]!	; 0xfffffed8
    12e0:	545f0029 	ldrbpl	r0, [pc], #-41	; 12e8 <_Min_Stack_Size+0xee8>
    12e4:	5a49535f 	bpl	1256068 <_Min_Stack_Size+0x1255c68>
    12e8:	5f002045 	svcpl	0x00002045
    12ec:	4c42445f 	cfstrdmi	mvd4, [r2], {95}	; 0x5f
    12f0:	4e494d5f 	mcrmi	13, 2, r4, cr9, cr15, {2}
    12f4:	5f30315f 	svcpl	0x0030315f
    12f8:	5f505845 	svcpl	0x00505845
    12fc:	2d28205f 	stccs	0, cr2, [r8, #-380]!	; 0xfffffe84
    1300:	29373033 	ldmdbcs	r7!, {r0, r1, r4, r5, ip, sp}
    1304:	555f5f00 	ldrbpl	r5, [pc, #-3840]	; 40c <_Min_Stack_Size+0xc>
    1308:	465f5153 			; <UNDEFINED> instruction: 0x465f5153
    130c:	5f544942 	svcpl	0x00544942
    1310:	3233205f 	eorscc	r2, r3, #95	; 0x5f
    1314:	4f5f5f00 	svcmi	0x005f5f00
    1318:	52454452 	subpl	r4, r5, #1375731712	; 0x52000000
    131c:	4749425f 	smlsldmi	r4, r9, pc, r2	; <UNPREDICTABLE>
    1320:	444e455f 	strbmi	r4, [lr], #-1375	; 0xfffffaa1
    1324:	5f4e4149 	svcpl	0x004e4149
    1328:	3334205f 	teqcc	r4, #95	; 0x5f
    132c:	45003132 	strmi	r3, [r0, #-306]	; 0xfffffece
    1330:	31495458 	cmpcc	r9, r8, asr r4
    1334:	34312034 	ldrtcc	r2, [r1], #-52	; 0xffffffcc
    1338:	555f5f00 	ldrbpl	r5, [pc, #-3840]	; 440 <_Min_Stack_Size+0x40>
    133c:	50544e49 	subspl	r4, r4, r9, asr #28
    1340:	545f5254 	ldrbpl	r5, [pc], #-596	; 1348 <_Min_Stack_Size+0xf48>
    1344:	5f455059 	svcpl	0x00455059
    1348:	6e75205f 	mrcvs	0, 3, r2, cr5, cr15, {2}
    134c:	6e676973 			; <UNDEFINED> instruction: 0x6e676973
    1350:	69206465 	stmdbvs	r0!, {r0, r2, r5, r6, sl, sp, lr}
    1354:	5f00746e 	svcpl	0x0000746e
    1358:	5f51535f 	svcpl	0x0051535f
    135c:	54494246 	strbpl	r4, [r9], #-582	; 0xfffffdba
    1360:	33205f5f 			; <UNDEFINED> instruction: 0x33205f5f
    1364:	50470031 	subpl	r0, r7, r1, lsr r0
    1368:	4d5f4f49 	ldclmi	15, cr4, [pc, #-292]	; 124c <_Min_Stack_Size+0xe4c>
    136c:	5f45444f 	svcpl	0x0045444f
    1370:	55504e49 	ldrbpl	r4, [r0, #-3657]	; 0xfffff1b7
    1374:	55505f54 	ldrbpl	r5, [r0, #-3924]	; 0xfffff0ac
    1378:	30783020 	rsbscc	r3, r8, r0, lsr #32
    137c:	30303030 	eorscc	r3, r0, r0, lsr r0
    1380:	55323030 	ldrpl	r3, [r2, #-48]!	; 0xffffffd0
    1384:	4c455f00 	mcrrmi	15, 0, r5, r5, cr0
    1388:	42414449 	submi	r4, r1, #1224736768	; 0x49000000
    138c:	495f454c 	ldmdbmi	pc, {r2, r3, r6, r8, sl, lr}^	; <UNPREDICTABLE>
    1390:	4e494c4e 	cdpmi	12, 4, cr4, cr9, cr14, {2}
    1394:	74732045 	ldrbtvc	r2, [r3], #-69	; 0xffffffbb
    1398:	63697461 	cmnvs	r9, #1627389952	; 0x61000000
    139c:	695f5f20 	ldmdbvs	pc, {r5, r8, r9, sl, fp, ip, lr}^	; <UNPREDICTABLE>
    13a0:	6e696c6e 	cdpvs	12, 6, cr6, cr9, cr14, {3}
    13a4:	005f5f65 	subseq	r5, pc, r5, ror #30
    13a8:	5f433249 	svcpl	0x00433249
    13ac:	5f315243 	svcpl	0x00315243
    13b0:	20434550 	subcs	r4, r3, r0, asr r5
    13b4:	5f433249 	svcpl	0x00433249
    13b8:	5f315243 	svcpl	0x00315243
    13bc:	5f434550 	svcpl	0x00434550
    13c0:	006b734d 	rsbeq	r7, fp, sp, asr #6
    13c4:	4e49555f 	mcrmi	5, 2, r5, cr9, cr15, {2}
    13c8:	5f363154 	svcpl	0x00363154
    13cc:	45445f54 	strbmi	r5, [r4, #-3924]	; 0xfffff0ac
    13d0:	52414c43 	subpl	r4, r1, #17152	; 0x4300
    13d4:	00204445 	eoreq	r4, r0, r5, asr #8
    13d8:	52535446 	subspl	r5, r3, #1174405120	; 0x46000000
    13dc:	43324900 	teqmi	r2, #0, 18
    13e0:	3252435f 	subscc	r4, r2, #2080374785	; 0x7c000001
    13e4:	4554495f 	ldrbmi	r4, [r4, #-2399]	; 0xfffff6a1
    13e8:	4e455252 	mcrmi	2, 2, r5, cr5, cr2, {2}
    13ec:	736f505f 	cmnvc	pc, #95	; 0x5f
    13f0:	55382820 	ldrpl	r2, [r8, #-2080]!	; 0xfffff7e0
    13f4:	5f5f0029 	svcpl	0x005f0029
    13f8:	5f514855 	svcpl	0x00514855
    13fc:	54494246 	strbpl	r4, [r9], #-582	; 0xfffffdba
    1400:	31205f5f 			; <UNDEFINED> instruction: 0x31205f5f
    1404:	50470036 	subpl	r0, r7, r6, lsr r0
    1408:	505f4f49 	subspl	r4, pc, r9, asr #30
    140c:	385f4e49 	ldmdacc	pc, {r0, r3, r6, r9, sl, fp, lr}^	; <UNPREDICTABLE>
    1410:	75282820 	strvc	r2, [r8, #-2080]!	; 0xfffff7e0
    1414:	31746e69 	cmncc	r4, r9, ror #28
    1418:	29745f36 	ldmdbcs	r4!, {r1, r2, r4, r5, r8, r9, sl, fp, ip, lr}^
    141c:	31307830 	teqcc	r0, r0, lsr r8
    1420:	00293030 	eoreq	r3, r9, r0, lsr r0
    1424:	5f544e49 	svcpl	0x00544e49
    1428:	5341454c 	movtpl	r4, #5452	; 0x154c
    142c:	5f343654 	svcpl	0x00343654
    1430:	2058414d 	subscs	r4, r8, sp, asr #2
    1434:	495f5f28 	ldmdbmi	pc, {r3, r5, r8, r9, sl, fp, ip, lr}^	; <UNPREDICTABLE>
    1438:	4c5f544e 	cfldrdmi	mvd5, [pc], {78}	; 0x4e
    143c:	54534145 	ldrbpl	r4, [r3], #-325	; 0xfffffebb
    1440:	4d5f3436 	cfldrdmi	mvd3, [pc, #-216]	; 1370 <_Min_Stack_Size+0xf70>
    1444:	5f5f5841 	svcpl	0x005f5841
    1448:	525f0029 	subspl	r0, pc, #41	; 0x29
    144c:	544e4545 	strbpl	r4, [lr], #-1349	; 0xfffffabb
    1450:	454d455f 	strbmi	r4, [sp, #-1375]	; 0xfffffaa1
    1454:	4e454752 	mcrmi	7, 2, r4, cr5, cr2, {2}
    1458:	535f5943 	cmppl	pc, #1097728	; 0x10c000
    145c:	20455a49 	subcs	r5, r5, r9, asr #20
    1460:	5f003532 	svcpl	0x00003532
    1464:	5254505f 	subspl	r5, r4, #95	; 0x5f
    1468:	46464944 	strbmi	r4, [r6], -r4, asr #18
    146c:	4449575f 	strbmi	r5, [r9], #-1887	; 0xfffff8a1
    1470:	5f5f4854 	svcpl	0x005f4854
    1474:	00323320 	eorseq	r3, r2, r0, lsr #6
    1478:	65775f5f 	ldrbvs	r5, [r7, #-3935]!	; 0xfffff0a1
    147c:	725f6b61 	subsvc	r6, pc, #99328	; 0x18400
    1480:	72656665 	rsbvc	r6, r5, #105906176	; 0x6500000
    1484:	65636e65 	strbvs	r6, [r3, #-3685]!	; 0xfffff19b
    1488:	6d797328 	ldclvs	3, cr7, [r9, #-160]!	; 0xffffff60
    148c:	696c612c 	stmdbvs	ip!, {r2, r3, r5, r8, sp, lr}^
    1490:	20297361 	eorcs	r7, r9, r1, ror #6
    1494:	73615f5f 	cmnvc	r1, #380	; 0x17c
    1498:	285f5f6d 	ldmdacs	pc, {r0, r2, r3, r5, r6, r8, r9, sl, fp, ip, lr}^	; <UNPREDICTABLE>
    149c:	65772e22 	ldrbvs	r2, [r7, #-3618]!	; 0xfffff1de
    14a0:	22206b61 	eorcs	r6, r0, #99328	; 0x18400
    14a4:	6c612320 	stclvs	3, cr2, [r1], #-128	; 0xffffff80
    14a8:	29736169 	ldmdbcs	r3!, {r0, r3, r5, r6, r8, sp, lr}^
    14ac:	5f5f203b 	svcpl	0x005f203b
    14b0:	5f6d7361 	svcpl	0x006d7361
    14b4:	2e22285f 	mcrcs	8, 1, r2, cr2, cr15, {2}
    14b8:	20757165 	rsbscs	r7, r5, r5, ror #2
    14bc:	61232022 			; <UNDEFINED> instruction: 0x61232022
    14c0:	7361696c 	cmnvc	r1, #108, 18	; 0x1b0000
    14c4:	202c2220 	eorcs	r2, ip, r0, lsr #4
    14c8:	73232022 			; <UNDEFINED> instruction: 0x73232022
    14cc:	00296d79 	eoreq	r6, r9, r9, ror sp
    14d0:	5f433249 	svcpl	0x00433249
    14d4:	5f315243 	svcpl	0x00315243
    14d8:	5f434550 	svcpl	0x00434550
    14dc:	20736f50 	rsbscs	r6, r3, r0, asr pc
    14e0:	55323128 	ldrpl	r3, [r2, #-296]!	; 0xfffffed8
    14e4:	58450029 	stmdapl	r5, {r0, r3, r5}^
    14e8:	20344954 	eorscs	r4, r4, r4, asr r9
    14ec:	5f5f0034 	svcpl	0x005f0034
    14f0:	544e4955 	strbpl	r4, [lr], #-2389	; 0xfffff6ab
    14f4:	5341465f 	movtpl	r4, #5727	; 0x165f
    14f8:	4d5f3854 	ldclmi	8, cr3, [pc, #-336]	; 13b0 <_Min_Stack_Size+0xfb0>
    14fc:	5f5f5841 	svcpl	0x005f5841
    1500:	66783020 	ldrbtvs	r3, [r8], -r0, lsr #32
    1504:	66666666 	strbtvs	r6, [r6], -r6, ror #12
    1508:	55666666 	strbpl	r6, [r6, #-1638]!	; 0xfffff99a
    150c:	544e4900 	strbpl	r4, [lr], #-2304	; 0xfffff700
    1510:	4d5f3233 	lfmmi	f3, 2, [pc, #-204]	; 144c <_Min_Stack_Size+0x104c>
    1514:	28204e49 	stmdacs	r0!, {r0, r3, r6, r9, sl, fp, lr}
    1518:	495f5f2d 	ldmdbmi	pc, {r0, r2, r3, r5, r8, r9, sl, fp, ip, lr}^	; <UNPREDICTABLE>
    151c:	3233544e 	eorscc	r5, r3, #1308622848	; 0x4e000000
    1520:	58414d5f 	stmdapl	r1, {r0, r1, r2, r3, r4, r6, r8, sl, fp, lr}^
    1524:	2d205f5f 	stccs	15, cr5, [r0, #-380]!	; 0xfffffe84
    1528:	00293120 	eoreq	r3, r9, r0, lsr #2
    152c:	61685f5f 	cmnvs	r8, pc, asr pc
    1530:	78655f73 	stmdavc	r5!, {r0, r1, r4, r5, r6, r8, r9, sl, fp, ip, lr}^
    1534:	736e6574 	cmnvc	lr, #116, 10	; 0x1d000000
    1538:	206e6f69 	rsbcs	r6, lr, r9, ror #30
    153c:	61685f5f 	cmnvs	r8, pc, asr pc
    1540:	65665f73 	strbvs	r5, [r6, #-3955]!	; 0xfffff08d
    1544:	72757461 	rsbsvc	r7, r5, #1627389952	; 0x61000000
    1548:	5f5f0065 	svcpl	0x005f0065
    154c:	4343414c 	movtmi	r4, #12620	; 0x314c
    1550:	495f4d55 	ldmdbmi	pc, {r0, r2, r4, r6, r8, sl, fp, lr}^	; <UNPREDICTABLE>
    1554:	5f544942 	svcpl	0x00544942
    1558:	3233205f 	eorscc	r2, r3, #95	; 0x5f
    155c:	54584500 	ldrbpl	r4, [r8], #-1280	; 0xfffffb00
    1560:	41425f49 	cmpmi	r2, r9, asr #30
    1564:	30204553 	eorcc	r4, r0, r3, asr r5
    1568:	30303478 	eorscc	r3, r0, r8, ror r4
    156c:	30343031 	eorscc	r3, r4, r1, lsr r0
    1570:	004c5530 	subeq	r5, ip, r0, lsr r5
    1574:	69755f5f 	ldmdbvs	r5!, {r0, r1, r2, r3, r4, r6, r8, r9, sl, fp, ip, lr}^
    1578:	5f38746e 	svcpl	0x0038746e
    157c:	5f5f0074 	svcpl	0x005f0074
    1580:	495f4148 	ldmdbmi	pc, {r3, r6, r8, lr}^	; <UNPREDICTABLE>
    1584:	5f544942 	svcpl	0x00544942
    1588:	0038205f 	eorseq	r2, r8, pc, asr r0
    158c:	454e5f5f 	strbmi	r5, [lr, #-3935]	; 0xfffff0a1
    1590:	42494c57 	submi	r4, r9, #22272	; 0x5700
    1594:	5f5f485f 	svcpl	0x005f485f
    1598:	5f003120 	svcpl	0x00003120
    159c:	544e495f 	strbpl	r4, [lr], #-2399	; 0xfffff6a1
    15a0:	5341465f 	movtpl	r4, #5727	; 0x165f
    15a4:	5f363154 	svcpl	0x00363154
    15a8:	54444957 	strbpl	r4, [r4], #-2391	; 0xfffff6a9
    15ac:	205f5f48 	subscs	r5, pc, r8, asr #30
    15b0:	45003233 	strmi	r3, [r0, #-563]	; 0xfffffdcd
    15b4:	31495458 	cmpcc	r9, r8, asr r4
    15b8:	20314350 	eorscs	r4, r1, r0, asr r3
    15bc:	54584528 	ldrbpl	r4, [r8], #-1320	; 0xfffffad8
    15c0:	50475f49 	subpl	r5, r7, r9, asr #30
    15c4:	4d5f4f49 	ldclmi	15, cr4, [pc, #-292]	; 14a8 <_Min_Stack_Size+0x10a8>
    15c8:	6e697061 	cdpvs	0, 6, cr7, cr9, cr1, {3}
    15cc:	29745f67 	ldmdbcs	r4!, {r0, r1, r2, r5, r6, r8, r9, sl, fp, ip, lr}^
    15d0:	5458457b 	ldrbpl	r4, [r8], #-1403	; 0xfffffa85
    15d4:	202c3149 	eorcs	r3, ip, r9, asr #2
    15d8:	4f495047 	svcmi	0x00495047
    15dc:	47202c43 	strmi	r2, [r0, -r3, asr #24]!
    15e0:	5f4f4950 	svcpl	0x004f4950
    15e4:	5f4e4950 	svcpl	0x004e4950
    15e8:	45202c31 	strmi	r2, [r0, #-3121]!	; 0xfffff3cf
    15ec:	31495458 	cmpcc	r9, r8, asr r4
    15f0:	5152495f 	cmppl	r2, pc, asr r9
    15f4:	525f007d 	subspl	r0, pc, #125	; 0x7d
    15f8:	544e4545 	strbpl	r4, [lr], #-1349	; 0xfffffabb
    15fc:	52424d5f 	subpl	r4, r2, #6080	; 0x17c0
    1600:	43574f54 	cmpmi	r7, #84, 30	; 0x150
    1604:	4154535f 	cmpmi	r4, pc, asr r3
    1608:	70284554 	eorvc	r4, r8, r4, asr r5
    160c:	20297274 	eorcs	r7, r9, r4, ror r2
    1610:	74702828 	ldrbtvc	r2, [r0], #-2088	; 0xfffff7d8
    1614:	3e2d2972 			; <UNDEFINED> instruction: 0x3e2d2972
    1618:	73696d5f 	cmnvc	r9, #6080	; 0x17c0
    161c:	5f3e2d63 	svcpl	0x003e2d63
    1620:	7472626d 	ldrbtvc	r6, [r2], #-621	; 0xfffffd93
    1624:	5f63776f 	svcpl	0x0063776f
    1628:	74617473 	strbtvc	r7, [r1], #-1139	; 0xfffffb8d
    162c:	5f002965 	svcpl	0x00002965
    1630:	41454c5f 	cmpmi	r5, pc, asr ip
    1634:	32335453 	eorscc	r5, r3, #1392508928	; 0x53000000
    1638:	226c2220 	rsbcs	r2, ip, #32, 4
    163c:	4c5f5f00 	mrrcmi	15, 0, r5, pc, cr0	; <UNPREDICTABLE>
    1640:	4152464c 	cmpmi	r2, ip, asr #12
    1644:	4d5f5443 	cfldrdmi	mvd5, [pc, #-268]	; 1540 <_Min_Stack_Size+0x1140>
    1648:	5f5f4e49 	svcpl	0x005f4e49
    164c:	302d2820 	eorcc	r2, sp, r0, lsr #16
    1650:	4c4c352e 	cfstr64mi	mvdx3, [ip], {46}	; 0x2e
    1654:	2e302d52 	mrccs	13, 1, r2, cr0, cr2, {2}
    1658:	524c4c35 	subpl	r4, ip, #13568	; 0x3500
    165c:	5f5f0029 	svcpl	0x005f0029
    1660:	50544e49 	subspl	r4, r4, r9, asr #28
    1664:	4d5f5254 	lfmmi	f5, 2, [pc, #-336]	; 151c <_Min_Stack_Size+0x111c>
    1668:	5f5f5841 	svcpl	0x005f5841
    166c:	37783020 	ldrbcc	r3, [r8, -r0, lsr #32]!
    1670:	66666666 	strbtvs	r6, [r6], -r6, ror #12
    1674:	00666666 	rsbeq	r6, r6, r6, ror #12
    1678:	41525f5f 	cmpmi	r2, pc, asr pc
    167c:	4d5f444e 	cfldrdmi	mvd4, [pc, #-312]	; 154c <_Min_Stack_Size+0x114c>
    1680:	30205841 	eorcc	r5, r0, r1, asr #16
    1684:	66663778 			; <UNDEFINED> instruction: 0x66663778
    1688:	66666666 	strbtvs	r6, [r6], -r6, ror #12
    168c:	32490066 	subcc	r0, r9, #102	; 0x66
    1690:	52435f43 	subpl	r5, r3, #268	; 0x10c
    1694:	54495f32 	strbpl	r5, [r9], #-3890	; 0xfffff0ce
    1698:	45525245 	ldrbmi	r5, [r2, #-581]	; 0xfffffdbb
    169c:	3249204e 	subcc	r2, r9, #78	; 0x4e
    16a0:	52435f43 	subpl	r5, r3, #268	; 0x10c
    16a4:	54495f32 	strbpl	r5, [r9], #-3890	; 0xfffff0ce
    16a8:	45525245 	ldrbmi	r5, [r2, #-581]	; 0xfffffdbb
    16ac:	734d5f4e 	movtvc	r5, #57166	; 0xdf4e
    16b0:	5f5f006b 	svcpl	0x005f006b
    16b4:	544e4955 	strbpl	r4, [lr], #-2389	; 0xfffff6ab
    16b8:	5341465f 	movtpl	r4, #5727	; 0x165f
    16bc:	5f363154 	svcpl	0x00363154
    16c0:	5f58414d 	svcpl	0x0058414d
    16c4:	7830205f 	ldmdavc	r0!, {r0, r1, r2, r3, r4, r6, sp}
    16c8:	66666666 	strbtvs	r6, [r6], -r6, ror #12
    16cc:	66666666 	strbtvs	r6, [r6], -r6, ror #12
    16d0:	4e490055 	mcrmi	0, 2, r0, cr9, cr5, {2}
    16d4:	454c5f54 	strbmi	r5, [ip, #-3924]	; 0xfffff0ac
    16d8:	36545341 	ldrbcc	r5, [r4], -r1, asr #6
    16dc:	494d5f34 	stmdbmi	sp, {r2, r4, r5, r8, r9, sl, fp, ip, lr}^
    16e0:	2d28204e 	stccs	0, cr2, [r8, #-312]!	; 0xfffffec8
    16e4:	4e495f5f 	mcrmi	15, 2, r5, cr9, cr15, {2}
    16e8:	454c5f54 	strbmi	r5, [ip, #-3924]	; 0xfffff0ac
    16ec:	36545341 	ldrbcc	r5, [r4], -r1, asr #6
    16f0:	414d5f34 	cmpmi	sp, r4, lsr pc
    16f4:	205f5f58 	subscs	r5, pc, r8, asr pc	; <UNPREDICTABLE>
    16f8:	2931202d 	ldmdbcs	r1!, {r0, r2, r3, r5, sp}
    16fc:	475f5f00 	ldrbmi	r5, [pc, -r0, lsl #30]
    1700:	4c43554e 	cfstr64mi	mvdx5, [r3], {78}	; 0x4e
    1704:	5f454b49 	svcpl	0x00454b49
    1708:	4c495542 	cfstr64mi	mvdx5, [r9], {66}	; 0x42
    170c:	5f4e4954 	svcpl	0x004e4954
    1710:	534e4f43 	movtpl	r4, #61251	; 0xef43
    1714:	544e4154 	strbpl	r4, [lr], #-340	; 0xfffffeac
    1718:	3120505f 	qsubcc	r5, pc, r0	; <UNPREDICTABLE>
    171c:	45525f00 	ldrbmi	r5, [r2, #-3840]	; 0xfffff100
    1720:	5f544e45 	svcpl	0x00544e45
    1724:	43454843 	movtmi	r4, #22595	; 0x5843
    1728:	6176284b 	cmnvs	r6, fp, asr #16
    172c:	68772c72 	ldmdavs	r7!, {r1, r4, r5, r6, sl, fp, sp}^
    1730:	742c7461 	strtvc	r7, [ip], #-1121	; 0xfffffb9f
    1734:	2c657079 	stclcs	0, cr7, [r5], #-484	; 0xfffffe1c
    1738:	657a6973 	ldrbvs	r6, [sl, #-2419]!	; 0xfffff68d
    173c:	696e692c 	stmdbvs	lr!, {r2, r3, r5, r8, fp, sp, lr}^
    1740:	64202974 	strtvs	r2, [r0], #-2420	; 0xfffff68c
    1744:	207b206f 	rsbscs	r2, fp, pc, rrx
    1748:	75727473 	ldrbvc	r7, [r2, #-1139]!	; 0xfffffb8d
    174c:	5f207463 	svcpl	0x00207463
    1750:	6e656572 	mcrvs	5, 3, r6, cr5, cr2, {3}
    1754:	5f2a2074 	svcpl	0x002a2074
    1758:	203d2072 	eorscs	r2, sp, r2, ror r0
    175c:	72617628 	rsbvc	r7, r1, #40, 12	; 0x2800000
    1760:	69203b29 	stmdbvs	r0!, {r0, r3, r5, r8, r9, fp, ip, sp}
    1764:	5f282066 	svcpl	0x00282066
    1768:	773e2d72 			; <UNDEFINED> instruction: 0x773e2d72
    176c:	20746168 	rsbscs	r6, r4, r8, ror #2
    1770:	4e203d3d 	mcrmi	13, 1, r3, cr0, cr13, {1}
    1774:	294c4c55 	stmdbcs	ip, {r0, r2, r4, r6, sl, fp, lr}^
    1778:	5f207b20 	svcpl	0x00207b20
    177c:	773e2d72 			; <UNDEFINED> instruction: 0x773e2d72
    1780:	20746168 	rsbscs	r6, r4, r8, ror #2
    1784:	7428203d 	strtvc	r2, [r8], #-61	; 0xffffffc3
    1788:	29657079 	stmdbcs	r5!, {r0, r3, r4, r5, r6, ip, sp, lr}^
    178c:	6c6c616d 	stfvse	f6, [ip], #-436	; 0xfffffe4c
    1790:	7328636f 			; <UNDEFINED> instruction: 0x7328636f
    1794:	29657a69 	stmdbcs	r5!, {r0, r3, r5, r6, r9, fp, ip, sp, lr}^
    1798:	5f5f203b 	svcpl	0x005f203b
    179c:	6e656572 	mcrvs	5, 3, r6, cr5, cr2, {3}
    17a0:	73615f74 	cmnvc	r1, #116, 30	; 0x1d0
    17a4:	74726573 	ldrbtvc	r6, [r2], #-1395	; 0xfffffa8d
    17a8:	2d725f28 	ldclcs	15, cr5, [r2, #-160]!	; 0xffffff60
    17ac:	6168773e 	cmnvs	r8, lr, lsr r7
    17b0:	203b2974 	eorscs	r2, fp, r4, ror r9
    17b4:	74696e69 	strbtvc	r6, [r9], #-3689	; 0xfffff197
    17b8:	207d203b 	rsbscs	r2, sp, fp, lsr r0
    17bc:	6877207d 	ldmdavs	r7!, {r0, r2, r3, r4, r5, r6, sp}^
    17c0:	20656c69 	rsbcs	r6, r5, r9, ror #24
    17c4:	00293028 	eoreq	r3, r9, r8, lsr #32
    17c8:	6e6f4e5f 	mcrvs	14, 3, r4, cr15, cr15, {2}
    17cc:	6c6c756e 	cfstr64vs	mvdx7, [ip], #-440	; 0xfffffe48
    17d0:	58450020 	stmdapl	r5, {r5}^
    17d4:	495f4954 	ldmdbmi	pc, {r2, r4, r6, r8, fp, lr}^	; <UNPREDICTABLE>
    17d8:	445f5152 	ldrbmi	r5, [pc], #-338	; 17e0 <_Min_Stack_Size+0x13e0>
    17dc:	62617369 	rsbvs	r7, r1, #-1543503871	; 0xa4000001
    17e0:	3120656c 			; <UNDEFINED> instruction: 0x3120656c
    17e4:	475f5f00 	ldrbmi	r5, [pc, -r0, lsl #30]
    17e8:	5f43554e 	svcpl	0x0043554e
    17ec:	52455250 	subpl	r5, r5, #80, 4
    17f0:	6d285145 	stfvss	f5, [r8, #-276]!	; 0xfffffeec
    17f4:	6d2c6a61 	vstmdbvs	ip!, {s12-s108}
    17f8:	20296e69 	eorcs	r6, r9, r9, ror #28
    17fc:	5f5f2828 	svcpl	0x005f2828
    1800:	43554e47 	cmpmi	r5, #1136	; 0x470
    1804:	3c205f5f 	stccc	15, cr5, [r0], #-380	; 0xfffffe84
    1808:	3631203c 			; <UNDEFINED> instruction: 0x3631203c
    180c:	202b2029 	eorcs	r2, fp, r9, lsr #32
    1810:	4e475f5f 	mcrmi	15, 2, r5, cr7, cr15, {2}
    1814:	4d5f4355 	ldclmi	3, cr4, [pc, #-340]	; 16c8 <_Min_Stack_Size+0x12c8>
    1818:	524f4e49 	subpl	r4, pc, #1168	; 0x490
    181c:	3e205f5f 	mcrcc	15, 1, r5, cr0, cr15, {2}
    1820:	2828203d 	stmdacs	r8!, {r0, r2, r3, r4, r5, sp}
    1824:	296a616d 	stmdbcs	sl!, {r0, r2, r3, r5, r6, r8, sp, lr}^
    1828:	203c3c20 	eorscs	r3, ip, r0, lsr #24
    182c:	20293631 	eorcs	r3, r9, r1, lsr r6
    1830:	6d28202b 	stcvs	0, cr2, [r8, #-172]!	; 0xffffff54
    1834:	29296e69 	stmdbcs	r9!, {r0, r3, r5, r6, r9, sl, fp, sp, lr}
    1838:	555f5f00 	ldrbpl	r5, [pc, #-3840]	; 940 <_Min_Stack_Size+0x540>
    183c:	43415246 	movtmi	r5, #4678	; 0x1246
    1840:	494d5f54 	stmdbmi	sp, {r2, r4, r6, r8, r9, sl, fp, ip, lr}^
    1844:	205f5f4e 	subscs	r5, pc, lr, asr #30
    1848:	55302e30 	ldrpl	r2, [r0, #-3632]!	; 0xfffff1d0
    184c:	5f5f0052 	svcpl	0x005f0052
    1850:	4c42444c 	cfstrdmi	mvd4, [r2], {76}	; 0x4c
    1854:	5341485f 	movtpl	r4, #6239	; 0x185f
    1858:	4955515f 	ldmdbmi	r5, {r0, r1, r2, r3, r4, r6, r8, ip, lr}^
    185c:	4e5f5445 	cdpmi	4, 5, cr5, cr15, cr5, {2}
    1860:	5f5f4e41 	svcpl	0x005f4e41
    1864:	45003120 	strmi	r3, [r0, #-288]	; 0xfffffee0
    1868:	31495458 	cmpcc	r9, r8, asr r4
    186c:	31435031 	cmpcc	r3, r1, lsr r0
    1870:	45282031 	strmi	r2, [r8, #-49]!	; 0xffffffcf
    1874:	5f495458 	svcpl	0x00495458
    1878:	4f495047 	svcmi	0x00495047
    187c:	70614d5f 	rsbvc	r4, r1, pc, asr sp
    1880:	5f676e69 	svcpl	0x00676e69
    1884:	457b2974 	ldrbmi	r2, [fp, #-2420]!	; 0xfffff68c
    1888:	31495458 	cmpcc	r9, r8, asr r4
    188c:	47202c31 			; <UNDEFINED> instruction: 0x47202c31
    1890:	434f4950 	movtmi	r4, #63824	; 0xf950
    1894:	5047202c 	subpl	r2, r7, ip, lsr #32
    1898:	505f4f49 	subspl	r4, pc, r9, asr #30
    189c:	315f4e49 	cmpcc	pc, r9, asr #28
    18a0:	45202c31 	strmi	r2, [r0, #-3121]!	; 0xfffff3cf
    18a4:	31495458 	cmpcc	r9, r8, asr r4
    18a8:	52495f31 	subpl	r5, r9, #49, 30	; 0xc4
    18ac:	5f007d51 	svcpl	0x00007d51
    18b0:	50544e49 	subspl	r4, r4, r9, asr #28
    18b4:	545f5254 	ldrbpl	r5, [pc], #-596	; 18bc <_Min_Stack_Size+0x14bc>
    18b8:	4345445f 	movtmi	r4, #21599	; 0x545f
    18bc:	4552414c 	ldrbmi	r4, [r2, #-332]	; 0xfffffeb4
    18c0:	49002044 	stmdbmi	r0, {r2, r6, sp}
    18c4:	535f4332 	cmppl	pc, #-939524096	; 0xc8000000
    18c8:	425f3152 	subsmi	r3, pc, #-2147483628	; 0x80000014
    18cc:	5f525245 	svcpl	0x00525245
    18d0:	20736f50 	rsbscs	r6, r3, r0, asr pc
    18d4:	29553828 	ldmdbcs	r5, {r3, r5, fp, ip, sp}^
    18d8:	465f5f00 	ldrbmi	r5, [pc], -r0, lsl #30
    18dc:	3233544c 	eorscc	r5, r3, #76, 8	; 0x4c000000
    18e0:	41485f58 	cmpmi	r8, r8, asr pc
    18e4:	4e495f53 	mcrmi	15, 2, r5, cr9, cr3, {2}
    18e8:	494e4946 	stmdbmi	lr, {r1, r2, r6, r8, fp, lr}^
    18ec:	5f5f5954 	svcpl	0x005f5954
    18f0:	49003120 	stmdbmi	r0, {r5, r8, ip, sp}
    18f4:	465f544e 	ldrbmi	r5, [pc], -lr, asr #8
    18f8:	33545341 	cmpcc	r4, #67108865	; 0x4000001
    18fc:	494d5f32 	stmdbmi	sp, {r1, r4, r5, r8, r9, sl, fp, ip, lr}^
    1900:	2d28204e 	stccs	0, cr2, [r8, #-312]!	; 0xfffffec8
    1904:	4e495f5f 	mcrmi	15, 2, r5, cr9, cr15, {2}
    1908:	41465f54 	cmpmi	r6, r4, asr pc
    190c:	32335453 	eorscc	r5, r3, #1392508928	; 0x53000000
    1910:	58414d5f 	stmdapl	r1, {r0, r1, r2, r3, r4, r6, r8, sl, fp, lr}^
    1914:	2d205f5f 	stccs	15, cr5, [r0, #-380]!	; 0xfffffe84
    1918:	00293120 	eoreq	r3, r9, r0, lsr #2
    191c:	5359535f 	cmppl	r9, #2080374785	; 0x7c000001
    1920:	5a49535f 	bpl	12566a4 <_Min_Stack_Size+0x12562a4>
    1924:	5f545f45 	svcpl	0x00545f45
    1928:	49002048 	stmdbmi	r0, {r3, r6, sp}
    192c:	435f4332 	cmpmi	pc, #-939524096	; 0xc8000000
    1930:	455f3152 	ldrbmi	r3, [pc, #-338]	; 17e6 <_Min_Stack_Size+0x13e6>
    1934:	2043474e 	subcs	r4, r3, lr, asr #14
    1938:	5f433249 	svcpl	0x00433249
    193c:	5f315243 	svcpl	0x00315243
    1940:	43474e45 	movtmi	r4, #32325	; 0x7e45
    1944:	6b734d5f 	blvs	1cd4ec8 <_Min_Stack_Size+0x1cd4ac8>
    1948:	414e5f00 	cmpmi	lr, r0, lsl #30
    194c:	4d5f4f4e 	ldclmi	15, cr4, [pc, #-312]	; 181c <_Min_Stack_Size+0x141c>
    1950:	4f4c4c41 	svcmi	0x004c4c41
    1954:	00312043 	eorseq	r2, r1, r3, asr #32
    1958:	5f433249 	svcpl	0x00433249
    195c:	5f315243 	svcpl	0x00315243
    1960:	55424d53 	strbpl	r4, [r2, #-3411]	; 0xfffff2ad
    1964:	32492053 	subcc	r2, r9, #83	; 0x53
    1968:	52435f43 	subpl	r5, r3, #268	; 0x10c
    196c:	4d535f31 	ldclmi	15, cr5, [r3, #-196]	; 0xffffff3c
    1970:	5f535542 	svcpl	0x00535542
    1974:	006b734d 	rsbeq	r7, fp, sp, asr #6
    1978:	49555f5f 	ldmdbmi	r5, {r0, r1, r2, r3, r4, r6, r8, r9, sl, fp, ip, lr}^
    197c:	4c5f544e 	cfldrdmi	mvd5, [pc], {78}	; 0x4e
    1980:	54534145 	ldrbpl	r4, [r3], #-325	; 0xfffffebb
    1984:	59545f38 	ldmdbpl	r4, {r3, r4, r5, r8, r9, sl, fp, ip, lr}^
    1988:	5f5f4550 	svcpl	0x005f4550
    198c:	736e7520 	cmnvc	lr, #32, 10	; 0x8000000
    1990:	656e6769 	strbvs	r6, [lr, #-1897]!	; 0xfffff897
    1994:	68632064 	stmdavs	r3!, {r2, r5, r6, sp}^
    1998:	49007261 	stmdbmi	r0, {r0, r5, r6, r9, ip, sp, lr}
    199c:	435f4332 	cmpmi	pc, #-939524096	; 0xc8000000
    19a0:	495f3252 	ldmdbmi	pc, {r1, r4, r6, r9, ip, sp}^	; <UNPREDICTABLE>
    19a4:	46554254 			; <UNDEFINED> instruction: 0x46554254
    19a8:	49204e45 	stmdbmi	r0!, {r0, r2, r6, r9, sl, fp, lr}
    19ac:	435f4332 	cmpmi	pc, #-939524096	; 0xc8000000
    19b0:	495f3252 	ldmdbmi	pc, {r1, r4, r6, r9, ip, sp}^	; <UNPREDICTABLE>
    19b4:	46554254 			; <UNDEFINED> instruction: 0x46554254
    19b8:	4d5f4e45 	ldclmi	14, cr4, [pc, #-276]	; 18ac <_Min_Stack_Size+0x14ac>
    19bc:	5f006b73 	svcpl	0x00006b73
    19c0:	636f6c5f 	cmnvs	pc, #24320	; 0x5f00
    19c4:	655f736b 	ldrbvs	r7, [pc, #-875]	; 1661 <_Min_Stack_Size+0x1261>
    19c8:	756c6378 	strbvc	r6, [ip, #-888]!	; 0xfffffc88
    19cc:	65766973 	ldrbvs	r6, [r6, #-2419]!	; 0xfffff68d
    19d0:	2e2e2e28 	cdpcs	14, 2, cr2, cr14, cr8, {1}
    19d4:	5f5f2029 	svcpl	0x005f2029
    19d8:	6b636f6c 	blvs	18dd790 <_Min_Stack_Size+0x18dd390>
    19dc:	6e6e615f 	mcrvs	1, 3, r6, cr14, cr15, {2}
    19e0:	7461746f 	strbtvc	r7, [r1], #-1135	; 0xfffffb91
    19e4:	78652865 	stmdavc	r5!, {r0, r2, r5, r6, fp, sp}^
    19e8:	73756c63 	cmnvc	r5, #25344	; 0x6300
    19ec:	5f657669 	svcpl	0x00657669
    19f0:	6b636f6c 	blvs	18dd7a8 <_Min_Stack_Size+0x18dd3a8>
    19f4:	6e75665f 	mrcvs	6, 3, r6, cr5, cr15, {2}
    19f8:	6f697463 	svcvs	0x00697463
    19fc:	5f5f286e 	svcpl	0x005f286e
    1a00:	415f4156 	cmpmi	pc, r6, asr r1	; <UNPREDICTABLE>
    1a04:	5f534752 	svcpl	0x00534752
    1a08:	0029295f 	eoreq	r2, r9, pc, asr r9
    1a0c:	43415f5f 	movtmi	r5, #8031	; 0x1f5f
    1a10:	5f4d5543 	svcpl	0x004d5543
    1a14:	54494246 	strbpl	r4, [r9], #-582	; 0xfffffdba
    1a18:	31205f5f 			; <UNDEFINED> instruction: 0x31205f5f
    1a1c:	5f5f0035 	svcpl	0x005f0035
    1a20:	6b636f6c 	blvs	18dd7d8 <_Min_Stack_Size+0x18dd3d8>
    1a24:	6c65725f 	sfmvs	f7, 2, [r5], #-380	; 0xfffffe84
    1a28:	65736165 	ldrbvs	r6, [r3, #-357]!	; 0xfffffe9b
    1a2c:	636f6c28 	cmnvs	pc, #40, 24	; 0x2800
    1a30:	5f20296b 	svcpl	0x0020296b
    1a34:	7465725f 	strbtvc	r7, [r5], #-607	; 0xfffffda1
    1a38:	65677261 	strbvs	r7, [r7, #-609]!	; 0xfffffd9f
    1a3c:	6f6c5f74 	svcvs	0x006c5f74
    1a40:	725f6b63 	subsvc	r6, pc, #101376	; 0x18c00
    1a44:	61656c65 	cmnvs	r5, r5, ror #24
    1a48:	6c286573 	cfstr32vs	mvfx6, [r8], #-460	; 0xfffffe34
    1a4c:	296b636f 	stmdbcs	fp!, {r0, r1, r2, r3, r5, r6, r8, r9, sp, lr}^
    1a50:	555f5f00 	ldrbpl	r5, [pc, #-3840]	; b58 <_Min_Stack_Size+0x758>
    1a54:	55434341 	strbpl	r4, [r3, #-833]	; 0xfffffcbf
    1a58:	42495f4d 	submi	r5, r9, #308	; 0x134
    1a5c:	5f5f5449 	svcpl	0x005f5449
    1a60:	00363120 	eorseq	r3, r6, r0, lsr #2
    1a64:	49545845 	ldmdbmi	r4, {r0, r2, r6, fp, ip, lr}^
    1a68:	43503431 	cmpmi	r0, #822083584	; 0x31000000
    1a6c:	28203431 	stmdacs	r0!, {r0, r4, r5, sl, ip, sp}
    1a70:	49545845 	ldmdbmi	r4, {r0, r2, r6, fp, ip, lr}^
    1a74:	4950475f 	ldmdbmi	r0, {r0, r1, r2, r3, r4, r6, r8, r9, sl, lr}^
    1a78:	614d5f4f 	cmpvs	sp, pc, asr #30
    1a7c:	676e6970 			; <UNDEFINED> instruction: 0x676e6970
    1a80:	7b29745f 	blvc	a5ec04 <_Min_Stack_Size+0xa5e804>
    1a84:	49545845 	ldmdbmi	r4, {r0, r2, r6, fp, ip, lr}^
    1a88:	202c3431 	eorcs	r3, ip, r1, lsr r4
    1a8c:	4f495047 	svcmi	0x00495047
    1a90:	47202c43 	strmi	r2, [r0, -r3, asr #24]!
    1a94:	5f4f4950 	svcpl	0x004f4950
    1a98:	5f4e4950 	svcpl	0x004e4950
    1a9c:	202c3431 	eorcs	r3, ip, r1, lsr r4
    1aa0:	49545845 	ldmdbmi	r4, {r0, r2, r6, fp, ip, lr}^
    1aa4:	495f3431 	ldmdbmi	pc, {r0, r4, r5, sl, ip, sp}^	; <UNPREDICTABLE>
    1aa8:	007d5152 	rsbseq	r5, sp, r2, asr r1
    1aac:	6f6c5f5f 	svcvs	0x006c5f5f
    1ab0:	695f6b63 	ldmdbvs	pc, {r0, r1, r5, r6, r8, r9, fp, sp, lr}^	; <UNPREDICTABLE>
    1ab4:	2874696e 	ldmdacs	r4!, {r1, r2, r3, r5, r6, r8, fp, sp, lr}^
    1ab8:	6b636f6c 	blvs	18dd870 <_Min_Stack_Size+0x18dd470>
    1abc:	5f5f2029 	svcpl	0x005f2029
    1ac0:	61746572 	cmnvs	r4, r2, ror r5
    1ac4:	74656772 	strbtvc	r6, [r5], #-1906	; 0xfffff88e
    1ac8:	636f6c5f 	cmnvs	pc, #24320	; 0x5f00
    1acc:	6e695f6b 	cdpvs	15, 6, cr5, cr9, cr11, {3}
    1ad0:	26287469 	strtcs	r7, [r8], -r9, ror #8
    1ad4:	6b636f6c 	blvs	18dd88c <_Min_Stack_Size+0x18dd48c>
    1ad8:	5f5f0029 	svcpl	0x005f0029
    1adc:	5f544e49 	svcpl	0x00544e49
    1ae0:	54534146 	ldrbpl	r4, [r3], #-326	; 0xfffffeba
    1ae4:	4d5f3436 	cfldrdmi	mvd3, [pc, #-216]	; 1a14 <_Min_Stack_Size+0x1614>
    1ae8:	5f5f5841 	svcpl	0x005f5841
    1aec:	37783020 	ldrbcc	r3, [r8, -r0, lsr #32]!
    1af0:	66666666 	strbtvs	r6, [r6], -r6, ror #12
    1af4:	66666666 	strbtvs	r6, [r6], -r6, ror #12
    1af8:	66666666 	strbtvs	r6, [r6], -r6, ror #12
    1afc:	4c666666 	stclmi	6, cr6, [r6], #-408	; 0xfffffe68
    1b00:	5f5f004c 	svcpl	0x005f004c
    1b04:	33544c46 	cmpcc	r4, #17920	; 0x4600
    1b08:	445f5832 	ldrbmi	r5, [pc], #-2098	; 1b10 <_Min_Stack_Size+0x1710>
    1b0c:	4d494345 	stclmi	3, cr4, [r9, #-276]	; 0xfffffeec
    1b10:	445f4c41 	ldrbmi	r4, [pc], #-3137	; 1b18 <_Min_Stack_Size+0x1718>
    1b14:	5f5f4749 	svcpl	0x005f4749
    1b18:	00373120 	eorseq	r3, r7, r0, lsr #2
    1b1c:	42445f5f 	submi	r5, r4, #380	; 0x17c
    1b20:	494d5f4c 	stmdbmi	sp, {r2, r3, r6, r8, r9, sl, fp, ip, lr}^
    1b24:	205f5f4e 	subscs	r5, pc, lr, asr #30
    1b28:	6f642828 	svcvs	0x00642828
    1b2c:	656c6275 	strbvs	r6, [ip, #-629]!	; 0xfffffd8b
    1b30:	322e3229 	eorcc	r3, lr, #-1879048190	; 0x90000002
    1b34:	37303532 			; <UNDEFINED> instruction: 0x37303532
    1b38:	38353833 	ldmdacc	r5!, {r0, r1, r4, r5, fp, ip, sp}
    1b3c:	32373035 	eorscc	r3, r7, #53	; 0x35
    1b40:	65343130 	ldrvs	r3, [r4, #-304]!	; 0xfffffed0
    1b44:	3830332d 	ldmdacc	r0!, {r0, r2, r3, r5, r8, r9, ip, sp}
    1b48:	4700294c 	strmi	r2, [r0, -ip, asr #18]
    1b4c:	4320554e 			; <UNDEFINED> instruction: 0x4320554e
    1b50:	31203131 			; <UNDEFINED> instruction: 0x31203131
    1b54:	2e332e31 	mrccs	14, 1, r2, cr3, cr1, {1}
    1b58:	30322031 	eorscc	r2, r2, r1, lsr r0
    1b5c:	37303232 			; <UNDEFINED> instruction: 0x37303232
    1b60:	2d203231 	sfmcs	f3, 4, [r0, #-196]!	; 0xffffff3c
    1b64:	7570636d 	ldrbvc	r6, [r0, #-877]!	; 0xfffffc93
    1b68:	726f633d 	rsbvc	r6, pc, #-201326592	; 0xf4000000
    1b6c:	2d786574 	cfldr64cs	mvdx6, [r8, #-464]!	; 0xfffffe30
    1b70:	2d20336d 	stccs	3, cr3, [r0, #-436]!	; 0xfffffe4c
    1b74:	6f6c666d 	svcvs	0x006c666d
    1b78:	612d7461 			; <UNDEFINED> instruction: 0x612d7461
    1b7c:	733d6962 	teqvc	sp, #1605632	; 0x188000
    1b80:	2074666f 	rsbscs	r6, r4, pc, ror #12
    1b84:	68746d2d 	ldmdavs	r4!, {r0, r2, r3, r5, r8, sl, fp, sp, lr}^
    1b88:	20626d75 	rsbcs	r6, r2, r5, ror sp
    1b8c:	72616d2d 	rsbvc	r6, r1, #2880	; 0xb40
    1b90:	613d6863 	teqvs	sp, r3, ror #16
    1b94:	37766d72 			; <UNDEFINED> instruction: 0x37766d72
    1b98:	2d206d2d 	stccs	13, cr6, [r0, #-180]!	; 0xffffff4c
    1b9c:	61776467 	cmnvs	r7, r7, ror #8
    1ba0:	322d6672 	eorcc	r6, sp, #119537664	; 0x7200000
    1ba4:	33672d20 	cmncc	r7, #32, 26	; 0x800
    1ba8:	304f2d20 	subcc	r2, pc, r0, lsr #26
    1bac:	74732d20 	ldrbtvc	r2, [r3], #-3360	; 0xfffff2e0
    1bb0:	6e673d64 	cdpvs	13, 6, cr3, cr7, cr4, {3}
    1bb4:	20313175 	eorscs	r3, r1, r5, ror r1
    1bb8:	7566662d 	strbvc	r6, [r6, #-1581]!	; 0xfffff9d3
    1bbc:	6974636e 	ldmdbvs	r4!, {r1, r2, r3, r5, r6, r8, r9, sp, lr}^
    1bc0:	732d6e6f 			; <UNDEFINED> instruction: 0x732d6e6f
    1bc4:	69746365 	ldmdbvs	r4!, {r0, r2, r5, r6, r8, r9, sp, lr}^
    1bc8:	20736e6f 	rsbscs	r6, r3, pc, ror #28
    1bcc:	6164662d 	cmnvs	r4, sp, lsr #12
    1bd0:	732d6174 			; <UNDEFINED> instruction: 0x732d6174
    1bd4:	69746365 	ldmdbvs	r4!, {r0, r2, r5, r6, r8, r9, sp, lr}^
    1bd8:	20736e6f 	rsbscs	r6, r3, pc, ror #28
    1bdc:	7473662d 	ldrbtvc	r6, [r3], #-1581	; 0xfffff9d3
    1be0:	2d6b6361 	stclcs	3, cr6, [fp, #-388]!	; 0xfffffe7c
    1be4:	67617375 			; <UNDEFINED> instruction: 0x67617375
    1be8:	662d2065 	strtvs	r2, [sp], -r5, rrx
    1bec:	6c637963 			; <UNDEFINED> instruction: 0x6c637963
    1bf0:	74616d6f 	strbtvc	r6, [r1], #-3439	; 0xfffff291
    1bf4:	632d6369 			; <UNDEFINED> instruction: 0x632d6369
    1bf8:	6c706d6f 	ldclvs	13, cr6, [r0], #-444	; 0xfffffe44
    1bfc:	74697865 	strbtvc	r7, [r9], #-2149	; 0xfffff79b
    1c00:	70550079 	subsvc	r0, r5, r9, ror r0
    1c04:	65746164 	ldrbvs	r6, [r4, #-356]!	; 0xfffffe9c
    1c08:	5458455f 	ldrbpl	r4, [r8], #-1375	; 0xfffffaa1
    1c0c:	5f5f0049 	svcpl	0x005f0049
    1c10:	33544c46 	cmpcc	r4, #17920	; 0x4600
    1c14:	455f5832 	ldrbmi	r5, [pc, #-2098]	; 13ea <_Min_Stack_Size+0xfea>
    1c18:	4c495350 	mcrrmi	3, 5, r5, r9, cr0
    1c1c:	5f5f4e4f 	svcpl	0x005f4e4f
    1c20:	322e3220 	eorcc	r3, lr, #32, 4
    1c24:	34343032 	ldrtcc	r3, [r4], #-50	; 0xffffffce
    1c28:	39343036 	ldmdbcc	r4!, {r1, r2, r4, r5, ip, sp}
    1c2c:	33303532 	teqcc	r0, #209715200	; 0xc800000
    1c30:	65313331 	ldrvs	r3, [r1, #-817]!	; 0xfffffccf
    1c34:	4636312d 	ldrtmi	r3, [r6], -sp, lsr #2
    1c38:	00783233 	rsbseq	r3, r8, r3, lsr r2
    1c3c:	695f5f5f 	ldmdbvs	pc, {r0, r1, r2, r3, r4, r6, r8, r9, sl, fp, ip, lr}^	; <UNPREDICTABLE>
    1c40:	6c5f746e 	cfldrdvs	mvd7, [pc], {110}	; 0x6e
    1c44:	74736165 	ldrbtvc	r6, [r3], #-357	; 0xfffffe9b
    1c48:	745f3631 	ldrbvc	r3, [pc], #-1585	; 1c50 <_Min_Stack_Size+0x1850>
    1c4c:	6665645f 			; <UNDEFINED> instruction: 0x6665645f
    1c50:	64656e69 	strbtvs	r6, [r5], #-3689	; 0xfffff197
    1c54:	5f003120 	svcpl	0x00003120
    1c58:	4d52415f 	ldfmie	f4, [r2, #-380]	; 0xfffffe84
    1c5c:	4352415f 	cmpmi	r2, #-1073741801	; 0xc0000017
    1c60:	4d375f48 	ldcmi	15, cr5, [r7, #-288]!	; 0xfffffee0
    1c64:	31205f5f 			; <UNDEFINED> instruction: 0x31205f5f
    1c68:	754e5f00 	strbvc	r5, [lr, #-3840]	; 0xfffff100
    1c6c:	62616c6c 	rsbvs	r6, r1, #108, 24	; 0x6c00
    1c70:	0020656c 	eoreq	r6, r0, ip, ror #10
    1c74:	4e495f5f 	mcrmi	15, 2, r5, cr9, cr15, {2}
    1c78:	41465f54 	cmpmi	r6, r4, asr pc
    1c7c:	5f385453 	svcpl	0x00385453
    1c80:	45505954 	ldrbmi	r5, [r0, #-2388]	; 0xfffff6ac
    1c84:	69205f5f 	stmdbvs	r0!, {r0, r1, r2, r3, r4, r6, r8, r9, sl, fp, ip, lr}
    1c88:	5f00746e 	svcpl	0x0000746e
    1c8c:	4e494f4e 	cdpmi	15, 4, cr4, cr9, cr14, {2}
    1c90:	454e494c 	strbmi	r4, [lr, #-2380]	; 0xfffff6b4
    1c94:	615f5f20 	cmpvs	pc, r0, lsr #30
    1c98:	69727474 	ldmdbvs	r2!, {r2, r4, r5, r6, sl, ip, sp, lr}^
    1c9c:	65747562 	ldrbvs	r7, [r4, #-1378]!	; 0xfffffa9e
    1ca0:	28205f5f 	stmdacs	r0!, {r0, r1, r2, r3, r4, r6, r8, r9, sl, fp, ip, lr}
    1ca4:	6e5f5f28 	cdpvs	15, 5, cr5, cr15, cr8, {1}
    1ca8:	6c6e696f 			; <UNDEFINED> instruction: 0x6c6e696f
    1cac:	5f656e69 	svcpl	0x00656e69
    1cb0:	0029295f 	eoreq	r2, r9, pc, asr r9
    1cb4:	44555f5f 	ldrbmi	r5, [r5], #-3935	; 0xfffff0a1
    1cb8:	42465f41 	submi	r5, r6, #260	; 0x104
    1cbc:	5f5f5449 	svcpl	0x005f5449
    1cc0:	00323320 	eorseq	r3, r2, r0, lsr #6
    1cc4:	69735f5f 	ldmdbvs	r3!, {r0, r1, r2, r3, r4, r6, r8, r9, sl, fp, ip, lr}^
    1cc8:	745f657a 	ldrbvc	r6, [pc], #-1402	; 1cd0 <_Min_Stack_Size+0x18d0>
    1ccc:	00205f5f 	eoreq	r5, r0, pc, asr pc
    1cd0:	49555f5f 	ldmdbmi	r5, {r0, r1, r2, r3, r4, r6, r8, r9, sl, fp, ip, lr}^
    1cd4:	414d544e 	cmpmi	sp, lr, asr #8
    1cd8:	28435f58 	stmdacs	r3, {r3, r4, r6, r8, r9, sl, fp, ip, lr}^
    1cdc:	63202963 			; <UNDEFINED> instruction: 0x63202963
    1ce0:	20232320 	eorcs	r2, r3, r0, lsr #6
    1ce4:	004c4c55 	subeq	r4, ip, r5, asr ip
    1ce8:	5f433249 	svcpl	0x00433249
    1cec:	5f325253 	svcpl	0x00325253
    1cf0:	5f4c534d 	svcpl	0x004c534d
    1cf4:	20736f50 	rsbscs	r6, r3, r0, asr pc
    1cf8:	29553028 	ldmdbcs	r5, {r3, r5, ip, sp}^
    1cfc:	535f5f00 	cmppl	pc, #0, 30
    1d00:	4f455a49 	svcmi	0x00455a49
    1d04:	4f505f46 	svcmi	0x00505f46
    1d08:	45544e49 	ldrbmi	r4, [r4, #-3657]	; 0xfffff1b7
    1d0c:	205f5f52 	subscs	r5, pc, r2, asr pc	; <UNPREDICTABLE>
    1d10:	5f5f0034 	svcpl	0x005f0034
    1d14:	5f544e49 	svcpl	0x00544e49
    1d18:	5341454c 	movtpl	r4, #5452	; 0x154c
    1d1c:	545f3854 	ldrbpl	r3, [pc], #-2132	; 1d24 <_Min_Stack_Size+0x1924>
    1d20:	5f455059 	svcpl	0x00455059
    1d24:	6973205f 	ldmdbvs	r3!, {r0, r1, r2, r3, r4, r6, sp}^
    1d28:	64656e67 	strbtvs	r6, [r5], #-3687	; 0xfffff199
    1d2c:	61686320 	cmnvs	r8, r0, lsr #6
    1d30:	564e0072 			; <UNDEFINED> instruction: 0x564e0072
    1d34:	495f4349 	ldmdbmi	pc, {r0, r3, r6, r8, r9, lr}^	; <UNPREDICTABLE>
    1d38:	5f314332 	svcpl	0x00314332
    1d3c:	495f5245 	ldmdbmi	pc, {r0, r2, r6, r9, ip, lr}^	; <UNPREDICTABLE>
    1d40:	32335152 	eorscc	r5, r3, #-2147483628	; 0x80000014
    1d44:	414e455f 	cmpmi	lr, pc, asr r5
    1d48:	20454c42 	subcs	r4, r5, r2, asr #24
    1d4c:	49564e28 	ldmdbmi	r6, {r3, r5, r9, sl, fp, lr}^
    1d50:	53495f43 	movtpl	r5, #40771	; 0x9f43
    1d54:	20315245 	eorscs	r5, r1, r5, asr #4
    1d58:	31203d7c 			; <UNDEFINED> instruction: 0x31203d7c
    1d5c:	203c3c20 	eorscs	r3, ip, r0, lsr #24
    1d60:	43324928 	teqmi	r2, #40, 18	; 0xa0000
    1d64:	52455f31 	subpl	r5, r5, #49, 30	; 0xc4
    1d68:	5152495f 	cmppl	r2, pc, asr r9
    1d6c:	2932332d 	ldmdbcs	r2!, {r0, r2, r3, r5, r8, r9, ip, sp}
    1d70:	5f003b29 	svcpl	0x00003b29
    1d74:	4343475f 	movtmi	r4, #14175	; 0x375f
    1d78:	4f54415f 	svcmi	0x0054415f
    1d7c:	5f43494d 	svcpl	0x0043494d
    1d80:	4c4f4f42 	mcrrmi	15, 4, r4, pc, cr2
    1d84:	434f4c5f 	movtmi	r4, #64607	; 0xfc5f
    1d88:	52465f4b 	subpl	r5, r6, #300	; 0x12c
    1d8c:	32204545 	eorcc	r4, r0, #289406976	; 0x11400000
    1d90:	43324900 	teqmi	r2, #0, 18
    1d94:	3152435f 	cmpcc	r2, pc, asr r3
    1d98:	4154535f 	cmpmi	r4, pc, asr r3
    1d9c:	4d5f5452 	cfldrdmi	mvd5, [pc, #-328]	; 1c5c <_Min_Stack_Size+0x185c>
    1da0:	28206b73 	stmdacs	r0!, {r0, r1, r4, r5, r6, r8, r9, fp, sp, lr}
    1da4:	55317830 	ldrpl	r7, [r1, #-2096]!	; 0xfffff7d0
    1da8:	3c3c204c 	ldccc	0, cr2, [ip], #-304	; 0xfffffed0
    1dac:	43324920 	teqmi	r2, #32, 18	; 0x80000
    1db0:	3152435f 	cmpcc	r2, pc, asr r3
    1db4:	4154535f 	cmpmi	r4, pc, asr r3
    1db8:	505f5452 	subspl	r5, pc, r2, asr r4	; <UNPREDICTABLE>
    1dbc:	0029736f 	eoreq	r7, r9, pc, ror #6
    1dc0:	52415f5f 	subpl	r5, r1, #380	; 0x17c
    1dc4:	454e5f4d 	strbmi	r5, [lr, #-3917]	; 0xfffff0b3
    1dc8:	5f5f4e4f 	svcpl	0x005f4e4f
    1dcc:	4e495500 	cdpmi	5, 4, cr5, cr9, cr0, {0}
    1dd0:	52545054 	subspl	r5, r4, #84	; 0x54
    1dd4:	58414d5f 	stmdapl	r1, {r0, r1, r2, r3, r4, r6, r8, sl, fp, lr}^
    1dd8:	5f5f2820 	svcpl	0x005f2820
    1ddc:	544e4955 	strbpl	r4, [lr], #-2389	; 0xfffff6ab
    1de0:	5f525450 	svcpl	0x00525450
    1de4:	5f58414d 	svcpl	0x0058414d
    1de8:	5f00295f 	svcpl	0x0000295f
    1dec:	544c465f 	strbpl	r4, [ip], #-1631	; 0xfffff9a1
    1df0:	4d5f3233 	lfmmi	f3, 2, [pc, #-204]	; 1d2c <_Min_Stack_Size+0x192c>
    1df4:	455f5841 	ldrbmi	r5, [pc, #-2113]	; 15bb <_Min_Stack_Size+0x11bb>
    1df8:	5f5f5058 	svcpl	0x005f5058
    1dfc:	38323120 	ldmdacc	r2!, {r5, r8, ip, sp}
    1e00:	545f5f00 	ldrbpl	r5, [pc], #-3840	; 1e08 <_Min_Stack_Size+0x1a08>
    1e04:	424d5548 	submi	r5, sp, #72, 10	; 0x12000000
    1e08:	544e495f 	strbpl	r4, [lr], #-2399	; 0xfffff6a1
    1e0c:	4f575245 	svcmi	0x00575245
    1e10:	5f5f4b52 	svcpl	0x005f4b52
    1e14:	5f003120 	svcpl	0x00003120
    1e18:	4c4c555f 	cfstr64mi	mvdx5, [ip], {95}	; 0x5f
    1e1c:	43415246 	movtmi	r5, #4678	; 0x1246
    1e20:	414d5f54 	cmpmi	sp, r4, asr pc
    1e24:	205f5f58 	subscs	r5, pc, r8, asr pc	; <UNPREDICTABLE>
    1e28:	46465830 			; <UNDEFINED> instruction: 0x46465830
    1e2c:	46464646 	strbmi	r4, [r6], -r6, asr #12
    1e30:	46464646 	strbmi	r4, [r6], -r6, asr #12
    1e34:	46464646 	strbmi	r4, [r6], -r6, asr #12
    1e38:	2d504646 	ldclcs	6, cr4, [r0, #-280]	; 0xfffffee8
    1e3c:	4c553436 	cfldrdmi	mvd3, [r5], {54}	; 0x36
    1e40:	4900524c 	stmdbmi	r0, {r2, r3, r6, r9, ip, lr}
    1e44:	535f4332 	cmppl	pc, #-939524096	; 0xc8000000
    1e48:	475f3252 			; <UNDEFINED> instruction: 0x475f3252
    1e4c:	41434e45 	cmpmi	r3, r5, asr #28
    1e50:	4d5f4c4c 	ldclmi	12, cr4, [pc, #-304]	; 1d28 <_Min_Stack_Size+0x1928>
    1e54:	28206b73 	stmdacs	r0!, {r0, r1, r4, r5, r6, r8, r9, fp, sp, lr}
    1e58:	55317830 	ldrpl	r7, [r1, #-2096]!	; 0xfffff7d0
    1e5c:	3c3c204c 	ldccc	0, cr2, [ip], #-304	; 0xfffffed0
    1e60:	43324920 	teqmi	r2, #32, 18	; 0x80000
    1e64:	3252535f 	subscc	r5, r2, #2080374785	; 0x7c000001
    1e68:	4e45475f 	mcrmi	7, 2, r4, cr5, cr15, {2}
    1e6c:	4c4c4143 	stfmie	f4, [ip], {67}	; 0x43
    1e70:	736f505f 	cmnvc	pc, #95	; 0x5f
    1e74:	54520029 	ldrbpl	r0, [r2], #-41	; 0xffffffd7
    1e78:	5f005253 	svcpl	0x00005253
    1e7c:	554e475f 	strbpl	r4, [lr, #-1887]	; 0xfffff8a1
    1e80:	49575f43 	ldmdbmi	r7, {r0, r1, r6, r8, r9, sl, fp, ip, lr}^
    1e84:	455f4544 	ldrbmi	r4, [pc, #-1348]	; 1948 <_Min_Stack_Size+0x1548>
    1e88:	55434558 	strbpl	r4, [r3, #-1368]	; 0xfffffaa8
    1e8c:	4e4f4954 			; <UNDEFINED> instruction: 0x4e4f4954
    1e90:	4148435f 	cmpmi	r8, pc, asr r3
    1e94:	54455352 	strbpl	r5, [r5], #-850	; 0xfffffcae
    1e98:	4d414e5f 	stclmi	14, cr4, [r1, #-380]	; 0xfffffe84
    1e9c:	55222045 	strpl	r2, [r2, #-69]!	; 0xffffffbb
    1ea0:	332d4654 			; <UNDEFINED> instruction: 0x332d4654
    1ea4:	22454c32 	subcs	r4, r5, #12800	; 0x3200
    1ea8:	465f5f00 	ldrbmi	r5, [pc], -r0, lsl #30
    1eac:	3233544c 	eorscc	r5, r3, #76, 8	; 0x4c000000
    1eb0:	494d5f58 	stmdbmi	sp, {r3, r4, r6, r8, r9, sl, fp, ip, lr}^
    1eb4:	30315f4e 	eorscc	r5, r1, lr, asr #30
    1eb8:	5058455f 	subspl	r4, r8, pc, asr r5
    1ebc:	28205f5f 	stmdacs	r0!, {r0, r1, r2, r3, r4, r6, r8, r9, sl, fp, ip, lr}
    1ec0:	3730332d 	ldrcc	r3, [r0, -sp, lsr #6]!
    1ec4:	535f0029 	cmppl	pc, #41	; 0x29
    1ec8:	5f455a49 	svcpl	0x00455a49
    1ecc:	45445f54 	strbmi	r5, [r4, #-3924]	; 0xfffff0ac
    1ed0:	52414c43 	subpl	r4, r1, #17152	; 0x4300
    1ed4:	00204445 	eoreq	r4, r0, r5, asr #8
    1ed8:	49545845 	ldmdbmi	r4, {r0, r2, r6, fp, ip, lr}^
    1edc:	00392039 	eorseq	r2, r9, r9, lsr r0
    1ee0:	48435f5f 	stmdami	r3, {r0, r1, r2, r3, r4, r6, r8, r9, sl, fp, ip, lr}^
    1ee4:	32335241 	eorscc	r5, r3, #268435460	; 0x10000004
    1ee8:	5059545f 	subspl	r5, r9, pc, asr r4
    1eec:	205f5f45 	subscs	r5, pc, r5, asr #30
    1ef0:	676e6f6c 	strbvs	r6, [lr, -ip, ror #30]!
    1ef4:	736e7520 	cmnvc	lr, #32, 10	; 0x8000000
    1ef8:	656e6769 	strbvs	r6, [lr, #-1897]!	; 0xfffff897
    1efc:	6e692064 	cdpvs	0, 6, cr2, cr9, cr4, {3}
    1f00:	58450074 	stmdapl	r5, {r2, r4, r5, r6}^
    1f04:	31314954 	teqcc	r1, r4, asr r9
    1f08:	31314150 	teqcc	r1, r0, asr r1
    1f0c:	58452820 	stmdapl	r5, {r5, fp, sp}^
    1f10:	475f4954 			; <UNDEFINED> instruction: 0x475f4954
    1f14:	5f4f4950 	svcpl	0x004f4950
    1f18:	6970614d 	ldmdbvs	r0!, {r0, r2, r3, r6, r8, sp, lr}^
    1f1c:	745f676e 	ldrbvc	r6, [pc], #-1902	; 1f24 <_Min_Stack_Size+0x1b24>
    1f20:	58457b29 	stmdapl	r5, {r0, r3, r5, r8, r9, fp, ip, sp, lr}^
    1f24:	31314954 	teqcc	r1, r4, asr r9
    1f28:	5047202c 	subpl	r2, r7, ip, lsr #32
    1f2c:	2c414f49 	mcrrcs	15, 4, r4, r1, cr9
    1f30:	49504720 	ldmdbmi	r0, {r5, r8, r9, sl, lr}^
    1f34:	49505f4f 	ldmdbmi	r0, {r0, r1, r2, r3, r6, r8, r9, sl, fp, ip, lr}^
    1f38:	31315f4e 	teqcc	r1, lr, asr #30
    1f3c:	5845202c 	stmdapl	r5, {r2, r3, r5, sp}^
    1f40:	31314954 	teqcc	r1, r4, asr r9
    1f44:	5152495f 	cmppl	r2, pc, asr r9
    1f48:	5f5f007d 	svcpl	0x005f007d
    1f4c:	5f4d5241 	svcpl	0x004d5241
    1f50:	54414546 	strbpl	r4, [r1], #-1350	; 0xfffffaba
    1f54:	5f455255 	svcpl	0x00455255
    1f58:	36315046 	ldrtcc	r5, [r1], -r6, asr #32
    1f5c:	4345565f 	movtmi	r5, #22111	; 0x565f
    1f60:	5f524f54 	svcpl	0x00524f54
    1f64:	54495241 	strbpl	r5, [r9], #-577	; 0xfffffdbf
    1f68:	54454d48 	strbpl	r4, [r5], #-3400	; 0xfffff2b8
    1f6c:	49004349 	stmdbmi	r0, {r0, r3, r6, r8, r9, lr}
    1f70:	435f4332 	cmpmi	pc, #-939524096	; 0xc8000000
    1f74:	535f3152 	cmppl	pc, #-2147483628	; 0x80000014
    1f78:	5f504f54 	svcpl	0x00504f54
    1f7c:	206b734d 	rsbcs	r7, fp, sp, asr #6
    1f80:	31783028 	cmncc	r8, r8, lsr #32
    1f84:	3c204c55 	stccc	12, cr4, [r0], #-340	; 0xfffffeac
    1f88:	3249203c 	subcc	r2, r9, #60	; 0x3c
    1f8c:	52435f43 	subpl	r5, r3, #268	; 0x10c
    1f90:	54535f31 	ldrbpl	r5, [r3], #-3889	; 0xfffff0cf
    1f94:	505f504f 	subspl	r5, pc, pc, asr #32
    1f98:	0029736f 	eoreq	r7, r9, pc, ror #6
    1f9c:	534f505f 	movtpl	r5, #61535	; 0xf05f
    1fa0:	435f5849 	cmpmi	pc, #4784128	; 0x490000
    1fa4:	554f535f 	strbpl	r5, [pc, #-863]	; 1c4d <_Min_Stack_Size+0x184d>
    1fa8:	20454352 	subcs	r4, r5, r2, asr r3
    1fac:	38303032 	ldmdacc	r0!, {r1, r4, r5, ip, sp}
    1fb0:	004c3930 	subeq	r3, ip, r0, lsr r9
    1fb4:	43435f5f 	movtmi	r5, #16223	; 0x3f5f
    1fb8:	5055535f 	subspl	r5, r5, pc, asr r3
    1fbc:	54524f50 	ldrbpl	r4, [r2], #-3920	; 0xfffff0b0
    1fc0:	59445f53 	stmdbpl	r4, {r0, r1, r4, r6, r8, r9, sl, fp, ip, lr}^
    1fc4:	494d414e 	stmdbmi	sp, {r1, r2, r3, r6, r8, lr}^
    1fc8:	52415f43 	subpl	r5, r1, #268	; 0x10c
    1fcc:	5f594152 	svcpl	0x00594152
    1fd0:	54494e49 	strbpl	r4, [r9], #-3657	; 0xfffff1b7
    1fd4:	5f003120 	svcpl	0x00003120
    1fd8:	4c42445f 	cfstrdmi	mvd4, [r2], {95}	; 0x5f
    1fdc:	5f53495f 	svcpl	0x0053495f
    1fe0:	5f434549 	svcpl	0x00434549
    1fe4:	35353036 	ldrcc	r3, [r5, #-54]!	; 0xffffffca
    1fe8:	205f5f39 	subscs	r5, pc, r9, lsr pc	; <UNPREDICTABLE>
    1fec:	5f5f0032 	svcpl	0x005f0032
    1ff0:	544e4955 	strbpl	r4, [lr], #-2389	; 0xfffff6ab
    1ff4:	5341465f 	movtpl	r4, #5727	; 0x165f
    1ff8:	5f323354 	svcpl	0x00323354
    1ffc:	5f58414d 	svcpl	0x0058414d
    2000:	7830205f 	ldmdavc	r0!, {r0, r1, r2, r3, r4, r6, sp}
    2004:	66666666 	strbtvs	r6, [r6], -r6, ror #12
    2008:	66666666 	strbtvs	r6, [r6], -r6, ror #12
    200c:	4f430055 	svcmi	0x00430055
    2010:	58455452 	stmdapl	r5, {r1, r4, r6, sl, ip, lr}^
    2014:	5f334d5f 	svcpl	0x00334d5f
    2018:	45544e49 	ldrbmi	r4, [r4, #-3657]	; 0xfffff1b7
    201c:	4c414e52 	mcrrmi	14, 5, r4, r1, cr2
    2020:	5245505f 	subpl	r5, r5, #95	; 0x5f
    2024:	45485049 	strbmi	r5, [r8, #-73]	; 0xffffffb7
    2028:	534c4152 	movtpl	r4, #49490	; 0xc152
    202c:	5341425f 	movtpl	r4, #4703	; 0x125f
    2030:	78302045 	ldmdavc	r0!, {r0, r2, r6, sp}
    2034:	30303045 	eorscc	r3, r0, r5, asr #32
    2038:	30303030 	eorscc	r3, r0, r0, lsr r0
    203c:	5f004c55 	svcpl	0x00004c55
    2040:	544c465f 	strbpl	r4, [ip], #-1631	; 0xfffff9a1
    2044:	58414d5f 	stmdapl	r1, {r0, r1, r2, r3, r4, r6, r8, sl, fp, lr}^
    2048:	5058455f 	subspl	r4, r8, pc, asr r5
    204c:	31205f5f 			; <UNDEFINED> instruction: 0x31205f5f
    2050:	5f003832 	svcpl	0x00003832
    2054:	5a49535f 	bpl	1256dd8 <_Min_Stack_Size+0x12569d8>
    2058:	5f464f45 	svcpl	0x00464f45
    205c:	474e4f4c 	strbmi	r4, [lr, -ip, asr #30]
    2060:	34205f5f 	strtcc	r5, [r0], #-3935	; 0xfffff0a1
    2064:	505f5f00 	subspl	r5, pc, r0, lsl #30
    2068:	6f727028 	svcvs	0x00727028
    206c:	29736f74 	ldmdbcs	r3!, {r2, r4, r5, r6, r8, r9, sl, fp, sp, lr}^
    2070:	6f727020 	svcvs	0x00727020
    2074:	00736f74 	rsbseq	r6, r3, r4, ror pc
    2078:	74735f5f 	ldrbtvc	r5, [r3], #-3935	; 0xfffff0a1
    207c:	6f6d6672 	svcvs	0x006d6672
    2080:	6b696c6e 	blvs	1a5d240 <_Min_Stack_Size+0x1a5ce40>
    2084:	6d662865 	stclvs	8, cr2, [r6, #-404]!	; 0xfffffe6c
    2088:	67726174 			; <UNDEFINED> instruction: 0x67726174
    208c:	7269662c 	rsbvc	r6, r9, #44, 12	; 0x2c00000
    2090:	61767473 	cmnvs	r6, r3, ror r4
    2094:	67726172 			; <UNDEFINED> instruction: 0x67726172
    2098:	5f5f2029 	svcpl	0x005f2029
    209c:	72747461 	rsbsvc	r7, r4, #1627389952	; 0x61000000
    20a0:	74756269 	ldrbtvc	r6, [r5], #-617	; 0xfffffd97
    20a4:	285f5f65 	ldmdacs	pc, {r0, r2, r5, r6, r8, r9, sl, fp, ip, lr}^	; <UNPREDICTABLE>
    20a8:	665f5f28 	ldrbvs	r5, [pc], -r8, lsr #30
    20ac:	616d726f 	cmnvs	sp, pc, ror #4
    20b0:	205f5f74 	subscs	r5, pc, r4, ror pc	; <UNPREDICTABLE>
    20b4:	735f5f28 	cmpvc	pc, #40, 30	; 0xa0
    20b8:	6d667274 	sfmvs	f7, 2, [r6, #-464]!	; 0xfffffe30
    20bc:	5f5f6e6f 	svcpl	0x005f6e6f
    20c0:	6d66202c 	stclvs	0, cr2, [r6, #-176]!	; 0xffffff50
    20c4:	67726174 			; <UNDEFINED> instruction: 0x67726174
    20c8:	6966202c 	stmdbvs	r6!, {r2, r3, r5, sp}^
    20cc:	76747372 			; <UNDEFINED> instruction: 0x76747372
    20d0:	72617261 	rsbvc	r7, r1, #268435462	; 0x10000006
    20d4:	29292967 	stmdbcs	r9!, {r0, r1, r2, r5, r6, r8, fp, sp}
    20d8:	54584500 	ldrbpl	r4, [r8], #-1280	; 0xfffffb00
    20dc:	43503649 	cmpmi	r0, #76546048	; 0x4900000
    20e0:	45282036 	strmi	r2, [r8, #-54]!	; 0xffffffca
    20e4:	5f495458 	svcpl	0x00495458
    20e8:	4f495047 	svcmi	0x00495047
    20ec:	70614d5f 	rsbvc	r4, r1, pc, asr sp
    20f0:	5f676e69 	svcpl	0x00676e69
    20f4:	457b2974 	ldrbmi	r2, [fp, #-2420]!	; 0xfffff68c
    20f8:	36495458 			; <UNDEFINED> instruction: 0x36495458
    20fc:	5047202c 	subpl	r2, r7, ip, lsr #32
    2100:	2c434f49 	mcrrcs	15, 4, r4, r3, cr9
    2104:	49504720 	ldmdbmi	r0, {r5, r8, r9, sl, lr}^
    2108:	49505f4f 	ldmdbmi	r0, {r0, r1, r2, r3, r6, r8, r9, sl, fp, ip, lr}^
    210c:	2c365f4e 	ldccs	15, cr5, [r6], #-312	; 0xfffffec8
    2110:	54584520 	ldrbpl	r4, [r8], #-1312	; 0xfffffae0
    2114:	495f3649 	ldmdbmi	pc, {r0, r3, r6, r9, sl, ip, sp}^	; <UNPREDICTABLE>
    2118:	007d5152 	rsbseq	r5, sp, r2, asr r1
    211c:	4545525f 	strbmi	r5, [r5, #-607]	; 0xfffffda1
    2120:	4d5f544e 	cfldrdmi	mvd5, [pc, #-312]	; 1ff0 <_Min_Stack_Size+0x1bf0>
    2124:	45525f50 	ldrbmi	r5, [r2, #-3920]	; 0xfffff0b0
    2128:	544c5553 	strbpl	r5, [ip], #-1363	; 0xfffffaad
    212c:	70284b5f 	eorvc	r4, r8, pc, asr fp
    2130:	20297274 	eorcs	r7, r9, r4, ror r2
    2134:	74702828 	ldrbtvc	r2, [r0], #-2088	; 0xfffff7d8
    2138:	3e2d2972 			; <UNDEFINED> instruction: 0x3e2d2972
    213c:	2d706d5f 	ldclcs	13, cr6, [r0, #-380]!	; 0xfffffe84
    2140:	65725f3e 	ldrbvs	r5, [r2, #-3902]!	; 0xfffff0c2
    2144:	746c7573 	strbtvc	r7, [ip], #-1395	; 0xfffffa8d
    2148:	00296b5f 	eoreq	r6, r9, pc, asr fp
    214c:	49535f5f 	ldmdbmi	r3, {r0, r1, r2, r3, r4, r6, r8, r9, sl, fp, ip, lr}^
    2150:	464f455a 			; <UNDEFINED> instruction: 0x464f455a
    2154:	554f445f 	strbpl	r4, [pc, #-1119]	; 1cfd <_Min_Stack_Size+0x18fd>
    2158:	5f454c42 	svcpl	0x00454c42
    215c:	0038205f 	eorseq	r2, r8, pc, asr r0
    2160:	4e495f5f 	mcrmi	15, 2, r5, cr9, cr15, {2}
    2164:	454c5f54 	strbmi	r5, [ip, #-3924]	; 0xfffff0ac
    2168:	33545341 	cmpcc	r4, #67108865	; 0x4000001
    216c:	49575f32 	ldmdbmi	r7, {r1, r4, r5, r8, r9, sl, fp, ip, lr}^
    2170:	5f485444 	svcpl	0x00485444
    2174:	3233205f 	eorscc	r2, r3, #95	; 0x5f
    2178:	4c435f00 	mcrrmi	15, 0, r5, r3, cr0
    217c:	5f4b434f 	svcpl	0x004b434f
    2180:	75205f54 	strvc	r5, [r0, #-3924]!	; 0xfffff0ac
    2184:	6769736e 	strbvs	r7, [r9, -lr, ror #6]!
    2188:	2064656e 	rsbcs	r6, r4, lr, ror #10
    218c:	676e6f6c 	strbvs	r6, [lr, -ip, ror #30]!
    2190:	49545f00 	ldmdbmi	r4, {r8, r9, sl, fp, ip, lr}^
    2194:	545f454d 	ldrbpl	r4, [pc], #-1357	; 219c <_Min_Stack_Size+0x1d9c>
    2198:	5f5f205f 	svcpl	0x005f205f
    219c:	5f746e69 	svcpl	0x00746e69
    21a0:	7361656c 	cmnvc	r1, #108, 10	; 0x1b000000
    21a4:	5f343674 	svcpl	0x00343674
    21a8:	58450074 	stmdapl	r5, {r2, r4, r5, r6}^
    21ac:	50394954 	eorspl	r4, r9, r4, asr r9
    21b0:	28203941 	stmdacs	r0!, {r0, r6, r8, fp, ip, sp}
    21b4:	49545845 	ldmdbmi	r4, {r0, r2, r6, fp, ip, lr}^
    21b8:	4950475f 	ldmdbmi	r0, {r0, r1, r2, r3, r4, r6, r8, r9, sl, lr}^
    21bc:	614d5f4f 	cmpvs	sp, pc, asr #30
    21c0:	676e6970 			; <UNDEFINED> instruction: 0x676e6970
    21c4:	7b29745f 	blvc	a5f348 <_Min_Stack_Size+0xa5ef48>
    21c8:	49545845 	ldmdbmi	r4, {r0, r2, r6, fp, ip, lr}^
    21cc:	47202c39 			; <UNDEFINED> instruction: 0x47202c39
    21d0:	414f4950 	cmpmi	pc, r0, asr r9	; <UNPREDICTABLE>
    21d4:	5047202c 	subpl	r2, r7, ip, lsr #32
    21d8:	505f4f49 	subspl	r4, pc, r9, asr #30
    21dc:	395f4e49 	ldmdbcc	pc, {r0, r3, r6, r9, sl, fp, lr}^	; <UNPREDICTABLE>
    21e0:	5845202c 	stmdapl	r5, {r2, r3, r5, sp}^
    21e4:	5f394954 	svcpl	0x00394954
    21e8:	7d515249 	lfmvc	f5, 2, [r1, #-292]	; 0xfffffedc
    21ec:	49564e00 	ldmdbmi	r6, {r9, sl, fp, lr}^
    21f0:	32495f43 	subcc	r5, r9, #268	; 0x10c
    21f4:	455f3243 	ldrbmi	r3, [pc, #-579]	; 1fb9 <_Min_Stack_Size+0x1bb9>
    21f8:	52495f56 	subpl	r5, r9, #344	; 0x158
    21fc:	5f333351 	svcpl	0x00333351
    2200:	41534944 	cmpmi	r3, r4, asr #18
    2204:	20454c42 	subcs	r4, r5, r2, asr #24
    2208:	49564e28 	ldmdbmi	r6, {r3, r5, r9, sl, fp, lr}^
    220c:	43495f43 	movtmi	r5, #40771	; 0x9f43
    2210:	20315245 	eorscs	r5, r1, r5, asr #4
    2214:	31203d7c 			; <UNDEFINED> instruction: 0x31203d7c
    2218:	203c3c20 	eorscs	r3, ip, r0, lsr #24
    221c:	43324928 	teqmi	r2, #40, 18	; 0xa0000
    2220:	56455f32 			; <UNDEFINED> instruction: 0x56455f32
    2224:	5152495f 	cmppl	r2, pc, asr r9
    2228:	2932332d 	ldmdbcs	r2!, {r0, r2, r3, r5, r8, r9, ip, sp}
    222c:	5f003b29 	svcpl	0x00003b29
    2230:	5f535953 	svcpl	0x00535953
    2234:	544e495f 	strbpl	r4, [lr], #-2399	; 0xfffff6a1
    2238:	5f505553 	svcpl	0x00505553
    223c:	47002048 	strmi	r2, [r0, -r8, asr #32]
    2240:	5f4f4950 	svcpl	0x004f4950
    2244:	54524f50 	ldrbpl	r4, [r2], #-3920	; 0xfffff0b0
    2248:	465f5f00 	ldrbmi	r5, [pc], -r0, lsl #30
    224c:	31545341 	cmpcc	r4, r1, asr #6
    2250:	49002036 	stmdbmi	r0, {r1, r2, r4, r5, sp}
    2254:	435f4332 	cmpmi	pc, #-939524096	; 0xc8000000
    2258:	465f3252 			; <UNDEFINED> instruction: 0x465f3252
    225c:	5f514552 	svcpl	0x00514552
    2260:	20736f50 	rsbscs	r6, r3, r0, asr pc
    2264:	29553028 	ldmdbcs	r5, {r3, r5, ip, sp}^
    2268:	45525f00 	ldrbmi	r5, [r2, #-3840]	; 0xfffff100
    226c:	5f544e45 	svcpl	0x00544e45
    2270:	444e4152 	strbmi	r4, [lr], #-338	; 0xfffffeae
    2274:	535f3834 	cmppl	pc, #52, 16	; 0x340000
    2278:	28444545 	stmdacs	r4, {r0, r2, r6, r8, sl, lr}^
    227c:	29727470 	ldmdbcs	r2!, {r4, r5, r6, sl, ip, sp, lr}^
    2280:	70282820 	eorvc	r2, r8, r0, lsr #16
    2284:	2d297274 	sfmcs	f7, 4, [r9, #-464]!	; 0xfffffe30
    2288:	34725f3e 	ldrbtcc	r5, [r2], #-3902	; 0xfffff0c2
    228c:	5f3e2d38 	svcpl	0x003e2d38
    2290:	64656573 	strbtvs	r6, [r5], #-1395	; 0xfffffa8d
    2294:	5f5f0029 	svcpl	0x005f0029
    2298:	4752414c 	ldrbmi	r4, [r2, -ip, asr #2]
    229c:	4c494645 	mcrrmi	6, 4, r4, r9, cr5
    22a0:	49565f45 	ldmdbmi	r6, {r0, r2, r6, r8, r9, sl, fp, ip, lr}^
    22a4:	4c424953 	mcrrmi	9, 5, r4, r2, cr3	; <UNPREDICTABLE>
    22a8:	00302045 	eorseq	r2, r0, r5, asr #32
    22ac:	5f433249 	svcpl	0x00433249
    22b0:	5f325243 	svcpl	0x00325243
    22b4:	55425449 	strbpl	r5, [r2, #-1097]	; 0xfffffbb7
    22b8:	5f4e4546 	svcpl	0x004e4546
    22bc:	20736f50 	rsbscs	r6, r3, r0, asr pc
    22c0:	55303128 	ldrpl	r3, [r0, #-296]!	; 0xfffffed8
    22c4:	5f5f0029 	svcpl	0x005f0029
    22c8:	5f746e69 	svcpl	0x00746e69
    22cc:	74736166 	ldrbtvc	r6, [r3], #-358	; 0xfffffe9a
    22d0:	5f745f38 	svcpl	0x00745f38
    22d4:	69666564 	stmdbvs	r6!, {r2, r5, r6, r8, sl, sp, lr}^
    22d8:	2064656e 	rsbcs	r6, r4, lr, ror #10
    22dc:	5f5f0031 	svcpl	0x005f0031
    22e0:	4c57454e 	cfldr64mi	mvdx4, [r7], {78}	; 0x4e
    22e4:	5f5f4249 	svcpl	0x005f4249
    22e8:	5f003420 	svcpl	0x00003420
    22ec:	554e475f 	strbpl	r4, [lr, #-1887]	; 0xfffff8a1
    22f0:	58455f43 	stmdapl	r5, {r0, r1, r6, r8, r9, sl, fp, ip, lr}^
    22f4:	54554345 	ldrbpl	r4, [r5], #-837	; 0xfffffcbb
    22f8:	5f4e4f49 	svcpl	0x004e4f49
    22fc:	52414843 	subpl	r4, r1, #4390912	; 0x430000
    2300:	5f544553 	svcpl	0x00544553
    2304:	454d414e 	strbmi	r4, [sp, #-334]	; 0xfffffeb2
    2308:	54552220 	ldrbpl	r2, [r5], #-544	; 0xfffffde0
    230c:	22382d46 	eorscs	r2, r8, #4480	; 0x1180
    2310:	49584500 	ldmdbmi	r8, {r8, sl, lr}^
    2314:	55535f54 	ldrbpl	r5, [r3, #-3924]	; 0xfffff0ac
    2318:	53454343 	movtpl	r4, #21315	; 0x5343
    231c:	00302053 	eorseq	r2, r0, r3, asr r0
    2320:	49545845 	ldmdbmi	r4, {r0, r2, r6, fp, ip, lr}^
    2324:	52495f36 	subpl	r5, r9, #54, 30	; 0xd8
    2328:	33322051 	teqcc	r2, #81	; 0x51
    232c:	555f5f00 	ldrbpl	r5, [pc, #-3840]	; 1434 <_Min_Stack_Size+0x1034>
    2330:	465f4154 			; <UNDEFINED> instruction: 0x465f4154
    2334:	5f544942 	svcpl	0x00544942
    2338:	3436205f 	ldrtcc	r2, [r6], #-95	; 0xffffffa1
    233c:	415f5f00 	cmpmi	pc, r0, lsl #30
    2340:	414e4d53 	cmpmi	lr, r3, asr sp
    2344:	6328454d 			; <UNDEFINED> instruction: 0x6328454d
    2348:	656d616e 	strbvs	r6, [sp, #-366]!	; 0xfffffe92
    234c:	5f5f2029 	svcpl	0x005f2029
    2350:	52545358 	subspl	r5, r4, #88, 6	; 0x60000001
    2354:	20474e49 	subcs	r4, r7, r9, asr #28
    2358:	555f5f28 	ldrbpl	r5, [pc, #-3880]	; 1438 <_Min_Stack_Size+0x1038>
    235c:	5f524553 	svcpl	0x00524553
    2360:	4542414c 	strbmi	r4, [r2, #-332]	; 0xfffffeb4
    2364:	52505f4c 	subspl	r5, r0, #76, 30	; 0x130
    2368:	58494645 	stmdapl	r9, {r0, r2, r6, r9, sl, lr}^
    236c:	20295f5f 	eorcs	r5, r9, pc, asr pc
    2370:	6d616e63 	stclvs	14, cr6, [r1, #-396]!	; 0xfffffe74
    2374:	5f5f0065 	svcpl	0x005f0065
    2378:	5f544c46 	svcpl	0x00544c46
    237c:	49434544 	stmdbmi	r3, {r2, r6, r8, sl, lr}^
    2380:	5f4c414d 	svcpl	0x004c414d
    2384:	5f474944 	svcpl	0x00474944
    2388:	0039205f 	eorseq	r2, r9, pc, asr r0
    238c:	6c615f5f 	stclvs	15, cr5, [r1], #-380	; 0xfffffe84
    2390:	5f6e6769 	svcpl	0x006e6769
    2394:	78287075 	stmdavc	r8!, {r0, r2, r4, r5, r6, ip, sp, lr}
    2398:	2029792c 	eorcs	r7, r9, ip, lsr #18
    239c:	75625f5f 	strbvc	r5, [r2, #-3935]!	; 0xfffff0a1
    23a0:	69746c69 	ldmdbvs	r4!, {r0, r3, r5, r6, sl, fp, sp, lr}^
    23a4:	6c615f6e 	stclvs	15, cr5, [r1], #-440	; 0xfffffe48
    23a8:	5f6e6769 	svcpl	0x006e6769
    23ac:	78287075 	stmdavc	r8!, {r0, r2, r4, r5, r6, ip, sp, lr}
    23b0:	2979202c 	ldmdbcs	r9!, {r2, r3, r5, sp}^
    23b4:	745f5f00 	ldrbvc	r5, [pc], #-3840	; 23bc <_Min_Stack_Size+0x1fbc>
    23b8:	626d7568 	rsbvs	r7, sp, #104, 10	; 0x1a000000
    23bc:	31205f5f 			; <UNDEFINED> instruction: 0x31205f5f
    23c0:	495f5f00 	ldmdbmi	pc, {r8, r9, sl, fp, ip, lr}^	; <UNPREDICTABLE>
    23c4:	4c5f544e 	cfldrdmi	mvd5, [pc], {78}	; 0x4e
    23c8:	54534145 	ldrbpl	r4, [r3], #-325	; 0xfffffebb
    23cc:	4d5f3233 	lfmmi	f3, 2, [pc, #-204]	; 2308 <_Min_Stack_Size+0x1f08>
    23d0:	5f5f5841 	svcpl	0x005f5841
    23d4:	37783020 	ldrbcc	r3, [r8, -r0, lsr #32]!
    23d8:	66666666 	strbtvs	r6, [r6], -r6, ror #12
    23dc:	4c666666 	stclmi	6, cr6, [r6], #-408	; 0xfffffe68
    23e0:	49504700 	ldmdbmi	r0, {r8, r9, sl, lr}^
    23e4:	49505f4f 	ldmdbmi	r0, {r0, r1, r2, r3, r6, r8, r9, sl, fp, ip, lr}^
    23e8:	32315f4e 	eorscc	r5, r1, #312	; 0x138
    23ec:	75282820 	strvc	r2, [r8, #-2080]!	; 0xfffff7e0
    23f0:	31746e69 	cmncc	r4, r9, ror #28
    23f4:	29745f36 	ldmdbcs	r4!, {r1, r2, r4, r5, r8, r9, sl, fp, ip, lr}^
    23f8:	30317830 	eorscc	r7, r1, r0, lsr r8
    23fc:	00293030 	eoreq	r3, r9, r0, lsr r0
    2400:	5f433249 	svcpl	0x00433249
    2404:	5f315253 	svcpl	0x00315253
    2408:	454d4954 	strbmi	r4, [sp, #-2388]	; 0xfffff6ac
    240c:	5f54554f 	svcpl	0x0054554f
    2410:	206b734d 	rsbcs	r7, fp, sp, asr #6
    2414:	31783028 	cmncc	r8, r8, lsr #32
    2418:	3c204c55 	stccc	12, cr4, [r0], #-340	; 0xfffffeac
    241c:	3249203c 	subcc	r2, r9, #60	; 0x3c
    2420:	52535f43 	subspl	r5, r3, #268	; 0x10c
    2424:	49545f31 	ldmdbmi	r4, {r0, r4, r5, r8, r9, sl, fp, ip, lr}^
    2428:	554f454d 	strbpl	r4, [pc, #-1357]	; 1ee3 <_Min_Stack_Size+0x1ae3>
    242c:	6f505f54 	svcvs	0x00505f54
    2430:	5f002973 	svcpl	0x00002973
    2434:	4b434f4c 	blmi	10d616c <_Min_Stack_Size+0x10d5d6c>
    2438:	4345525f 	movtmi	r5, #21087	; 0x525f
    243c:	49535255 	ldmdbmi	r3, {r0, r2, r4, r6, r9, ip, lr}^
    2440:	545f4556 	ldrbpl	r4, [pc], #-1366	; 2448 <_Min_Stack_Size+0x2048>
    2444:	4f4c5f20 	svcmi	0x004c5f20
    2448:	545f4b43 	ldrbpl	r4, [pc], #-2883	; 2450 <_Min_Stack_Size+0x2050>
    244c:	544e4900 	strbpl	r4, [lr], #-2304	; 0xfffff700
    2450:	5f58414d 	svcpl	0x0058414d
    2454:	204e494d 	subcs	r4, lr, sp, asr #18
    2458:	4e492d28 	cdpmi	13, 4, cr2, cr9, cr8, {1}
    245c:	58414d54 	stmdapl	r1, {r2, r4, r6, r8, sl, fp, lr}^
    2460:	58414d5f 	stmdapl	r1, {r0, r1, r2, r3, r4, r6, r8, sl, fp, lr}^
    2464:	31202d20 			; <UNDEFINED> instruction: 0x31202d20
    2468:	69500029 	ldmdbvs	r0, {r0, r3, r5}^
    246c:	6766436e 	strbvs	r4, [r6, -lr, ror #6]!
    2470:	41485f00 	cmpmi	r8, r0, lsl #30
    2474:	4c5f4556 	cfldr64mi	mvdx4, [pc], {86}	; 0x56
    2478:	5f474e4f 	svcpl	0x00474e4f
    247c:	42554f44 	subsmi	r4, r5, #68, 30	; 0x110
    2480:	3120454c 			; <UNDEFINED> instruction: 0x3120454c
    2484:	48435700 	stmdami	r3, {r8, r9, sl, ip, lr}^
    2488:	4d5f5241 	lfmmi	f5, 2, [pc, #-260]	; 238c <_Min_Stack_Size+0x1f8c>
    248c:	28204e49 	stmdacs	r0!, {r0, r3, r6, r9, sl, fp, lr}
    2490:	43575f5f 	cmpmi	r7, #380	; 0x17c
    2494:	5f524148 	svcpl	0x00524148
    2498:	5f4e494d 	svcpl	0x004e494d
    249c:	5f00295f 	svcpl	0x0000295f
    24a0:	4152465f 	cmpmi	r2, pc, asr r6
    24a4:	465f5443 	ldrbmi	r5, [pc], -r3, asr #8
    24a8:	5f544942 	svcpl	0x00544942
    24ac:	3531205f 	ldrcc	r2, [r1, #-95]!	; 0xffffffa1
    24b0:	4c5f5f00 	mrrcmi	15, 0, r5, pc, cr0	; <UNPREDICTABLE>
    24b4:	4343414c 	movtmi	r4, #12620	; 0x314c
    24b8:	455f4d55 	ldrbmi	r4, [pc, #-3413]	; 176b <_Min_Stack_Size+0x136b>
    24bc:	4c495350 	mcrrmi	3, 5, r5, r9, cr0
    24c0:	5f5f4e4f 	svcpl	0x005f4e4f
    24c4:	31783020 	cmncc	r8, r0, lsr #32
    24c8:	31332d50 	teqcc	r3, r0, asr sp
    24cc:	004b4c4c 	subeq	r4, fp, ip, asr #24
    24d0:	4e475f5f 	mcrmi	15, 2, r5, cr7, cr15, {2}
    24d4:	505f4355 	subspl	r4, pc, r5, asr r3	; <UNPREDICTABLE>
    24d8:	48435441 	stmdami	r3, {r0, r6, sl, ip, lr}^
    24dc:	4556454c 	ldrbmi	r4, [r6, #-1356]	; 0xfffffab4
    24e0:	205f5f4c 	subscs	r5, pc, ip, asr #30
    24e4:	5f5f0031 	svcpl	0x005f0031
    24e8:	5f434347 	svcpl	0x00434347
    24ec:	4d4f5441 	cfstrdmi	mvd5, [pc, #-260]	; 23f0 <_Min_Stack_Size+0x1ff0>
    24f0:	435f4349 	cmpmi	pc, #603979777	; 0x24000001
    24f4:	33524148 	cmpcc	r2, #72, 2
    24f8:	5f545f32 	svcpl	0x00545f32
    24fc:	4b434f4c 	blmi	10d6234 <_Min_Stack_Size+0x10d5e34>
    2500:	4552465f 	ldrbmi	r4, [r2, #-1631]	; 0xfffff9a1
    2504:	00322045 	eorseq	r2, r2, r5, asr #32
    2508:	6c615f5f 	stclvs	15, cr5, [r1], #-380	; 0xfffffe84
    250c:	5f636f6c 	svcpl	0x00636f6c
    2510:	67696c61 	strbvs	r6, [r9, -r1, ror #24]!
    2514:	2978286e 	ldmdbcs	r8!, {r1, r2, r3, r5, r6, fp, sp}^
    2518:	615f5f20 	cmpvs	pc, r0, lsr #30
    251c:	69727474 	ldmdbvs	r2!, {r2, r4, r5, r6, sl, ip, sp, lr}^
    2520:	65747562 	ldrbvs	r7, [r4, #-1378]!	; 0xfffffa9e
    2524:	28285f5f 	stmdacs	r8!, {r0, r1, r2, r3, r4, r6, r8, r9, sl, fp, ip, lr}
    2528:	6c615f5f 	stclvs	15, cr5, [r1], #-380	; 0xfffffe84
    252c:	5f636f6c 	svcpl	0x00636f6c
    2530:	67696c61 	strbvs	r6, [r9, -r1, ror #24]!
    2534:	285f5f6e 	ldmdacs	pc, {r1, r2, r3, r5, r6, r8, r9, sl, fp, ip, lr}^	; <UNPREDICTABLE>
    2538:	29292978 	stmdbcs	r9!, {r3, r4, r5, r6, r8, fp, sp}
    253c:	43324900 	teqmi	r2, #0, 18
    2540:	3252535f 	subscc	r5, r2, #2080374785	; 0x7c000001
    2544:	4e45475f 	mcrmi	7, 2, r4, cr5, cr15, {2}
    2548:	4c4c4143 	stfmie	f4, [ip], {67}	; 0x43
    254c:	736f505f 	cmnvc	pc, #95	; 0x5f
    2550:	55342820 	ldrpl	r2, [r4, #-2080]!	; 0xfffff7e0
    2554:	5f5f0029 	svcpl	0x005f0029
    2558:	544e4955 	strbpl	r4, [lr], #-2389	; 0xfffff6ab
    255c:	41454c5f 	cmpmi	r5, pc, asr ip
    2560:	36315453 			; <UNDEFINED> instruction: 0x36315453
    2564:	58414d5f 	stmdapl	r1, {r0, r1, r2, r3, r4, r6, r8, sl, fp, lr}^
    2568:	30205f5f 	eorcc	r5, r0, pc, asr pc
    256c:	66666678 			; <UNDEFINED> instruction: 0x66666678
    2570:	5f5f0066 	svcpl	0x005f0066
    2574:	53524556 	cmppl	r2, #360710144	; 0x15800000
    2578:	5f4e4f49 	svcpl	0x004e4f49
    257c:	3122205f 	qsubcc	r2, pc, r2	; <UNPREDICTABLE>
    2580:	2e332e31 	mrccs	14, 1, r2, cr3, cr1, {1}
    2584:	30322031 	eorscc	r2, r2, r1, lsr r0
    2588:	37303232 			; <UNDEFINED> instruction: 0x37303232
    258c:	00223231 	eoreq	r3, r2, r1, lsr r2
    2590:	5f433249 	svcpl	0x00433249
    2594:	5f315243 	svcpl	0x00315243
    2598:	52454c41 	subpl	r4, r5, #16640	; 0x4100
    259c:	6f505f54 	svcvs	0x00505f54
    25a0:	31282073 			; <UNDEFINED> instruction: 0x31282073
    25a4:	00295533 	eoreq	r5, r9, r3, lsr r5
    25a8:	52415f5f 	subpl	r5, r1, #380	; 0x17c
    25ac:	52415f4d 	subpl	r5, r1, #308	; 0x134
    25b0:	505f4843 	subspl	r4, pc, r3, asr #16
    25b4:	49464f52 	stmdbmi	r6, {r1, r4, r6, r8, r9, sl, fp, lr}^
    25b8:	3720454c 	strcc	r4, [r0, -ip, asr #10]!
    25bc:	5f5f0037 	svcpl	0x005f0037
    25c0:	4343414c 	movtmi	r4, #12620	; 0x314c
    25c4:	465f4d55 			; <UNDEFINED> instruction: 0x465f4d55
    25c8:	5f544942 	svcpl	0x00544942
    25cc:	3133205f 	teqcc	r3, pc, asr r0
    25d0:	705f5f00 	subsvc	r5, pc, r0, lsl #30
    25d4:	69646572 	stmdbvs	r4!, {r1, r4, r5, r6, r8, sl, sp, lr}^
    25d8:	745f7463 	ldrbvc	r7, [pc], #-1123	; 25e0 <_Min_Stack_Size+0x21e0>
    25dc:	28657572 	stmdacs	r5!, {r1, r4, r5, r6, r8, sl, ip, sp, lr}^
    25e0:	29707865 	ldmdbcs	r0!, {r0, r2, r5, r6, fp, ip, sp, lr}^
    25e4:	625f5f20 	subsvs	r5, pc, #32, 30	; 0x80
    25e8:	746c6975 	strbtvc	r6, [ip], #-2421	; 0xfffff68b
    25ec:	655f6e69 	ldrbvs	r6, [pc, #-3689]	; 178b <_Min_Stack_Size+0x138b>
    25f0:	63657078 	cmnvs	r5, #120	; 0x78
    25f4:	65282874 	strvs	r2, [r8, #-2164]!	; 0xfffff78c
    25f8:	2c297078 	stccs	0, cr7, [r9], #-480	; 0xfffffe20
    25fc:	00293120 	eoreq	r3, r9, r0, lsr #2
    2600:	49524550 	ldmdbmi	r2, {r4, r6, r8, sl, lr}^
    2604:	52454850 	subpl	r4, r5, #80, 16	; 0x500000
    2608:	5f534c41 	svcpl	0x00534c41
    260c:	45534142 	ldrbmi	r4, [r3, #-322]	; 0xfffffebe
    2610:	34783020 	ldrbtcc	r3, [r8], #-32	; 0xffffffe0
    2614:	30303030 	eorscc	r3, r0, r0, lsr r0
    2618:	55303030 	ldrpl	r3, [r0, #-48]!	; 0xffffffd0
    261c:	5f5f004c 	svcpl	0x005f004c
    2620:	43434153 	movtmi	r4, #12627	; 0x3153
    2624:	4d5f4d55 	ldclmi	13, cr4, [pc, #-340]	; 24d8 <_Min_Stack_Size+0x20d8>
    2628:	5f5f5841 	svcpl	0x005f5841
    262c:	37583020 	ldrbcc	r3, [r8, -r0, lsr #32]
    2630:	50464646 	subpl	r4, r6, r6, asr #12
    2634:	4b48372d 	blmi	12102f0 <_Min_Stack_Size+0x120fef0>
    2638:	6c5f5f00 	mrrcvs	15, 0, r5, pc, cr0	; <UNPREDICTABLE>
    263c:	5f6b636f 	svcpl	0x006b636f
    2640:	656c6572 	strbvs	r6, [ip, #-1394]!	; 0xfffffa8e
    2644:	5f657361 	svcpl	0x00657361
    2648:	75636572 	strbvc	r6, [r3, #-1394]!	; 0xfffffa8e
    264c:	76697372 			; <UNDEFINED> instruction: 0x76697372
    2650:	6f6c2865 	svcvs	0x006c2865
    2654:	20296b63 	eorcs	r6, r9, r3, ror #22
    2658:	65725f5f 	ldrbvs	r5, [r2, #-3935]!	; 0xfffff0a1
    265c:	67726174 			; <UNDEFINED> instruction: 0x67726174
    2660:	6c5f7465 	cfldrdvs	mvd7, [pc], {101}	; 0x65
    2664:	5f6b636f 	svcpl	0x006b636f
    2668:	656c6572 	strbvs	r6, [ip, #-1394]!	; 0xfffffa8e
    266c:	5f657361 	svcpl	0x00657361
    2670:	75636572 	strbvc	r6, [r3, #-1394]!	; 0xfffffa8e
    2674:	76697372 			; <UNDEFINED> instruction: 0x76697372
    2678:	6f6c2865 	svcvs	0x006c2865
    267c:	00296b63 	eoreq	r6, r9, r3, ror #22
    2680:	4c465f5f 	mcrrmi	15, 5, r5, r6, cr15
    2684:	5f343654 	svcpl	0x00343654
    2688:	5f58414d 	svcpl	0x0058414d
    268c:	455f3031 	ldrbmi	r3, [pc, #-49]	; 2663 <_Min_Stack_Size+0x2263>
    2690:	5f5f5058 	svcpl	0x005f5058
    2694:	38303320 	ldmdacc	r0!, {r5, r8, r9, ip, sp}
    2698:	54584500 	ldrbpl	r4, [r8], #-1280	; 0xfffffb00
    269c:	41503749 	cmpmi	r0, r9, asr #14
    26a0:	45282037 	strmi	r2, [r8, #-55]!	; 0xffffffc9
    26a4:	5f495458 	svcpl	0x00495458
    26a8:	4f495047 	svcmi	0x00495047
    26ac:	70614d5f 	rsbvc	r4, r1, pc, asr sp
    26b0:	5f676e69 	svcpl	0x00676e69
    26b4:	457b2974 	ldrbmi	r2, [fp, #-2420]!	; 0xfffff68c
    26b8:	37495458 	smlsldcc	r5, r9, r8, r4
    26bc:	5047202c 	subpl	r2, r7, ip, lsr #32
    26c0:	2c414f49 	mcrrcs	15, 4, r4, r1, cr9
    26c4:	49504720 	ldmdbmi	r0, {r5, r8, r9, sl, lr}^
    26c8:	49505f4f 	ldmdbmi	r0, {r0, r1, r2, r3, r6, r8, r9, sl, fp, ip, lr}^
    26cc:	2c375f4e 	ldccs	15, cr5, [r7], #-312	; 0xfffffec8
    26d0:	54584520 	ldrbpl	r4, [r8], #-1312	; 0xfffffae0
    26d4:	495f3749 	ldmdbmi	pc, {r0, r3, r6, r8, r9, sl, ip, sp}^	; <UNPREDICTABLE>
    26d8:	007d5152 	rsbseq	r5, sp, r2, asr r1
    26dc:	5f433249 	svcpl	0x00433249
    26e0:	3252414f 	subscc	r4, r2, #-1073741805	; 0xc0000013
    26e4:	444e455f 	strbmi	r4, [lr], #-1375	; 0xfffffaa1
    26e8:	5f4c4155 	svcpl	0x004c4155
    26ec:	206b734d 	rsbcs	r7, fp, sp, asr #6
    26f0:	31783028 	cmncc	r8, r8, lsr #32
    26f4:	3c204c55 	stccc	12, cr4, [r0], #-340	; 0xfffffeac
    26f8:	3249203c 	subcc	r2, r9, #60	; 0x3c
    26fc:	414f5f43 	cmpmi	pc, r3, asr #30
    2700:	455f3252 	ldrbmi	r3, [pc, #-594]	; 24b6 <_Min_Stack_Size+0x20b6>
    2704:	4155444e 	cmpmi	r5, lr, asr #8
    2708:	6f505f4c 	svcvs	0x00505f4c
    270c:	5f002973 	svcpl	0x00002973
    2710:	544e495f 	strbpl	r4, [lr], #-2399	; 0xfffff6a1
    2714:	5341465f 	movtpl	r4, #5727	; 0x165f
    2718:	5f323354 	svcpl	0x00323354
    271c:	54444957 	strbpl	r4, [r4], #-2391	; 0xfffff6a9
    2720:	205f5f48 	subscs	r5, pc, r8, asr #30
    2724:	5f003233 	svcpl	0x00003233
    2728:	7474615f 	ldrbtvc	r6, [r4], #-351	; 0xfffffea1
    272c:	75626972 	strbvc	r6, [r2, #-2418]!	; 0xfffff68e
    2730:	665f6574 			; <UNDEFINED> instruction: 0x665f6574
    2734:	616d726f 	cmnvs	sp, pc, ror #4
    2738:	74735f74 	ldrbtvc	r5, [r3], #-3956	; 0xfffff08c
    273c:	6f6d6672 	svcvs	0x006d6672
    2740:	285f5f6e 	ldmdacs	pc, {r1, r2, r3, r5, r6, r8, r9, sl, fp, ip, lr}^	; <UNPREDICTABLE>
    2744:	29622c61 	stmdbcs	r2!, {r0, r5, r6, sl, fp, sp}^
    2748:	425f0020 	subsmi	r0, pc, #32
    274c:	535f4453 	cmppl	pc, #1392508928	; 0x53000000
    2750:	5f455a49 	svcpl	0x00455a49
    2754:	45445f54 	strbmi	r5, [r4, #-3924]	; 0xfffff0ac
    2758:	454e4946 	strbmi	r4, [lr, #-2374]	; 0xfffff6ba
    275c:	00205f44 	eoreq	r5, r0, r4, asr #30
    2760:	45534552 	ldrbmi	r4, [r3, #-1362]	; 0xfffffaae
    2764:	44455652 	strbmi	r5, [r5], #-1618	; 0xfffff9ae
    2768:	5f5f0030 	svcpl	0x005f0030
    276c:	544e4955 	strbpl	r4, [lr], #-2389	; 0xfffff6ab
    2770:	5341465f 	movtpl	r4, #5727	; 0x165f
    2774:	5f323354 	svcpl	0x00323354
    2778:	45505954 	ldrbmi	r5, [r0, #-2388]	; 0xfffff6ac
    277c:	75205f5f 	strvc	r5, [r0, #-3935]!	; 0xfffff0a1
    2780:	6769736e 	strbvs	r7, [r9, -lr, ror #6]!
    2784:	2064656e 	rsbcs	r6, r4, lr, ror #10
    2788:	00746e69 	rsbseq	r6, r4, r9, ror #28
    278c:	695f5f5f 	ldmdbvs	pc, {r0, r1, r2, r3, r4, r6, r8, r9, sl, fp, ip, lr}^	; <UNPREDICTABLE>
    2790:	735f746e 	cmpvc	pc, #1845493760	; 0x6e000000
    2794:	5f657a69 	svcpl	0x00657a69
    2798:	20685f74 	rsbcs	r5, r8, r4, ror pc
    279c:	535f5f00 	cmppl	pc, #0, 30
    27a0:	5f434454 	svcpl	0x00434454
    27a4:	5f465455 	svcpl	0x00465455
    27a8:	5f5f3233 	svcpl	0x005f3233
    27ac:	5f003120 	svcpl	0x00003120
    27b0:	5a49535f 	bpl	1257534 <_Min_Stack_Size+0x1257134>
    27b4:	5f464f45 	svcpl	0x00464f45
    27b8:	414f4c46 	cmpmi	pc, r6, asr #24
    27bc:	205f5f54 	subscs	r5, pc, r4, asr pc	; <UNPREDICTABLE>
    27c0:	5f5f0034 	svcpl	0x005f0034
    27c4:	33544c46 	cmpcc	r4, #17920	; 0x4600
    27c8:	445f5832 	ldrbmi	r5, [pc], #-2098	; 27d0 <_Min_Stack_Size+0x23d0>
    27cc:	524f4e45 	subpl	r4, pc, #1104	; 0x450
    27d0:	494d5f4d 	stmdbmi	sp, {r0, r2, r3, r6, r8, r9, sl, fp, ip, lr}^
    27d4:	205f5f4e 	subscs	r5, pc, lr, asr #30
    27d8:	34392e34 	ldrtcc	r2, [r9], #-3636	; 0xfffff1cc
    27dc:	36353630 			; <UNDEFINED> instruction: 0x36353630
    27e0:	34383534 	ldrtcc	r3, [r8], #-1332	; 0xfffffacc
    27e4:	36343231 			; <UNDEFINED> instruction: 0x36343231
    27e8:	2d653435 	cfstrdcs	mvd3, [r5, #-212]!	; 0xffffff2c
    27ec:	46343233 			; <UNDEFINED> instruction: 0x46343233
    27f0:	00783233 	rsbseq	r3, r8, r3, lsr r2
    27f4:	4e475f5f 	mcrmi	15, 2, r5, cr7, cr15, {2}
    27f8:	494c4355 	stmdbmi	ip, {r0, r2, r4, r6, r8, r9, lr}^
    27fc:	4d5f454b 	cfldr64mi	mvdx4, [pc, #-300]	; 26d8 <_Min_Stack_Size+0x22d8>
    2800:	5f485441 	svcpl	0x00485441
    2804:	4c495542 	cfstr64mi	mvdx5, [r9], {66}	; 0x42
    2808:	5f4e4954 	svcpl	0x004e4954
    280c:	4f4c4552 	svcmi	0x004c4552
    2810:	00205350 	eoreq	r5, r0, r0, asr r3
    2814:	4c465f5f 	mcrrmi	15, 5, r5, r6, cr15
    2818:	414d5f54 	cmpmi	sp, r4, asr pc
    281c:	30315f58 	eorscc	r5, r1, r8, asr pc
    2820:	5058455f 	subspl	r4, r8, pc, asr r5
    2824:	33205f5f 			; <UNDEFINED> instruction: 0x33205f5f
    2828:	5f5f0038 	svcpl	0x005f0038
    282c:	5f474953 	svcpl	0x00474953
    2830:	4d4f5441 	cfstrdmi	mvd5, [pc, #-260]	; 2734 <_Min_Stack_Size+0x2334>
    2834:	545f4349 	ldrbpl	r4, [pc], #-841	; 283c <_Min_Stack_Size+0x243c>
    2838:	5f455059 	svcpl	0x00455059
    283c:	6e69205f 	mcrvs	0, 3, r2, cr9, cr15, {2}
    2840:	43520074 	cmpmi	r2, #116	; 0x74
    2844:	50475f43 	subpl	r5, r7, r3, asr #30
    2848:	5f414f49 	svcpl	0x00414f49
    284c:	5f4b4c43 	svcpl	0x004b4c43
    2850:	29284e45 	stmdbcs	r8!, {r0, r2, r6, r9, sl, fp, lr}
    2854:	43522820 	cmpmi	r2, #32, 16	; 0x200000
    2858:	413e2d43 	teqmi	lr, r3, asr #26
    285c:	45324250 	ldrmi	r4, [r2, #-592]!	; 0xfffffdb0
    2860:	7c20524e 	sfmvc	f5, 4, [r0], #-312	; 0xfffffec8
    2864:	3c31203d 	ldccc	0, cr2, [r1], #-244	; 0xffffff0c
    2868:	3b29323c 	blcc	a4f160 <_Min_Stack_Size+0xa4ed60>
    286c:	465f5f00 	ldrbmi	r5, [pc], -r0, lsl #30
    2870:	54434152 	strbpl	r4, [r3], #-338	; 0xfffffeae
    2874:	58414d5f 	stmdapl	r1, {r0, r1, r2, r3, r4, r6, r8, sl, fp, lr}^
    2878:	30205f5f 	eorcc	r5, r0, pc, asr pc
    287c:	46463758 			; <UNDEFINED> instruction: 0x46463758
    2880:	312d5046 			; <UNDEFINED> instruction: 0x312d5046
    2884:	45005235 	strmi	r5, [r0, #-565]	; 0xfffffdcb
    2888:	31495458 	cmpcc	r9, r8, asr r4
    288c:	31425030 	cmpcc	r2, r0, lsr r0
    2890:	45282030 	strmi	r2, [r8, #-48]!	; 0xffffffd0
    2894:	5f495458 	svcpl	0x00495458
    2898:	4f495047 	svcmi	0x00495047
    289c:	70614d5f 	rsbvc	r4, r1, pc, asr sp
    28a0:	5f676e69 	svcpl	0x00676e69
    28a4:	457b2974 	ldrbmi	r2, [fp, #-2420]!	; 0xfffff68c
    28a8:	31495458 	cmpcc	r9, r8, asr r4
    28ac:	47202c30 			; <UNDEFINED> instruction: 0x47202c30
    28b0:	424f4950 	submi	r4, pc, #80, 18	; 0x140000
    28b4:	5047202c 	subpl	r2, r7, ip, lsr #32
    28b8:	505f4f49 	subspl	r4, pc, r9, asr #30
    28bc:	315f4e49 	cmpcc	pc, r9, asr #28
    28c0:	45202c30 	strmi	r2, [r0, #-3120]!	; 0xfffff3d0
    28c4:	31495458 	cmpcc	r9, r8, asr r4
    28c8:	52495f30 	subpl	r5, r9, #48, 30	; 0xc0
    28cc:	45007d51 	strmi	r7, [r0, #-3409]	; 0xfffff2af
    28d0:	30495458 	subcc	r5, r9, r8, asr r4
    28d4:	20304450 	eorscs	r4, r0, r0, asr r4
    28d8:	54584528 	ldrbpl	r4, [r8], #-1320	; 0xfffffad8
    28dc:	50475f49 	subpl	r5, r7, r9, asr #30
    28e0:	4d5f4f49 	ldclmi	15, cr4, [pc, #-292]	; 27c4 <_Min_Stack_Size+0x23c4>
    28e4:	6e697061 	cdpvs	0, 6, cr7, cr9, cr1, {3}
    28e8:	29745f67 	ldmdbcs	r4!, {r0, r1, r2, r5, r6, r8, r9, sl, fp, ip, lr}^
    28ec:	5458457b 	ldrbpl	r4, [r8], #-1403	; 0xfffffa85
    28f0:	202c3049 	eorcs	r3, ip, r9, asr #32
    28f4:	4f495047 	svcmi	0x00495047
    28f8:	47202c44 	strmi	r2, [r0, -r4, asr #24]!
    28fc:	5f4f4950 	svcpl	0x004f4950
    2900:	5f4e4950 	svcpl	0x004e4950
    2904:	45202c30 	strmi	r2, [r0, #-3120]!	; 0xfffff3d0
    2908:	30495458 	subcc	r5, r9, r8, asr r4
    290c:	5152495f 	cmppl	r2, pc, asr r9
    2910:	525f007d 	subspl	r0, pc, #125	; 0x7d
    2914:	544e4545 	strbpl	r4, [lr], #-1349	; 0xfffffabb
    2918:	414d535f 	cmpmi	sp, pc, asr r3
    291c:	435f4c4c 	cmpmi	pc, #76, 24	; 0x4c00
    2920:	4b434548 	blmi	10d3e48 <_Min_Stack_Size+0x10d3a48>
    2924:	494e495f 	stmdbmi	lr, {r0, r1, r2, r3, r4, r6, r8, fp, lr}^
    2928:	74702854 	ldrbtvc	r2, [r0], #-2132	; 0xfffff7ac
    292c:	00202972 	eoreq	r2, r0, r2, ror r9
    2930:	42445f5f 	submi	r5, r4, #380	; 0x17c
    2934:	45445f4c 	strbmi	r5, [r4, #-3916]	; 0xfffff0b4
    2938:	4d524f4e 	ldclmi	15, cr4, [r2, #-312]	; 0xfffffec8
    293c:	4e494d5f 	mcrmi	13, 2, r4, cr9, cr15, {2}
    2940:	28205f5f 	stmdacs	r0!, {r0, r1, r2, r3, r4, r6, r8, r9, sl, fp, ip, lr}
    2944:	756f6428 	strbvc	r6, [pc, #-1064]!	; 2524 <_Min_Stack_Size+0x2124>
    2948:	29656c62 	stmdbcs	r5!, {r1, r5, r6, sl, fp, sp, lr}^
    294c:	34392e34 	ldrtcc	r2, [r9], #-3636	; 0xfffff1cc
    2950:	36353630 			; <UNDEFINED> instruction: 0x36353630
    2954:	34383534 	ldrtcc	r3, [r8], #-1332	; 0xfffffacc
    2958:	36343231 			; <UNDEFINED> instruction: 0x36343231
    295c:	2d653435 	cfstrdcs	mvd3, [r5, #-212]!	; 0xffffff2c
    2960:	4c343233 	lfmmi	f3, 4, [r4], #-204	; 0xffffff34
    2964:	5f5f0029 	svcpl	0x005f0029
    2968:	5f544e49 	svcpl	0x00544e49
    296c:	54534146 	ldrbpl	r4, [r3], #-326	; 0xfffffeba
    2970:	4d5f3233 	lfmmi	f3, 2, [pc, #-204]	; 28ac <_Min_Stack_Size+0x24ac>
    2974:	5f5f5841 	svcpl	0x005f5841
    2978:	37783020 	ldrbcc	r3, [r8, -r0, lsr #32]!
    297c:	66666666 	strbtvs	r6, [r6], -r6, ror #12
    2980:	00666666 	rsbeq	r6, r6, r6, ror #12
    2984:	54415f5f 	strbpl	r5, [r1], #-3935	; 0xfffff0a1
    2988:	43494d4f 	movtmi	r4, #40271	; 0x9d4f
    298c:	5145535f 	cmppl	r5, pc, asr r3
    2990:	5453435f 	ldrbpl	r4, [r3], #-863	; 0xfffffca1
    2994:	5f003520 	svcpl	0x00003520
    2998:	44414552 	strbmi	r4, [r1], #-1362	; 0xfffffaae
    299c:	4952575f 	ldmdbmi	r2, {r0, r1, r2, r3, r4, r6, r8, r9, sl, ip, lr}^
    29a0:	525f4554 	subspl	r4, pc, #84, 10	; 0x15000000
    29a4:	52555445 	subspl	r5, r5, #1157627904	; 0x45000000
    29a8:	59545f4e 	ldmdbpl	r4, {r1, r2, r3, r6, r8, r9, sl, fp, ip, lr}^
    29ac:	69204550 	stmdbvs	r0!, {r4, r6, r8, sl, lr}
    29b0:	5200746e 	andpl	r7, r0, #1845493760	; 0x6e000000
    29b4:	475f4343 	ldrbmi	r4, [pc, -r3, asr #6]
    29b8:	424f4950 	submi	r4, pc, #80, 18	; 0x140000
    29bc:	4b4c435f 	blmi	1313740 <_Min_Stack_Size+0x1313340>
    29c0:	284e455f 	stmdacs	lr, {r0, r1, r2, r3, r4, r6, r8, sl, lr}^
    29c4:	52282029 	eorpl	r2, r8, #41	; 0x29
    29c8:	3e2d4343 	cdpcc	3, 2, cr4, cr13, cr3, {2}
    29cc:	32425041 	subcc	r5, r2, #65	; 0x41
    29d0:	20524e45 	subscs	r4, r2, r5, asr #28
    29d4:	31203d7c 			; <UNDEFINED> instruction: 0x31203d7c
    29d8:	29333c3c 	ldmdbcs	r3!, {r2, r3, r4, r5, sl, fp, ip, sp}
    29dc:	5f5f003b 	svcpl	0x005f003b
    29e0:	6465656e 	strbtvs	r6, [r5], #-1390	; 0xfffffa92
    29e4:	6e69775f 	mcrvs	7, 3, r7, cr9, cr15, {2}
    29e8:	00745f74 	rsbseq	r5, r4, r4, ror pc
    29ec:	79735f5f 	ldmdbvc	r3!, {r0, r1, r2, r3, r4, r6, r8, r9, sl, fp, ip, lr}^
    29f0:	65645f6d 	strbvs	r5, [r4, #-3949]!	; 0xfffff093
    29f4:	6c756166 	ldfvse	f6, [r5], #-408	; 0xfffffe68
    29f8:	79732874 	ldmdbvc	r3!, {r2, r4, r5, r6, fp, sp}^
    29fc:	6d692c6d 	stclvs	12, cr2, [r9, #-436]!	; 0xfffffe4c
    2a00:	762c6c70 			; <UNDEFINED> instruction: 0x762c6c70
    2a04:	64697265 	strbtvs	r7, [r9], #-613	; 0xfffffd9b
    2a08:	5f5f2029 	svcpl	0x005f2029
    2a0c:	5f6d7361 	svcpl	0x006d7361
    2a10:	2e22285f 	mcrcs	8, 1, r2, cr2, cr15, {2}
    2a14:	766d7973 			; <UNDEFINED> instruction: 0x766d7973
    2a18:	22207265 	eorcs	r7, r0, #1342177286	; 0x50000006
    2a1c:	6d692320 	stclvs	3, cr2, [r9, #-128]!	; 0xffffff80
    2a20:	22206c70 	eorcs	r6, r0, #112, 24	; 0x7000
    2a24:	2022202c 	eorcs	r2, r2, ip, lsr #32
    2a28:	6d797323 	ldclvs	3, cr7, [r9, #-140]!	; 0xffffff74
    2a2c:	40402220 	submi	r2, r0, r0, lsr #4
    2a30:	76232022 	strtvc	r2, [r3], -r2, lsr #32
    2a34:	64697265 	strbtvs	r7, [r9], #-613	; 0xfffffd9b
    2a38:	4e490029 	cdpmi	0, 4, cr0, cr9, cr9, {1}
    2a3c:	41465f54 	cmpmi	r6, r4, asr pc
    2a40:	5f385453 	svcpl	0x00385453
    2a44:	2058414d 	subscs	r4, r8, sp, asr #2
    2a48:	495f5f28 	ldmdbmi	pc, {r3, r5, r8, r9, sl, fp, ip, lr}^	; <UNPREDICTABLE>
    2a4c:	465f544e 	ldrbmi	r5, [pc], -lr, asr #8
    2a50:	38545341 	ldmdacc	r4, {r0, r6, r8, r9, ip, lr}^
    2a54:	58414d5f 	stmdapl	r1, {r0, r1, r2, r3, r4, r6, r8, sl, fp, lr}^
    2a58:	00295f5f 	eoreq	r5, r9, pc, asr pc
    2a5c:	4f495047 	svcmi	0x00495047
    2a60:	4e49505f 	mcrmi	0, 2, r5, cr9, cr15, {2}
    2a64:	5445535f 	strbpl	r5, [r5], #-863	; 0xfffffca1
    2a68:	5f003120 	svcpl	0x00003120
    2a6c:	6c6c615f 	stfvse	f6, [ip], #-380	; 0xfffffe84
    2a70:	735f636f 	cmpvc	pc, #-1140850687	; 0xbc000001
    2a74:	32657a69 	rsbcc	r7, r5, #430080	; 0x69000
    2a78:	782c6e28 	stmdavc	ip!, {r3, r5, r9, sl, fp, sp, lr}
    2a7c:	5f5f2029 	svcpl	0x005f2029
    2a80:	72747461 	rsbsvc	r7, r4, #1627389952	; 0x61000000
    2a84:	74756269 	ldrbtvc	r6, [r5], #-617	; 0xfffffd97
    2a88:	285f5f65 	ldmdacs	pc, {r0, r2, r5, r6, r8, r9, sl, fp, ip, lr}^	; <UNPREDICTABLE>
    2a8c:	615f5f28 	cmpvs	pc, r8, lsr #30
    2a90:	636f6c6c 	cmnvs	pc, #108, 24	; 0x6c00
    2a94:	7a69735f 	bvc	1a5f818 <_Min_Stack_Size+0x1a5f418>
    2a98:	285f5f65 	ldmdacs	pc, {r0, r2, r5, r6, r8, r9, sl, fp, ip, lr}^	; <UNPREDICTABLE>
    2a9c:	78202c6e 	stmdavc	r0!, {r1, r2, r3, r5, r6, sl, fp, sp}
    2aa0:	00292929 	eoreq	r2, r9, r9, lsr #18
    2aa4:	49555f5f 	ldmdbmi	r5, {r0, r1, r2, r3, r4, r6, r8, r9, sl, fp, ip, lr}^
    2aa8:	3631544e 	ldrtcc	r5, [r1], -lr, asr #8
    2aac:	58414d5f 	stmdapl	r1, {r0, r1, r2, r3, r4, r6, r8, sl, fp, lr}^
    2ab0:	30205f5f 	eorcc	r5, r0, pc, asr pc
    2ab4:	66666678 			; <UNDEFINED> instruction: 0x66666678
    2ab8:	58450066 	stmdapl	r5, {r1, r2, r5, r6}^
    2abc:	545f4954 	ldrbpl	r4, [pc], #-2388	; 2ac4 <_Min_Stack_Size+0x26c4>
    2ac0:	67676972 			; <UNDEFINED> instruction: 0x67676972
    2ac4:	525f7265 	subspl	r7, pc, #1342177286	; 0x50000006
    2ac8:	6e697369 	cdpvs	3, 6, cr7, cr9, cr9, {3}
    2acc:	00302067 	eorseq	r2, r0, r7, rrx
    2ad0:	51545f5f 	cmppl	r4, pc, asr pc
    2ad4:	4942465f 	stmdbmi	r2, {r0, r1, r2, r3, r4, r6, r9, sl, lr}^
    2ad8:	205f5f54 	subscs	r5, pc, r4, asr pc	; <UNPREDICTABLE>
    2adc:	00373231 	eorseq	r3, r7, r1, lsr r2
    2ae0:	5f433249 	svcpl	0x00433249
    2ae4:	5f315243 	svcpl	0x00315243
    2ae8:	504f5453 	subpl	r5, pc, r3, asr r4	; <UNPREDICTABLE>
    2aec:	43324920 	teqmi	r2, #32, 18	; 0x80000
    2af0:	3152435f 	cmpcc	r2, pc, asr r3
    2af4:	4f54535f 	svcmi	0x0054535f
    2af8:	734d5f50 	movtvc	r5, #57168	; 0xdf50
    2afc:	3249006b 	subcc	r0, r9, #107	; 0x6b
    2b00:	52535f43 	subspl	r5, r3, #268	; 0x10c
    2b04:	45505f31 	ldrbmi	r5, [r0, #-3889]	; 0xfffff0cf
    2b08:	52524543 	subspl	r4, r2, #281018368	; 0x10c00000
    2b0c:	736f505f 	cmnvc	pc, #95	; 0x5f
    2b10:	32312820 	eorscc	r2, r1, #32, 16	; 0x200000
    2b14:	41002955 	tstmi	r0, r5, asr r9
    2b18:	204f4946 	subcs	r4, pc, r6, asr #18
    2b1c:	46412828 	strbmi	r2, [r1], -r8, lsr #16
    2b20:	545f4f49 	ldrbpl	r4, [pc], #-3913	; 2b28 <_Min_Stack_Size+0x2728>
    2b24:	64657079 	strbtvs	r7, [r5], #-121	; 0xffffff87
    2b28:	2a206665 	bcs	81c4c4 <_Min_Stack_Size+0x81c0c4>
    2b2c:	49464129 	stmdbmi	r6, {r0, r3, r5, r8, lr}^
    2b30:	41425f4f 	cmpmi	r2, pc, asr #30
    2b34:	00294553 	eoreq	r4, r9, r3, asr r5
    2b38:	334d5453 	movtcc	r5, #54355	; 0xd453
    2b3c:	30314632 	eorscc	r4, r1, r2, lsr r6
    2b40:	54384333 	ldrtpl	r4, [r8], #-819	; 0xfffffccd
    2b44:	00312078 	eorseq	r2, r1, r8, ror r0
    2b48:	6e695f5f 	mcrvs	15, 3, r5, cr9, cr15, {2}
    2b4c:	61665f74 	smcvs	26100	; 0x65f4
    2b50:	34367473 	ldrtcc	r7, [r6], #-1139	; 0xfffffb8d
    2b54:	645f745f 	ldrbvs	r7, [pc], #-1119	; 2b5c <_Min_Stack_Size+0x275c>
    2b58:	6e696665 	cdpvs	6, 6, cr6, cr9, cr5, {3}
    2b5c:	31206465 			; <UNDEFINED> instruction: 0x31206465
    2b60:	49564e00 	ldmdbmi	r6, {r9, sl, fp, lr}^
    2b64:	43495f43 	movtmi	r5, #40771	; 0x9f43
    2b68:	20325245 	eorscs	r5, r2, r5, asr #4
    2b6c:	6f76282a 	svcvs	0x0076282a
    2b70:	6974616c 	ldmdbvs	r4!, {r2, r3, r5, r6, r8, sp, lr}^
    2b74:	7520656c 	strvc	r6, [r0, #-1388]!	; 0xfffffa94
    2b78:	33746e69 	cmncc	r4, #1680	; 0x690
    2b7c:	20745f32 	rsbscs	r5, r4, r2, lsr pc
    2b80:	4e28292a 	vmulmi.f16	s4, s16, s21	; <UNPREDICTABLE>
    2b84:	5f434956 	svcpl	0x00434956
    2b88:	45534142 	ldrbmi	r4, [r3, #-322]	; 0xfffffebe
    2b8c:	30202b20 	eorcc	r2, r0, r0, lsr #22
    2b90:	29383878 	ldmdbcs	r8!, {r3, r4, r5, r6, fp, ip, sp}
    2b94:	535f5f00 	cmppl	pc, #0, 30
    2b98:	4f455a49 	svcmi	0x00455a49
    2b9c:	48535f46 	ldmdami	r3, {r1, r2, r6, r8, r9, sl, fp, ip, lr}^
    2ba0:	5f54524f 	svcpl	0x0054524f
    2ba4:	0032205f 	eorseq	r2, r2, pc, asr r0
    2ba8:	4c555f5f 	mrrcmi	15, 5, r5, r5, cr15	; <UNPREDICTABLE>
    2bac:	4343414c 	movtmi	r4, #12620	; 0x314c
    2bb0:	465f4d55 			; <UNDEFINED> instruction: 0x465f4d55
    2bb4:	5f544942 	svcpl	0x00544942
    2bb8:	3233205f 	eorscc	r2, r3, #95	; 0x5f
    2bbc:	45525f00 	ldrbmi	r5, [r2, #-3840]	; 0xfffff100
    2bc0:	5f544e45 	svcpl	0x00544e45
    2bc4:	54494e49 	strbpl	r4, [r9], #-3657	; 0xfffff1b7
    2bc8:	5345525f 	movtpl	r5, #21087	; 0x525f
    2bcc:	45565245 	ldrbmi	r5, [r6, #-581]	; 0xfffffdbb
    2bd0:	20305f44 	eorscs	r5, r0, r4, asr #30
    2bd4:	54584500 	ldrbpl	r4, [r8], #-1280	; 0xfffffb00
    2bd8:	50313149 	eorspl	r3, r1, r9, asr #2
    2bdc:	20313144 	eorscs	r3, r1, r4, asr #2
    2be0:	54584528 	ldrbpl	r4, [r8], #-1320	; 0xfffffad8
    2be4:	50475f49 	subpl	r5, r7, r9, asr #30
    2be8:	4d5f4f49 	ldclmi	15, cr4, [pc, #-292]	; 2acc <_Min_Stack_Size+0x26cc>
    2bec:	6e697061 	cdpvs	0, 6, cr7, cr9, cr1, {3}
    2bf0:	29745f67 	ldmdbcs	r4!, {r0, r1, r2, r5, r6, r8, r9, sl, fp, ip, lr}^
    2bf4:	5458457b 	ldrbpl	r4, [r8], #-1403	; 0xfffffa85
    2bf8:	2c313149 	ldfcss	f3, [r1], #-292	; 0xfffffedc
    2bfc:	49504720 	ldmdbmi	r0, {r5, r8, r9, sl, lr}^
    2c00:	202c444f 	eorcs	r4, ip, pc, asr #8
    2c04:	4f495047 	svcmi	0x00495047
    2c08:	4e49505f 	mcrmi	0, 2, r5, cr9, cr15, {2}
    2c0c:	2c31315f 	ldfcss	f3, [r1], #-380	; 0xfffffe84
    2c10:	54584520 	ldrbpl	r4, [r8], #-1312	; 0xfffffae0
    2c14:	5f313149 	svcpl	0x00313149
    2c18:	7d515249 	lfmvc	f5, 2, [r1, #-292]	; 0xfffffedc
    2c1c:	43324900 	teqmi	r2, #0, 18
    2c20:	3152535f 	cmpcc	r2, pc, asr r3
    2c24:	2042535f 	subcs	r5, r2, pc, asr r3
    2c28:	5f433249 	svcpl	0x00433249
    2c2c:	5f315253 	svcpl	0x00315253
    2c30:	4d5f4253 	lfmmi	f4, 2, [pc, #-332]	; 2aec <_Min_Stack_Size+0x26ec>
    2c34:	47006b73 	smlsdxmi	r0, r3, fp, r6
    2c38:	5f4f4950 	svcpl	0x004f4950
    2c3c:	45444f4d 	strbmi	r4, [r4, #-3917]	; 0xfffff0b3
    2c40:	54554f5f 	ldrbpl	r4, [r5], #-3935	; 0xfffff0a1
    2c44:	5f545550 	svcpl	0x00545550
    2c48:	30205050 	eorcc	r5, r0, r0, asr r0
    2c4c:	30303078 	eorscc	r3, r0, r8, ror r0
    2c50:	30303030 	eorscc	r3, r0, r0, lsr r0
    2c54:	5f005534 	svcpl	0x00005534
    2c58:	4345445f 	movtmi	r4, #21599	; 0x545f
    2c5c:	54534e4f 	ldrbpl	r4, [r3], #-3663	; 0xfffff1b1
    2c60:	70797428 	rsbsvc	r7, r9, r8, lsr #8
    2c64:	61762c65 	cmnvs	r6, r5, ror #24
    2c68:	28202972 	stmdacs	r0!, {r1, r4, r5, r6, r8, fp, sp}
    2c6c:	70797428 	rsbsvc	r7, r9, r8, lsr #8
    2c70:	5f282965 	svcpl	0x00282965
    2c74:	6e69755f 	mcrvs	5, 3, r7, cr9, cr15, {2}
    2c78:	72747074 	rsbsvc	r7, r4, #116	; 0x74
    2c7c:	2829745f 	stmdacs	r9!, {r0, r1, r2, r3, r4, r6, sl, ip, sp, lr}
    2c80:	736e6f63 	cmnvc	lr, #396	; 0x18c
    2c84:	6f762074 	svcvs	0x00762074
    2c88:	2a206469 	bcs	81be34 <_Min_Stack_Size+0x81ba34>
    2c8c:	61762829 	cmnvs	r6, r9, lsr #16
    2c90:	00292972 	eoreq	r2, r9, r2, ror r9
    2c94:	5359535f 	cmppl	r9, #2080374785	; 0x7c000001
    2c98:	4145465f 	cmpmi	r5, pc, asr r6
    2c9c:	45525554 	ldrbmi	r5, [r2, #-1364]	; 0xfffffaac
    2ca0:	20485f53 	subcs	r5, r8, r3, asr pc
    2ca4:	43324900 	teqmi	r2, #0, 18
    2ca8:	3252535f 	subscc	r5, r2, #2080374785	; 0x7c000001
    2cac:	4152545f 	cmpmi	r2, pc, asr r4
    2cb0:	736f505f 	cmnvc	pc, #95	; 0x5f
    2cb4:	55322820 	ldrpl	r2, [r2, #-2080]!	; 0xfffff7e0
    2cb8:	5f5f0029 	svcpl	0x005f0029
    2cbc:	6e696f6e 	cdpvs	15, 6, cr6, cr9, cr14, {3}
    2cc0:	656e696c 	strbvs	r6, [lr, #-2412]!	; 0xfffff694
    2cc4:	615f5f20 	cmpvs	pc, r0, lsr #30
    2cc8:	69727474 	ldmdbvs	r2!, {r2, r4, r5, r6, sl, ip, sp, lr}^
    2ccc:	65747562 	ldrbvs	r7, [r4, #-1378]!	; 0xfffffa9e
    2cd0:	28205f5f 	stmdacs	r0!, {r0, r1, r2, r3, r4, r6, r8, r9, sl, fp, ip, lr}
    2cd4:	6e5f5f28 	cdpvs	15, 5, cr5, cr15, cr8, {1}
    2cd8:	6c6e696f 			; <UNDEFINED> instruction: 0x6c6e696f
    2cdc:	5f656e69 	svcpl	0x00656e69
    2ce0:	0029295f 	eoreq	r2, r9, pc, asr r9
    2ce4:	43414d5f 	movtmi	r4, #7519	; 0x1d5f
    2ce8:	44545348 	ldrbmi	r5, [r4], #-840	; 0xfffffcb8
    2cec:	5f42494c 	svcpl	0x0042494c
    2cf0:	00205f48 	eoreq	r5, r0, r8, asr #30
    2cf4:	4f495047 	svcmi	0x00495047
    2cf8:	4e49505f 	mcrmi	0, 2, r5, cr9, cr15, {2}
    2cfc:	2820335f 	stmdacs	r0!, {r0, r1, r2, r3, r4, r6, r8, r9, ip, sp}
    2d00:	6e697528 	cdpvs	5, 6, cr7, cr9, cr8, {1}
    2d04:	5f363174 	svcpl	0x00363174
    2d08:	78302974 	ldmdavc	r0!, {r2, r4, r5, r6, r8, fp, sp}
    2d0c:	38303030 	ldmdacc	r0!, {r4, r5, ip, sp}
    2d10:	564e0029 	strbpl	r0, [lr], -r9, lsr #32
    2d14:	495f4349 	ldmdbmi	pc, {r0, r3, r6, r8, r9, lr}^	; <UNPREDICTABLE>
    2d18:	32524553 	subscc	r4, r2, #348127232	; 0x14c00000
    2d1c:	76282a20 	strtvc	r2, [r8], -r0, lsr #20
    2d20:	74616c6f 	strbtvc	r6, [r1], #-3183	; 0xfffff391
    2d24:	20656c69 	rsbcs	r6, r5, r9, ror #24
    2d28:	746e6975 	strbtvc	r6, [lr], #-2421	; 0xfffff68b
    2d2c:	745f3233 	ldrbvc	r3, [pc], #-563	; 2d34 <_Min_Stack_Size+0x2934>
    2d30:	28292a20 	stmdacs	r9!, {r5, r9, fp, sp}
    2d34:	4349564e 	movtmi	r5, #38478	; 0x964e
    2d38:	5341425f 	movtpl	r4, #4703	; 0x125f
    2d3c:	202b2045 	eorcs	r2, fp, r5, asr #32
    2d40:	29387830 	ldmdbcs	r8!, {r4, r5, fp, ip, sp, lr}
    2d44:	535f5f00 	cmppl	pc, #0, 30
    2d48:	4f455a49 	svcmi	0x00455a49
    2d4c:	4f4c5f46 	svcmi	0x004c5f46
    2d50:	445f474e 	ldrbmi	r4, [pc], #-1870	; 2d58 <_Min_Stack_Size+0x2958>
    2d54:	4c42554f 	cfstr64mi	mvdx5, [r2], {79}	; 0x4f
    2d58:	205f5f45 	subscs	r5, pc, r5, asr #30
    2d5c:	5f5f0038 	svcpl	0x005f0038
    2d60:	47415250 	smlsldmi	r5, r1, r0, r2
    2d64:	525f414d 	subspl	r4, pc, #1073741843	; 0x40000013
    2d68:	46454445 	strbmi	r4, [r5], -r5, asr #8
    2d6c:	5f454e49 	svcpl	0x00454e49
    2d70:	4e545845 	cdpmi	8, 5, cr5, cr4, cr5, {2}
    2d74:	20454d41 	subcs	r4, r5, r1, asr #26
    2d78:	5f5f0031 	svcpl	0x005f0031
    2d7c:	41484357 	cmpmi	r8, r7, asr r3
    2d80:	59545f52 	ldmdbpl	r4, {r1, r4, r6, r8, r9, sl, fp, ip, lr}^
    2d84:	5f5f4550 	svcpl	0x005f4550
    2d88:	736e7520 	cmnvc	lr, #32, 10	; 0x8000000
    2d8c:	656e6769 	strbvs	r6, [lr, #-1897]!	; 0xfffff897
    2d90:	6e692064 	cdpvs	0, 6, cr2, cr9, cr4, {3}
    2d94:	525f0074 	subspl	r0, pc, #116	; 0x74
    2d98:	544e4545 	strbpl	r4, [lr], #-1349	; 0xfffffabb
    2d9c:	4749535f 	smlsldmi	r5, r9, pc, r3	; <UNPREDICTABLE>
    2da0:	4d41474e 	stclmi	7, cr4, [r1, #-312]	; 0xfffffec8
    2da4:	72747028 	rsbsvc	r7, r4, #40	; 0x28
    2da8:	28282029 	stmdacs	r8!, {r0, r3, r5, sp}
    2dac:	29727470 	ldmdbcs	r2!, {r4, r5, r6, sl, ip, sp, lr}^
    2db0:	675f3e2d 	ldrbvs	r3, [pc, -sp, lsr #28]
    2db4:	616d6d61 	cmnvs	sp, r1, ror #26
    2db8:	6769735f 			; <UNDEFINED> instruction: 0x6769735f
    2dbc:	6d61676e 	stclvs	7, cr6, [r1, #-440]!	; 0xfffffe48
    2dc0:	58450029 	stmdapl	r5, {r0, r3, r5}^
    2dc4:	5f344954 	svcpl	0x00344954
    2dc8:	48515249 	ldmdami	r1, {r0, r3, r6, r9, ip, lr}^
    2dcc:	6c646e61 	stclvs	14, cr6, [r4], #-388	; 0xfffffe7c
    2dd0:	5f007265 	svcpl	0x00007265
    2dd4:	544c465f 	strbpl	r4, [ip], #-1631	; 0xfffff9a1
    2dd8:	445f3233 	ldrbmi	r3, [pc], #-563	; 2de0 <_Min_Stack_Size+0x29e0>
    2ddc:	5f5f4749 	svcpl	0x005f4749
    2de0:	5f003620 	svcpl	0x00003620
    2de4:	554f445f 	strbpl	r4, [pc, #-1119]	; 298d <_Min_Stack_Size+0x258d>
    2de8:	5f454c42 	svcpl	0x00454c42
    2dec:	45505954 	ldrbmi	r5, [r0, #-2388]	; 0xfffff6ac
    2df0:	756f6420 	strbvc	r6, [pc, #-1056]!	; 29d8 <_Min_Stack_Size+0x25d8>
    2df4:	00656c62 	rsbeq	r6, r5, r2, ror #24
    2df8:	49545845 	ldmdbmi	r4, {r0, r2, r6, fp, ip, lr}^
    2dfc:	6e6f435f 	mcrvs	3, 3, r4, cr15, cr15, {2}
    2e00:	00676966 	rsbeq	r6, r7, r6, ror #18
    2e04:	4d544e49 	ldclmi	14, cr4, [r4, #-292]	; 0xfffffedc
    2e08:	435f5841 	cmpmi	pc, #4259840	; 0x410000
    2e0c:	20297828 	eorcs	r7, r9, r8, lsr #16
    2e10:	4e495f5f 	mcrmi	15, 2, r5, cr9, cr15, {2}
    2e14:	58414d54 	stmdapl	r1, {r2, r4, r6, r8, sl, fp, lr}^
    2e18:	7828435f 	stmdavc	r8!, {r0, r1, r2, r3, r4, r6, r8, r9, lr}
    2e1c:	5f5f0029 	svcpl	0x005f0029
    2e20:	6465656e 	strbtvs	r6, [r5], #-1390	; 0xfffffa92
    2e24:	6863775f 	stmdavs	r3!, {r0, r1, r2, r3, r4, r6, r8, r9, sl, ip, sp, lr}^
    2e28:	745f7261 	ldrbvc	r7, [pc], #-609	; 2e30 <_Min_Stack_Size+0x2a30>
    2e2c:	5f5f0020 	svcpl	0x005f0020
    2e30:	64646968 	strbtvs	r6, [r4], #-2408	; 0xfffff698
    2e34:	5f206e65 	svcpl	0x00206e65
    2e38:	7474615f 	ldrbtvc	r6, [r4], #-351	; 0xfffffea1
    2e3c:	75626972 	strbvc	r6, [r2, #-2418]!	; 0xfffff68e
    2e40:	5f5f6574 	svcpl	0x005f6574
    2e44:	5f5f2828 	svcpl	0x005f2828
    2e48:	69736976 	ldmdbvs	r3!, {r1, r2, r4, r5, r6, r8, fp, sp, lr}^
    2e4c:	696c6962 	stmdbvs	ip!, {r1, r5, r6, r8, fp, sp, lr}^
    2e50:	5f5f7974 	svcpl	0x005f7974
    2e54:	69682228 	stmdbvs	r8!, {r3, r5, r9, sp}^
    2e58:	6e656464 	cdpvs	4, 6, cr6, cr5, cr4, {3}
    2e5c:	29292922 	stmdbcs	r9!, {r1, r5, r8, fp, sp}
    2e60:	544e4900 	strbpl	r4, [lr], #-2304	; 0xfffff700
    2e64:	41454c5f 	cmpmi	r5, pc, asr ip
    2e68:	32335453 	eorscc	r5, r3, #1392508928	; 0x53000000
    2e6c:	58414d5f 	stmdapl	r1, {r0, r1, r2, r3, r4, r6, r8, sl, fp, lr}^
    2e70:	5f5f2820 	svcpl	0x005f2820
    2e74:	5f544e49 	svcpl	0x00544e49
    2e78:	5341454c 	movtpl	r4, #5452	; 0x154c
    2e7c:	5f323354 	svcpl	0x00323354
    2e80:	5f58414d 	svcpl	0x0058414d
    2e84:	5f00295f 	svcpl	0x0000295f
    2e88:	5246535f 	subpl	r5, r6, #2080374785	; 0x7c000001
    2e8c:	5f544341 	svcpl	0x00544341
    2e90:	5f58414d 	svcpl	0x0058414d
    2e94:	5830205f 	ldmdapl	r0!, {r0, r1, r2, r3, r4, r6, sp}
    2e98:	2d504637 	ldclcs	6, cr4, [r0, #-220]	; 0xffffff24
    2e9c:	00524837 	subseq	r4, r2, r7, lsr r8
    2ea0:	49555f5f 	ldmdbmi	r5, {r0, r1, r2, r3, r4, r6, r8, r9, sl, fp, ip, lr}^
    2ea4:	465f544e 	ldrbmi	r5, [pc], -lr, asr #8
    2ea8:	36545341 	ldrbcc	r5, [r4], -r1, asr #6
    2eac:	59545f34 	ldmdbpl	r4, {r2, r4, r5, r8, r9, sl, fp, ip, lr}^
    2eb0:	5f5f4550 	svcpl	0x005f4550
    2eb4:	6e6f6c20 	cdpvs	12, 6, cr6, cr15, cr0, {1}
    2eb8:	6f6c2067 	svcvs	0x006c2067
    2ebc:	7520676e 	strvc	r6, [r0, #-1902]!	; 0xfffff892
    2ec0:	6769736e 	strbvs	r7, [r9, -lr, ror #6]!
    2ec4:	2064656e 	rsbcs	r6, r4, lr, ror #10
    2ec8:	00746e69 	rsbseq	r6, r4, r9, ror #28
    2ecc:	4e49575f 	mcrmi	7, 2, r5, cr9, cr15, {2}
    2ed0:	20545f54 	subscs	r5, r4, r4, asr pc
    2ed4:	544e4900 	strbpl	r4, [lr], #-2304	; 0xfffff700
    2ed8:	41454c5f 	cmpmi	r5, pc, asr ip
    2edc:	5f385453 	svcpl	0x00385453
    2ee0:	2058414d 	subscs	r4, r8, sp, asr #2
    2ee4:	495f5f28 	ldmdbmi	pc, {r3, r5, r8, r9, sl, fp, ip, lr}^	; <UNPREDICTABLE>
    2ee8:	4c5f544e 	cfldrdmi	mvd5, [pc], {78}	; 0x4e
    2eec:	54534145 	ldrbpl	r4, [r3], #-325	; 0xfffffebb
    2ef0:	414d5f38 	cmpmi	sp, r8, lsr pc
    2ef4:	295f5f58 	ldmdbcs	pc, {r3, r4, r6, r8, r9, sl, fp, ip, lr}^	; <UNPREDICTABLE>
    2ef8:	465f5f00 	ldrbmi	r5, [pc], -r0, lsl #30
    2efc:	4d5f544c 	cfldrdmi	mvd5, [pc, #-304]	; 2dd4 <_Min_Stack_Size+0x29d4>
    2f00:	5f5f4e49 	svcpl	0x005f4e49
    2f04:	312e3120 			; <UNDEFINED> instruction: 0x312e3120
    2f08:	39343537 	ldmdbcc	r4!, {r0, r1, r2, r4, r5, r8, sl, ip, sp}
    2f0c:	30353334 	eorscc	r3, r5, r4, lsr r3
    2f10:	32323238 	eorscc	r3, r2, #56, 4	; 0x80000003
    2f14:	65353738 	ldrvs	r3, [r5, #-1848]!	; 0xfffff8c8
    2f18:	4638332d 	ldrtmi	r3, [r8], -sp, lsr #6
    2f1c:	6e5f5f00 	cdpvs	15, 5, cr5, cr15, cr0, {0}
    2f20:	5f646565 	svcpl	0x00646565
    2f24:	657a6973 	ldrbvs	r6, [sl, #-2419]!	; 0xfffff68d
    2f28:	0020745f 	eoreq	r7, r0, pc, asr r4
    2f2c:	41485f5f 	cmpmi	r8, pc, asr pc
    2f30:	4942465f 	stmdbmi	r2, {r0, r1, r2, r3, r4, r6, r9, sl, lr}^
    2f34:	205f5f54 	subscs	r5, pc, r4, asr pc	; <UNPREDICTABLE>
    2f38:	5f5f0037 	svcpl	0x005f0037
    2f3c:	49504446 	ldmdbmi	r0, {r1, r2, r6, sl, lr}^
    2f40:	005f5f43 	subseq	r5, pc, r3, asr #30
    2f44:	4f494641 	svcmi	0x00494641
    2f48:	7079545f 	rsbsvc	r5, r9, pc, asr r4
    2f4c:	66656465 	strbtvs	r6, [r5], -r5, ror #8
    2f50:	465f5f00 	ldrbmi	r5, [pc], -r0, lsl #30
    2f54:	4d5f544c 	cfldrdmi	mvd5, [pc, #-304]	; 2e2c <_Min_Stack_Size+0x2a2c>
    2f58:	5f5f5841 	svcpl	0x005f5841
    2f5c:	342e3320 	strtcc	r3, [lr], #-800	; 0xfffffce0
    2f60:	32383230 	eorscc	r3, r8, #48, 4
    2f64:	36363433 			; <UNDEFINED> instruction: 0x36363433
    2f68:	32353833 	eorscc	r3, r5, #3342336	; 0x330000
    2f6c:	65363838 	ldrvs	r3, [r6, #-2104]!	; 0xfffff7c8
    2f70:	4638332b 	ldrtmi	r3, [r8], -fp, lsr #6
    2f74:	465f5f00 	ldrbmi	r5, [pc], -r0, lsl #30
    2f78:	3233544c 	eorscc	r5, r3, #76, 8	; 0x4c000000
    2f7c:	5f53495f 	svcpl	0x0053495f
    2f80:	5f434549 	svcpl	0x00434549
    2f84:	35353036 	ldrcc	r3, [r5, #-54]!	; 0xffffffca
    2f88:	205f5f39 	subscs	r5, pc, r9, lsr pc	; <UNPREDICTABLE>
    2f8c:	49530032 	ldmdbmi	r3, {r1, r4, r5}^
    2f90:	54415f47 	strbpl	r5, [r1], #-3911	; 0xfffff0b9
    2f94:	43494d4f 	movtmi	r4, #40271	; 0x9d4f
    2f98:	58414d5f 	stmdapl	r1, {r0, r1, r2, r3, r4, r6, r8, sl, fp, lr}^
    2f9c:	5f5f2820 	svcpl	0x005f2820
    2fa0:	49445453 	stmdbmi	r4, {r0, r1, r4, r6, sl, ip, lr}^
    2fa4:	455f544e 	ldrbmi	r5, [pc, #-1102]	; 2b5e <_Min_Stack_Size+0x275e>
    2fa8:	49285058 	stmdbmi	r8!, {r3, r4, r6, ip, lr}
    2fac:	4d5f544e 	cfldrdmi	mvd5, [pc, #-312]	; 2e7c <_Min_Stack_Size+0x2a7c>
    2fb0:	29295841 	stmdbcs	r9!, {r0, r6, fp, ip, lr}
    2fb4:	43324900 	teqmi	r2, #0, 18
    2fb8:	3252435f 	subscc	r4, r2, #2080374785	; 0x7c000001
    2fbc:	4554495f 	ldrbmi	r4, [r4, #-2399]	; 0xfffff6a1
    2fc0:	4e455252 	mcrmi	2, 2, r5, cr5, cr2, {2}
    2fc4:	6b734d5f 	blvs	1cd6548 <_Min_Stack_Size+0x1cd6148>
    2fc8:	78302820 	ldmdavc	r0!, {r5, fp, sp}
    2fcc:	204c5531 	subcs	r5, ip, r1, lsr r5
    2fd0:	49203c3c 	stmdbmi	r0!, {r2, r3, r4, r5, sl, fp, ip, sp}
    2fd4:	435f4332 	cmpmi	pc, #-939524096	; 0xc8000000
    2fd8:	495f3252 	ldmdbmi	pc, {r1, r4, r6, r9, ip, sp}^	; <UNPREDICTABLE>
    2fdc:	52524554 	subspl	r4, r2, #84, 10	; 0x15000000
    2fe0:	505f4e45 	subspl	r4, pc, r5, asr #28
    2fe4:	0029736f 	eoreq	r7, r9, pc, ror #6
    2fe8:	544e4955 	strbpl	r4, [lr], #-2389	; 0xfffff6ab
    2fec:	5341465f 	movtpl	r4, #5727	; 0x165f
    2ff0:	5f323354 	svcpl	0x00323354
    2ff4:	2058414d 	subscs	r4, r8, sp, asr #2
    2ff8:	555f5f28 	ldrbpl	r5, [pc, #-3880]	; 20d8 <_Min_Stack_Size+0x1cd8>
    2ffc:	5f544e49 	svcpl	0x00544e49
    3000:	54534146 	ldrbpl	r4, [r3], #-326	; 0xfffffeba
    3004:	4d5f3233 	lfmmi	f3, 2, [pc, #-204]	; 2f40 <_Min_Stack_Size+0x2b40>
    3008:	5f5f5841 	svcpl	0x005f5841
    300c:	32490029 	subcc	r0, r9, #41	; 0x29
    3010:	52535f43 	subspl	r5, r3, #268	; 0x10c
    3014:	55425f32 	strbpl	r5, [r2, #-3890]	; 0xfffff0ce
    3018:	49205953 	stmdbmi	r0!, {r0, r1, r4, r6, r8, fp, ip, lr}
    301c:	535f4332 	cmppl	pc, #-939524096	; 0xc8000000
    3020:	425f3252 	subsmi	r3, pc, #536870917	; 0x20000005
    3024:	5f595355 	svcpl	0x00595355
    3028:	006b734d 	rsbeq	r7, fp, sp, asr #6
    302c:	5f433249 	svcpl	0x00433249
    3030:	5f315253 	svcpl	0x00315253
    3034:	31444441 	cmpcc	r4, r1, asr #8
    3038:	734d5f30 	movtvc	r5, #57136	; 0xdf30
    303c:	3028206b 	eorcc	r2, r8, fp, rrx
    3040:	4c553178 	ldfmie	f3, [r5], {120}	; 0x78
    3044:	203c3c20 	eorscs	r3, ip, r0, lsr #24
    3048:	5f433249 	svcpl	0x00433249
    304c:	5f315253 	svcpl	0x00315253
    3050:	31444441 	cmpcc	r4, r1, asr #8
    3054:	6f505f30 	svcvs	0x00505f30
    3058:	45002973 	strmi	r2, [r0, #-2419]	; 0xfffff68d
    305c:	31495458 	cmpcc	r9, r8, asr r4
    3060:	52495f33 	subpl	r5, r9, #51, 30	; 0xcc
    3064:	30342051 	eorscc	r2, r4, r1, asr r0
    3068:	555f5f00 	ldrbpl	r5, [pc, #-3840]	; 2170 <_Min_Stack_Size+0x1d70>
    306c:	41524653 	cmpmi	r2, r3, asr r6
    3070:	495f5443 	ldmdbmi	pc, {r0, r1, r6, sl, ip, lr}^	; <UNPREDICTABLE>
    3074:	5f544942 	svcpl	0x00544942
    3078:	0030205f 	eorseq	r2, r0, pc, asr r0
    307c:	4e495f5f 	mcrmi	15, 2, r5, cr9, cr15, {2}
    3080:	5f323354 	svcpl	0x00323354
    3084:	29632843 	stmdbcs	r3!, {r0, r1, r6, fp, sp}^
    3088:	23206320 			; <UNDEFINED> instruction: 0x23206320
    308c:	004c2023 	subeq	r2, ip, r3, lsr #32
    3090:	69755f5f 	ldmdbvs	r5!, {r0, r1, r2, r3, r4, r6, r8, r9, sl, fp, ip, lr}^
    3094:	3631746e 	ldrtcc	r7, [r1], -lr, ror #8
    3098:	5f00745f 	svcpl	0x0000745f
    309c:	4e454552 	mcrmi	5, 2, r4, cr5, cr2, {2}
    30a0:	4e495f54 	mcrmi	15, 2, r5, cr9, cr4, {2}
    30a4:	525f5449 	subspl	r5, pc, #1224736768	; 0x49000000
    30a8:	52455345 	subpl	r5, r5, #335544321	; 0x14000001
    30ac:	5f444556 	svcpl	0x00444556
    30b0:	5f002031 	svcpl	0x00002031
    30b4:	4e454552 	mcrmi	5, 2, r4, cr5, cr2, {2}
    30b8:	49535f54 	ldmdbmi	r3, {r2, r4, r6, r8, r9, sl, fp, ip, lr}^
    30bc:	4c414e47 	mcrrmi	14, 4, r4, r1, cr7
    30c0:	4655425f 			; <UNDEFINED> instruction: 0x4655425f
    30c4:	72747028 	rsbsvc	r7, r4, #40	; 0x28
    30c8:	28282029 	stmdacs	r8!, {r0, r3, r5, sp}
    30cc:	29727470 	ldmdbcs	r2!, {r4, r5, r6, sl, ip, sp, lr}^
    30d0:	735f3e2d 	cmpvc	pc, #720	; 0x2d0
    30d4:	616e6769 	cmnvs	lr, r9, ror #14
    30d8:	75625f6c 	strbvc	r5, [r2, #-3948]!	; 0xfffff094
    30dc:	47002966 	strmi	r2, [r0, -r6, ror #18]
    30e0:	5f4f4950 	svcpl	0x004f4950
    30e4:	436e6950 	cmnmi	lr, #80, 18	; 0x140000
    30e8:	69666e6f 	stmdbvs	r6!, {r0, r1, r2, r3, r5, r6, r9, sl, fp, sp, lr}^
    30ec:	00745f67 	rsbseq	r5, r4, r7, ror #30
    30f0:	53555f5f 	cmppl	r5, #380	; 0x17c
    30f4:	43415246 	movtmi	r5, #4678	; 0x1246
    30f8:	494d5f54 	stmdbmi	sp, {r2, r4, r6, r8, r9, sl, fp, ip, lr}^
    30fc:	205f5f4e 	subscs	r5, pc, lr, asr #30
    3100:	55302e30 	ldrpl	r2, [r0, #-3632]!	; 0xfffff1d0
    3104:	5f005248 	svcpl	0x00005248
    3108:	6573755f 	ldrbvs	r7, [r3, #-1375]!	; 0xfffffaa1
    310c:	5f5f2064 	svcpl	0x005f2064
    3110:	72747461 	rsbsvc	r7, r4, #1627389952	; 0x61000000
    3114:	74756269 	ldrbtvc	r6, [r5], #-617	; 0xfffffd97
    3118:	285f5f65 	ldmdacs	pc, {r0, r2, r5, r6, r8, r9, sl, fp, ip, lr}^	; <UNPREDICTABLE>
    311c:	755f5f28 	ldrbvc	r5, [pc, #-3880]	; 21fc <_Min_Stack_Size+0x1dfc>
    3120:	5f646573 	svcpl	0x00646573
    3124:	0029295f 	eoreq	r2, r9, pc, asr r9
    3128:	65675f5f 	strbvs	r5, [r7, #-3935]!	; 0xfffff0a1
    312c:	6972656e 	ldmdbvs	r2!, {r1, r2, r3, r5, r6, r8, sl, sp, lr}^
    3130:	78652863 	stmdavc	r5!, {r0, r1, r5, r6, fp, sp}^
    3134:	742c7270 	strtvc	r7, [ip], #-624	; 0xfffffd90
    3138:	7365792c 	cmnvc	r5, #44, 18	; 0xb0000
    313c:	296f6e2c 	stmdbcs	pc!, {r2, r3, r5, r9, sl, fp, sp, lr}^	; <UNPREDICTABLE>
    3140:	65475f20 	strbvs	r5, [r7, #-3872]	; 0xfffff0e0
    3144:	6972656e 	ldmdbvs	r2!, {r1, r2, r3, r5, r6, r8, sl, sp, lr}^
    3148:	78652863 	stmdavc	r5!, {r0, r1, r5, r6, fp, sp}^
    314c:	202c7270 	eorcs	r7, ip, r0, ror r2
    3150:	79203a74 	stmdbvc	r0!, {r2, r4, r5, r6, r9, fp, ip, sp}
    3154:	202c7365 	eorcs	r7, ip, r5, ror #6
    3158:	61666564 	cmnvs	r6, r4, ror #10
    315c:	3a746c75 	bcc	1d1e338 <_Min_Stack_Size+0x1d1df38>
    3160:	296f6e20 	stmdbcs	pc!, {r5, r9, sl, fp, sp, lr}^	; <UNPREDICTABLE>
    3164:	415f5f00 	cmpmi	pc, r0, lsl #30
    3168:	4e5f4d52 	mrcmi	13, 2, r4, cr15, cr2, {2}
    316c:	004e4f45 	subeq	r4, lr, r5, asr #30
    3170:	73615f5f 	cmnvc	r1, #380	; 0x17c
    3174:	74726573 	ldrbtvc	r6, [r2], #-1395	; 0xfffffa8d
    3178:	78655f73 	stmdavc	r5!, {r0, r1, r4, r5, r6, r8, r9, sl, fp, ip, lr}^
    317c:	73756c63 	cmnvc	r5, #25344	; 0x6300
    3180:	28657669 	stmdacs	r5!, {r0, r3, r5, r6, r9, sl, ip, sp, lr}^
    3184:	292e2e2e 	stmdbcs	lr!, {r1, r2, r3, r5, r9, sl, fp, sp}
    3188:	6c5f5f20 	mrrcvs	15, 2, r5, pc, cr0	; <UNPREDICTABLE>
    318c:	5f6b636f 	svcpl	0x006b636f
    3190:	6f6e6e61 	svcvs	0x006e6e61
    3194:	65746174 	ldrbvs	r6, [r4, #-372]!	; 0xfffffe8c
    3198:	73736128 	cmnvc	r3, #40, 2
    319c:	5f747265 	svcpl	0x00747265
    31a0:	6c637865 	stclvs	8, cr7, [r3], #-404	; 0xfffffe6c
    31a4:	76697375 			; <UNDEFINED> instruction: 0x76697375
    31a8:	6f6c5f65 	svcvs	0x006c5f65
    31ac:	5f286b63 	svcpl	0x00286b63
    31b0:	5f41565f 	svcpl	0x0041565f
    31b4:	53475241 	movtpl	r5, #29249	; 0x7241
    31b8:	29295f5f 	stmdbcs	r9!, {r0, r1, r2, r3, r4, r6, r8, r9, sl, fp, ip, lr}
    31bc:	555f5f00 	ldrbpl	r5, [pc, #-3840]	; 22c4 <_Min_Stack_Size+0x1ec4>
    31c0:	38544e49 	ldmdacc	r4, {r0, r3, r6, r9, sl, fp, lr}^
    31c4:	58414d5f 	stmdapl	r1, {r0, r1, r2, r3, r4, r6, r8, sl, fp, lr}^
    31c8:	30205f5f 	eorcc	r5, r0, pc, asr pc
    31cc:	00666678 	rsbeq	r6, r6, r8, ror r6
    31d0:	695f5f5f 	ldmdbvs	pc, {r0, r1, r2, r3, r4, r6, r8, r9, sl, fp, ip, lr}^	; <UNPREDICTABLE>
    31d4:	3631746e 	ldrtcc	r7, [r1], -lr, ror #8
    31d8:	645f745f 	ldrbvs	r7, [pc], #-1119	; 31e0 <_Min_Stack_Size+0x2de0>
    31dc:	6e696665 	cdpvs	6, 6, cr6, cr9, cr5, {3}
    31e0:	31206465 			; <UNDEFINED> instruction: 0x31206465
    31e4:	45525f00 	ldrbmi	r5, [r2, #-3840]	; 0xfffff100
    31e8:	20544e45 	subscs	r4, r4, r5, asr #28
    31ec:	706d695f 	rsbvc	r6, sp, pc, asr r9
    31f0:	5f657275 	svcpl	0x00657275
    31f4:	00727470 	rsbseq	r7, r2, r0, ror r4
    31f8:	444c5f5f 	strbmi	r5, [ip], #-3935	; 0xfffff0a1
    31fc:	4d5f4c42 	ldclmi	12, cr4, [pc, #-264]	; 30fc <_Min_Stack_Size+0x2cfc>
    3200:	455f5841 	ldrbmi	r5, [pc, #-2113]	; 29c7 <_Min_Stack_Size+0x25c7>
    3204:	5f5f5058 	svcpl	0x005f5058
    3208:	32303120 	eorscc	r3, r0, #32, 2
    320c:	32490034 	subcc	r0, r9, #52	; 0x34
    3210:	52535f43 	subspl	r5, r3, #268	; 0x10c
    3214:	46415f31 			; <UNDEFINED> instruction: 0x46415f31
    3218:	6b734d5f 	blvs	1cd679c <_Min_Stack_Size+0x1cd639c>
    321c:	78302820 	ldmdavc	r0!, {r5, fp, sp}
    3220:	204c5531 	subcs	r5, ip, r1, lsr r5
    3224:	49203c3c 	stmdbmi	r0!, {r2, r3, r4, r5, sl, fp, ip, sp}
    3228:	535f4332 	cmppl	pc, #-939524096	; 0xc8000000
    322c:	415f3152 	cmpmi	pc, r2, asr r1	; <UNPREDICTABLE>
    3230:	6f505f46 	svcvs	0x00505f46
    3234:	45002973 	strmi	r2, [r0, #-2419]	; 0xfffff68d
    3238:	5f495458 	svcpl	0x00495458
    323c:	436e6950 	cmnmi	lr, #80, 18	; 0x140000
    3240:	69666e6f 	stmdbvs	r6!, {r0, r1, r2, r3, r5, r6, r9, sl, fp, sp, lr}^
    3244:	00745f67 	rsbseq	r5, r4, r7, ror #30
    3248:	49545845 	ldmdbmi	r4, {r0, r2, r6, fp, ip, lr}^
    324c:	52495f32 	subpl	r5, r9, #50, 30	; 0xc8
    3250:	00382051 	eorseq	r2, r8, r1, asr r0
    3254:	78655f5f 	stmdavc	r5!, {r0, r1, r2, r3, r4, r6, r8, r9, sl, fp, ip, lr}^
    3258:	74726f70 	ldrbtvc	r6, [r2], #-3952	; 0xfffff090
    325c:	5f206465 	svcpl	0x00206465
    3260:	7474615f 	ldrbtvc	r6, [r4], #-351	; 0xfffffea1
    3264:	75626972 	strbvc	r6, [r2, #-2418]!	; 0xfffff68e
    3268:	5f5f6574 	svcpl	0x005f6574
    326c:	5f5f2828 	svcpl	0x005f2828
    3270:	69736976 	ldmdbvs	r3!, {r1, r2, r4, r5, r6, r8, fp, sp, lr}^
    3274:	696c6962 	stmdbvs	ip!, {r1, r5, r6, r8, fp, sp, lr}^
    3278:	5f5f7974 	svcpl	0x005f7974
    327c:	65642228 	strbvs	r2, [r4, #-552]!	; 0xfffffdd8
    3280:	6c756166 	ldfvse	f6, [r5], #-408	; 0xfffffe68
    3284:	29292274 	stmdbcs	r9!, {r2, r4, r5, r6, r9, sp}
    3288:	5f5f0029 	svcpl	0x005f0029
    328c:	53434353 	movtpl	r4, #13139	; 0x3353
    3290:	73284449 			; <UNDEFINED> instruction: 0x73284449
    3294:	74732029 	ldrbtvc	r2, [r3], #-41	; 0xffffffd7
    3298:	74637572 	strbtvc	r7, [r3], #-1394	; 0xfffffa8e
    329c:	685f5f20 	ldmdavs	pc, {r5, r8, r9, sl, fp, ip, lr}^	; <UNPREDICTABLE>
    32a0:	006b6361 	rsbeq	r6, fp, r1, ror #6
    32a4:	42445f5f 	submi	r5, r4, #380	; 0x17c
    32a8:	41485f4c 	cmpmi	r8, ip, asr #30
    32ac:	45445f53 	strbmi	r5, [r4, #-3923]	; 0xfffff0ad
    32b0:	4d524f4e 	ldclmi	15, cr4, [r2, #-312]	; 0xfffffec8
    32b4:	31205f5f 			; <UNDEFINED> instruction: 0x31205f5f
    32b8:	6c5f5f00 	mrrcvs	15, 0, r5, pc, cr0	; <UNPREDICTABLE>
    32bc:	5f6b636f 	svcpl	0x006b636f
    32c0:	5f797274 	svcpl	0x00797274
    32c4:	75716361 	ldrbvc	r6, [r1, #-865]!	; 0xfffffc9f
    32c8:	5f657269 	svcpl	0x00657269
    32cc:	75636572 	strbvc	r6, [r3, #-1394]!	; 0xfffffa8e
    32d0:	76697372 			; <UNDEFINED> instruction: 0x76697372
    32d4:	6f6c2865 	svcvs	0x006c2865
    32d8:	20296b63 	eorcs	r6, r9, r3, ror #22
    32dc:	65725f5f 	ldrbvs	r5, [r2, #-3935]!	; 0xfffff0a1
    32e0:	67726174 			; <UNDEFINED> instruction: 0x67726174
    32e4:	6c5f7465 	cfldrdvs	mvd7, [pc], {101}	; 0x65
    32e8:	5f6b636f 	svcpl	0x006b636f
    32ec:	5f797274 	svcpl	0x00797274
    32f0:	75716361 	ldrbvc	r6, [r1, #-865]!	; 0xfffffc9f
    32f4:	5f657269 	svcpl	0x00657269
    32f8:	75636572 	strbvc	r6, [r3, #-1394]!	; 0xfffffa8e
    32fc:	76697372 			; <UNDEFINED> instruction: 0x76697372
    3300:	6f6c2865 	svcvs	0x006c2865
    3304:	00296b63 	eoreq	r6, r9, r3, ror #22
    3308:	49545845 	ldmdbmi	r4, {r0, r2, r6, fp, ip, lr}^
    330c:	44503531 	ldrbmi	r3, [r0], #-1329	; 0xfffffacf
    3310:	28203531 	stmdacs	r0!, {r0, r4, r5, r8, sl, ip, sp}
    3314:	49545845 	ldmdbmi	r4, {r0, r2, r6, fp, ip, lr}^
    3318:	4950475f 	ldmdbmi	r0, {r0, r1, r2, r3, r4, r6, r8, r9, sl, lr}^
    331c:	614d5f4f 	cmpvs	sp, pc, asr #30
    3320:	676e6970 			; <UNDEFINED> instruction: 0x676e6970
    3324:	7b29745f 	blvc	a604a8 <_Min_Stack_Size+0xa600a8>
    3328:	49545845 	ldmdbmi	r4, {r0, r2, r6, fp, ip, lr}^
    332c:	202c3531 	eorcs	r3, ip, r1, lsr r5
    3330:	4f495047 	svcmi	0x00495047
    3334:	47202c44 	strmi	r2, [r0, -r4, asr #24]!
    3338:	5f4f4950 	svcpl	0x004f4950
    333c:	5f4e4950 	svcpl	0x004e4950
    3340:	202c3531 	eorcs	r3, ip, r1, lsr r5
    3344:	49545845 	ldmdbmi	r4, {r0, r2, r6, fp, ip, lr}^
    3348:	495f3531 	ldmdbmi	pc, {r0, r4, r5, r8, sl, ip, sp}^	; <UNPREDICTABLE>
    334c:	007d5152 	rsbseq	r5, sp, r2, asr r1
    3350:	43435f5f 	movtmi	r5, #16223	; 0x3f5f
    3354:	5055535f 	subspl	r5, r5, pc, asr r3
    3358:	54524f50 	ldrbpl	r4, [r2], #-3920	; 0xfffff0b0
    335c:	5f5f5f53 	svcpl	0x005f5f53
    3360:	494c4e49 	stmdbmi	ip, {r0, r3, r6, r9, sl, fp, lr}^
    3364:	3120454e 			; <UNDEFINED> instruction: 0x3120454e
    3368:	424d5f00 	submi	r5, sp, #0, 30
    336c:	4e454c5f 	mcrmi	12, 2, r4, cr5, cr15, {2}
    3370:	58414d5f 	stmdapl	r1, {r0, r1, r2, r3, r4, r6, r8, sl, fp, lr}^
    3374:	49003120 	stmdbmi	r0, {r5, r8, ip, sp}
    3378:	414d544e 	cmpmi	sp, lr, asr #8
    337c:	414d5f58 	cmpmi	sp, r8, asr pc
    3380:	5f282058 	svcpl	0x00282058
    3384:	544e495f 	strbpl	r4, [lr], #-2399	; 0xfffff6a1
    3388:	5f58414d 	svcpl	0x0058414d
    338c:	5f58414d 	svcpl	0x0058414d
    3390:	4900295f 	stmdbmi	r0, {r0, r1, r2, r3, r4, r6, r8, fp, sp}
    3394:	3233544e 	eorscc	r5, r3, #1308622848	; 0x4e000000
    3398:	58414d5f 	stmdapl	r1, {r0, r1, r2, r3, r4, r6, r8, sl, fp, lr}^
    339c:	5f5f2820 	svcpl	0x005f2820
    33a0:	33544e49 	cmpcc	r4, #1168	; 0x490
    33a4:	414d5f32 	cmpmi	sp, r2, lsr pc
    33a8:	295f5f58 	ldmdbcs	pc, {r3, r4, r6, r8, r9, sl, fp, ip, lr}^	; <UNPREDICTABLE>
    33ac:	43324900 	teqmi	r2, #0, 18
    33b0:	56455f32 			; <UNDEFINED> instruction: 0x56455f32
    33b4:	5152495f 	cmppl	r2, pc, asr r9
    33b8:	00333320 	eorseq	r3, r3, r0, lsr #6
    33bc:	4545525f 	strbmi	r5, [r5, #-607]	; 0xfffffda1
    33c0:	495f544e 	ldmdbmi	pc, {r1, r2, r3, r6, sl, ip, lr}^	; <UNPREDICTABLE>
    33c4:	5f28434e 	svcpl	0x0028434e
    33c8:	29727470 	ldmdbcs	r2!, {r4, r5, r6, sl, ip, sp, lr}^
    33cc:	5f282820 	svcpl	0x00282820
    33d0:	29727470 	ldmdbcs	r2!, {r4, r5, r6, sl, ip, sp, lr}^
    33d4:	695f3e2d 	ldmdbvs	pc, {r0, r2, r3, r5, r9, sl, fp, ip, sp}^	; <UNPREDICTABLE>
    33d8:	0029636e 	eoreq	r6, r9, lr, ror #6
    33dc:	41445f5f 	cmpmi	r4, pc, asr pc
    33e0:	4942465f 	stmdbmi	r2, {r0, r1, r2, r3, r4, r6, r9, sl, lr}^
    33e4:	205f5f54 	subscs	r5, pc, r4, asr pc	; <UNPREDICTABLE>
    33e8:	5f003133 	svcpl	0x00003133
    33ec:	4e454552 	mcrmi	5, 2, r4, cr5, cr2, {2}
    33f0:	54535f54 	ldrbpl	r5, [r3], #-3924	; 0xfffff0ac
    33f4:	284e4944 	stmdacs	lr, {r2, r6, r8, fp, lr}^
    33f8:	7274705f 	rsbsvc	r7, r4, #95	; 0x5f
    33fc:	28282029 	stmdacs	r8!, {r0, r3, r5, sp}
    3400:	7274705f 	rsbsvc	r7, r4, #95	; 0x5f
    3404:	5f3e2d29 	svcpl	0x003e2d29
    3408:	69647473 	stmdbvs	r4!, {r0, r1, r4, r5, r6, sl, ip, sp, lr}^
    340c:	4900296e 	stmdbmi	r0, {r1, r2, r3, r5, r6, r8, fp, sp}
    3410:	435f4332 	cmpmi	pc, #-939524096	; 0xc8000000
    3414:	505f3152 	subspl	r3, pc, r2, asr r1	; <UNPREDICTABLE>
    3418:	32492045 	subcc	r2, r9, #69	; 0x45
    341c:	52435f43 	subpl	r5, r3, #268	; 0x10c
    3420:	45505f31 	ldrbmi	r5, [r0, #-3889]	; 0xfffff0cf
    3424:	6b734d5f 	blvs	1cd69a8 <_Min_Stack_Size+0x1cd65a8>
    3428:	475f5f00 	ldrbmi	r5, [pc, -r0, lsl #30]
    342c:	415f5858 	cmpmi	pc, r8, asr r8	; <UNPREDICTABLE>
    3430:	565f4942 	ldrbpl	r4, [pc], -r2, asr #18
    3434:	49535245 	ldmdbmi	r3, {r0, r2, r6, r9, ip, lr}^
    3438:	31204e4f 			; <UNDEFINED> instruction: 0x31204e4f
    343c:	00363130 	eorseq	r3, r6, r0, lsr r1
    3440:	20434352 	subcs	r4, r3, r2, asr r3
    3444:	43522828 	cmpmi	r2, #40, 16	; 0x280000
    3448:	79545f43 	ldmdbvc	r4, {r0, r1, r6, r8, r9, sl, fp, ip, lr}^
    344c:	65646570 	strbvs	r6, [r4, #-1392]!	; 0xfffffa90
    3450:	292a2066 	stmdbcs	sl!, {r1, r2, r5, r6, sp}
    3454:	5f434352 	svcpl	0x00434352
    3458:	45534142 	ldrbmi	r4, [r3, #-322]	; 0xfffffebe
    345c:	5f5f0029 	svcpl	0x005f0029
    3460:	5f544e49 	svcpl	0x00544e49
    3464:	5341454c 	movtpl	r4, #5452	; 0x154c
    3468:	5f363154 	svcpl	0x00363154
    346c:	5f58414d 	svcpl	0x0058414d
    3470:	7830205f 	ldmdavc	r0!, {r0, r1, r2, r3, r4, r6, sp}
    3474:	66666637 			; <UNDEFINED> instruction: 0x66666637
    3478:	43324900 	teqmi	r2, #0, 18
    347c:	3152535f 	cmpcc	r2, pc, asr r3
    3480:	4558545f 	ldrbmi	r5, [r8, #-1119]	; 0xfffffba1
    3484:	736f505f 	cmnvc	pc, #95	; 0x5f
    3488:	55372820 	ldrpl	r2, [r7, #-2080]!	; 0xfffff7e0
    348c:	5f5f0029 	svcpl	0x005f0029
    3490:	5f544c46 	svcpl	0x00544c46
    3494:	4f4e4544 	svcmi	0x004e4544
    3498:	4d5f4d52 	ldclmi	13, cr4, [pc, #-328]	; 3358 <_Min_Stack_Size+0x2f58>
    349c:	5f5f4e49 	svcpl	0x005f4e49
    34a0:	342e3120 	strtcc	r3, [lr], #-288	; 0xfffffee0
    34a4:	39323130 	ldmdbcc	r2!, {r4, r5, r8, ip, sp}
    34a8:	34363438 	ldrtcc	r3, [r6], #-1080	; 0xfffffbc8
    34ac:	38343233 	ldmdacc	r4!, {r0, r1, r4, r5, r9, ip, sp}
    34b0:	65313731 	ldrvs	r3, [r1, #-1841]!	; 0xfffff8cf
    34b4:	4635342d 	ldrtmi	r3, [r5], -sp, lsr #8
    34b8:	50414d00 	subpl	r4, r1, r0, lsl #26
    34bc:	55003252 	strpl	r3, [r0, #-594]	; 0xfffffdae
    34c0:	5f544e49 	svcpl	0x00544e49
    34c4:	54534146 	ldrbpl	r4, [r3], #-326	; 0xfffffeba
    34c8:	4d5f3631 	ldclmi	6, cr3, [pc, #-196]	; 340c <_Min_Stack_Size+0x300c>
    34cc:	28205841 	stmdacs	r0!, {r0, r6, fp, ip, lr}
    34d0:	49555f5f 	ldmdbmi	r5, {r0, r1, r2, r3, r4, r6, r8, r9, sl, fp, ip, lr}^
    34d4:	465f544e 	ldrbmi	r5, [pc], -lr, asr #8
    34d8:	31545341 	cmpcc	r4, r1, asr #6
    34dc:	414d5f36 	cmpmi	sp, r6, lsr pc
    34e0:	295f5f58 	ldmdbcs	pc, {r3, r4, r6, r8, r9, sl, fp, ip, lr}^	; <UNPREDICTABLE>
    34e4:	725f5f00 	subsvc	r5, pc, #0, 30
    34e8:	72757465 	rsbsvc	r7, r5, #1694498816	; 0x65000000
    34ec:	745f736e 	ldrbvc	r7, [pc], #-878	; 34f4 <_Min_Stack_Size+0x30f4>
    34f0:	65636977 	strbvs	r6, [r3, #-2423]!	; 0xfffff689
    34f4:	615f5f20 	cmpvs	pc, r0, lsr #30
    34f8:	69727474 	ldmdbvs	r2!, {r2, r4, r5, r6, sl, ip, sp, lr}^
    34fc:	65747562 	ldrbvs	r7, [r4, #-1378]!	; 0xfffffa9e
    3500:	28285f5f 	stmdacs	r8!, {r0, r1, r2, r3, r4, r6, r8, r9, sl, fp, ip, lr}
    3504:	65725f5f 	ldrbvs	r5, [r2, #-3935]!	; 0xfffff0a1
    3508:	6e727574 	mrcvs	5, 3, r7, cr2, cr4, {3}
    350c:	77745f73 			; <UNDEFINED> instruction: 0x77745f73
    3510:	5f656369 	svcpl	0x00656369
    3514:	0029295f 	eoreq	r2, r9, pc, asr r9
    3518:	65725f5f 	ldrbvs	r5, [r2, #-3935]!	; 0xfffff0a1
    351c:	72697571 	rsbvc	r7, r9, #473956352	; 0x1c400000
    3520:	735f7365 	cmpvc	pc, #-1811939327	; 0x94000001
    3524:	65726168 	ldrbvs	r6, [r2, #-360]!	; 0xfffffe98
    3528:	2e2e2864 	cdpcs	8, 2, cr2, cr14, cr4, {3}
    352c:	5f20292e 	svcpl	0x0020292e
    3530:	636f6c5f 	cmnvs	pc, #24320	; 0x5f00
    3534:	6e615f6b 	cdpvs	15, 6, cr5, cr1, cr11, {3}
    3538:	61746f6e 	cmnvs	r4, lr, ror #30
    353c:	73286574 			; <UNDEFINED> instruction: 0x73286574
    3540:	65726168 	ldrbvs	r6, [r2, #-360]!	; 0xfffffe98
    3544:	6f6c5f64 	svcvs	0x006c5f64
    3548:	5f736b63 	svcpl	0x00736b63
    354c:	75716572 	ldrbvc	r6, [r1, #-1394]!	; 0xfffffa8e
    3550:	64657269 	strbtvs	r7, [r5], #-617	; 0xfffffd97
    3554:	565f5f28 	ldrbpl	r5, [pc], -r8, lsr #30
    3558:	52415f41 	subpl	r5, r1, #260	; 0x104
    355c:	5f5f5347 	svcpl	0x005f5347
    3560:	5f002929 	svcpl	0x00002929
    3564:	5f444e45 	svcpl	0x00444e45
    3568:	5f445453 	svcpl	0x00445453
    356c:	45002043 	strmi	r2, [r0, #-67]	; 0xffffffbd
    3570:	31495458 	cmpcc	r9, r8, asr r4
    3574:	31415030 	cmpcc	r1, r0, lsr r0
    3578:	45282030 	strmi	r2, [r8, #-48]!	; 0xffffffd0
    357c:	5f495458 	svcpl	0x00495458
    3580:	4f495047 	svcmi	0x00495047
    3584:	70614d5f 	rsbvc	r4, r1, pc, asr sp
    3588:	5f676e69 	svcpl	0x00676e69
    358c:	457b2974 	ldrbmi	r2, [fp, #-2420]!	; 0xfffff68c
    3590:	31495458 	cmpcc	r9, r8, asr r4
    3594:	47202c30 			; <UNDEFINED> instruction: 0x47202c30
    3598:	414f4950 	cmpmi	pc, r0, asr r9	; <UNPREDICTABLE>
    359c:	5047202c 	subpl	r2, r7, ip, lsr #32
    35a0:	505f4f49 	subspl	r4, pc, r9, asr #30
    35a4:	315f4e49 	cmpcc	pc, r9, asr #28
    35a8:	45202c30 	strmi	r2, [r0, #-3120]!	; 0xfffff3d0
    35ac:	31495458 	cmpcc	r9, r8, asr r4
    35b0:	52495f30 	subpl	r5, r9, #48, 30	; 0xc0
    35b4:	47007d51 	smlsdmi	r0, r1, sp, r7
    35b8:	5f4f4950 	svcpl	0x004f4950
    35bc:	65707954 	ldrbvs	r7, [r0, #-2388]!	; 0xfffff6ac
    35c0:	00666564 	rsbeq	r6, r6, r4, ror #10
    35c4:	544e4955 	strbpl	r4, [lr], #-2389	; 0xfffff6ab
    35c8:	41454c5f 	cmpmi	r5, pc, asr ip
    35cc:	36315453 			; <UNDEFINED> instruction: 0x36315453
    35d0:	58414d5f 	stmdapl	r1, {r0, r1, r2, r3, r4, r6, r8, sl, fp, lr}^
    35d4:	5f5f2820 	svcpl	0x005f2820
    35d8:	544e4955 	strbpl	r4, [lr], #-2389	; 0xfffff6ab
    35dc:	41454c5f 	cmpmi	r5, pc, asr ip
    35e0:	36315453 			; <UNDEFINED> instruction: 0x36315453
    35e4:	58414d5f 	stmdapl	r1, {r0, r1, r2, r3, r4, r6, r8, sl, fp, lr}^
    35e8:	00295f5f 	eoreq	r5, r9, pc, asr pc
    35ec:	49555f5f 	ldmdbmi	r5, {r0, r1, r2, r3, r4, r6, r8, r9, sl, fp, ip, lr}^
    35f0:	3233544e 	eorscc	r5, r3, #1308622848	; 0x4e000000
    35f4:	6328435f 			; <UNDEFINED> instruction: 0x6328435f
    35f8:	20632029 	rsbcs	r2, r3, r9, lsr #32
    35fc:	55202323 	strpl	r2, [r0, #-803]!	; 0xfffffcdd
    3600:	3249004c 	subcc	r0, r9, #76	; 0x4c
    3604:	52535f43 	subspl	r5, r3, #268	; 0x10c
    3608:	45505f32 	ldrbmi	r5, [r0, #-3890]	; 0xfffff0ce
    360c:	6f505f43 	svcvs	0x00505f43
    3610:	38282073 	stmdacc	r8!, {r0, r1, r4, r5, r6, sp}
    3614:	5f002955 	svcpl	0x00002955
    3618:	4341555f 	movtmi	r5, #5471	; 0x155f
    361c:	5f4d5543 	svcpl	0x004d5543
    3620:	5f4e494d 	svcpl	0x004e494d
    3624:	2e30205f 	mrccs	0, 1, r2, cr0, cr15, {2}
    3628:	004b5530 	subeq	r5, fp, r0, lsr r5
    362c:	4545525f 	strbmi	r5, [r5, #-607]	; 0xfffffda1
    3630:	4d5f544e 	cfldrdmi	mvd5, [pc, #-312]	; 3500 <_Min_Stack_Size+0x3100>
    3634:	574f5442 	strbpl	r5, [pc, -r2, asr #8]
    3638:	54535f43 	ldrbpl	r5, [r3], #-3907	; 0xfffff0bd
    363c:	28455441 	stmdacs	r5, {r0, r6, sl, ip, lr}^
    3640:	29727470 	ldmdbcs	r2!, {r4, r5, r6, sl, ip, sp, lr}^
    3644:	70282820 	eorvc	r2, r8, r0, lsr #16
    3648:	2d297274 	sfmcs	f7, 4, [r9, #-464]!	; 0xfffffe30
    364c:	696d5f3e 	stmdbvs	sp!, {r1, r2, r3, r4, r5, r8, r9, sl, fp, ip, lr}^
    3650:	3e2d6373 	mcrcc	3, 1, r6, cr13, cr3, {3}
    3654:	74626d5f 	strbtvc	r6, [r2], #-3423	; 0xfffff2a1
    3658:	5f63776f 	svcpl	0x0063776f
    365c:	74617473 	strbtvc	r7, [r1], #-1139	; 0xfffffb8d
    3660:	5f002965 	svcpl	0x00002965
    3664:	6c6c754e 	cfstr64vs	mvdx7, [ip], #-312	; 0xfffffec8
    3668:	736e755f 	cmnvc	lr, #398458880	; 0x17c00000
    366c:	69636570 	stmdbvs	r3!, {r4, r5, r6, r8, sl, sp, lr}^
    3670:	64656966 	strbtvs	r6, [r5], #-2406	; 0xfffff69a
    3674:	5f5f0020 	svcpl	0x005f0020
    3678:	5f544c46 	svcpl	0x00544c46
    367c:	49535045 	ldmdbmi	r3, {r0, r2, r6, ip, lr}^
    3680:	5f4e4f4c 	svcpl	0x004e4f4c
    3684:	2e31205f 	mrccs	0, 1, r2, cr1, cr15, {2}
    3688:	30323931 	eorscc	r3, r2, r1, lsr r9
    368c:	39383239 	ldmdbcc	r8!, {r0, r3, r4, r5, r9, ip, sp}
    3690:	37303535 			; <UNDEFINED> instruction: 0x37303535
    3694:	35323138 	ldrcc	r3, [r2, #-312]!	; 0xfffffec8
    3698:	46372d65 	ldrtmi	r2, [r7], -r5, ror #26
    369c:	585f5f00 	ldmdapl	pc, {r8, r9, sl, fp, ip, lr}^	; <UNPREDICTABLE>
    36a0:	49525453 	ldmdbmi	r2, {r0, r1, r4, r6, sl, ip, lr}^
    36a4:	7828474e 	stmdavc	r8!, {r1, r2, r3, r6, r8, r9, sl, lr}
    36a8:	5f5f2029 	svcpl	0x005f2029
    36ac:	49525453 	ldmdbmi	r2, {r0, r1, r4, r6, sl, ip, lr}^
    36b0:	7828474e 	stmdavc	r8!, {r1, r2, r3, r6, r8, r9, sl, lr}
    36b4:	5f5f0029 	svcpl	0x005f0029
    36b8:	72747461 	rsbsvc	r7, r4, #1627389952	; 0x61000000
    36bc:	74756269 	ldrbtvc	r6, [r5], #-617	; 0xfffffd97
    36c0:	75705f65 	ldrbvc	r5, [r0, #-3941]!	; 0xfffff09b
    36c4:	5f5f6572 	svcpl	0x005f6572
    36c8:	5f5f0020 	svcpl	0x005f0020
    36cc:	5f434347 	svcpl	0x00434347
    36d0:	4d4f5441 	cfstrdmi	mvd5, [pc, #-260]	; 35d4 <_Min_Stack_Size+0x31d4>
    36d4:	535f4349 	cmppl	pc, #603979777	; 0x24000001
    36d8:	54524f48 	ldrbpl	r4, [r2], #-3912	; 0xfffff0b8
    36dc:	434f4c5f 	movtmi	r4, #64607	; 0xfc5f
    36e0:	52465f4b 	subpl	r5, r6, #300	; 0x12c
    36e4:	32204545 	eorcc	r4, r0, #289406976	; 0x11400000
    36e8:	49564e00 	ldmdbmi	r6, {r9, sl, fp, lr}^
    36ec:	52495f43 	subpl	r5, r9, #268	; 0x10c
    36f0:	5f303451 	svcpl	0x00303451
    36f4:	49545845 	ldmdbmi	r4, {r0, r2, r6, fp, ip, lr}^
    36f8:	315f3031 	cmpcc	pc, r1, lsr r0	; <UNPREDICTABLE>
    36fc:	6e455f35 	mcrvs	15, 2, r5, cr5, cr5, {1}
    3700:	656c6261 	strbvs	r6, [ip, #-609]!	; 0xfffffd9f
    3704:	564e2820 	strbpl	r2, [lr], -r0, lsr #16
    3708:	495f4349 	ldmdbmi	pc, {r0, r3, r6, r8, r9, lr}^	; <UNPREDICTABLE>
    370c:	31524553 	cmpcc	r2, r3, asr r5
    3710:	203d7c20 	eorscs	r7, sp, r0, lsr #24
    3714:	383c3c31 	ldmdacc	ip!, {r0, r4, r5, sl, fp, ip, sp}
    3718:	5f5f0029 	svcpl	0x005f0029
    371c:	44525450 	ldrbmi	r5, [r2], #-1104	; 0xfffffbb0
    3720:	5f464649 	svcpl	0x00464649
    3724:	45505954 	ldrbmi	r5, [r0, #-2388]	; 0xfffff6ac
    3728:	69205f5f 	stmdbvs	r0!, {r0, r1, r2, r3, r4, r6, r8, r9, sl, fp, ip, lr}
    372c:	4e00746e 	cdpmi	4, 0, cr7, cr0, cr14, {3}
    3730:	5f434956 	svcpl	0x00434956
    3734:	31515249 	cmpcc	r1, r9, asr #4
    3738:	58455f30 	stmdapl	r5, {r4, r5, r8, r9, sl, fp, ip, lr}^
    373c:	5f344954 	svcpl	0x00344954
    3740:	62616e45 	rsbvs	r6, r1, #1104	; 0x450
    3744:	2820656c 	stmdacs	r0!, {r2, r3, r5, r6, r8, sl, sp, lr}
    3748:	4349564e 	movtmi	r5, #38478	; 0x964e
    374c:	4553495f 	ldrbmi	r4, [r3, #-2399]	; 0xfffff6a1
    3750:	7c203052 	stcvc	0, cr3, [r0], #-328	; 0xfffffeb8
    3754:	3c31203d 	ldccc	0, cr2, [r1], #-244	; 0xffffff0c
    3758:	2930313c 	ldmdbcs	r0!, {r2, r3, r4, r5, r8, ip, sp}
    375c:	415f5f00 	cmpmi	pc, r0, lsl #30
    3760:	415f4d52 	cmpmi	pc, r2, asr sp	; <UNPREDICTABLE>
    3764:	5f484352 	svcpl	0x00484352
    3768:	5f415349 	svcpl	0x00415349
    376c:	4d554854 	ldclmi	8, cr4, [r5, #-336]	; 0xfffffeb0
    3770:	32490042 	subcc	r0, r9, #66	; 0x42
    3774:	414f5f43 	cmpmi	pc, r3, asr #30
    3778:	415f3252 	cmpmi	pc, r2, asr r2	; <UNPREDICTABLE>
    377c:	5f324444 	svcpl	0x00324444
    3780:	20736f50 	rsbscs	r6, r3, r0, asr pc
    3784:	29553128 	ldmdbcs	r5, {r3, r5, r8, ip, sp}^
    3788:	43324900 	teqmi	r2, #0, 18
    378c:	3152435f 	cmpcc	r2, pc, asr r3
    3790:	474e455f 	smlsldmi	r4, lr, pc, r5	; <UNPREDICTABLE>
    3794:	734d5f43 	movtvc	r5, #57155	; 0xdf43
    3798:	3028206b 	eorcc	r2, r8, fp, rrx
    379c:	4c553178 	ldfmie	f3, [r5], {120}	; 0x78
    37a0:	203c3c20 	eorscs	r3, ip, r0, lsr #24
    37a4:	5f433249 	svcpl	0x00433249
    37a8:	5f315243 	svcpl	0x00315243
    37ac:	43474e45 	movtmi	r4, #32325	; 0x7e45
    37b0:	736f505f 	cmnvc	pc, #95	; 0x5f
    37b4:	5f5f0029 	svcpl	0x005f0029
    37b8:	43554e47 	cmpmi	r5, #1136	; 0x470
    37bc:	454b494c 	strbmi	r4, [fp, #-2380]	; 0xfffff6b4
    37c0:	4955425f 	ldmdbmi	r5, {r0, r1, r2, r3, r4, r6, r9, lr}^
    37c4:	4e49544c 	cdpmi	4, 4, cr5, cr9, cr12, {2}
    37c8:	5241565f 	subpl	r5, r1, #99614720	; 0x5f00000
    37cc:	53475241 	movtpl	r5, #29249	; 0x7241
    37d0:	5f003120 	svcpl	0x00003120
    37d4:	5046565f 	subpl	r5, r6, pc, asr r6
    37d8:	5f50465f 	svcpl	0x0050465f
    37dc:	0031205f 	eorseq	r2, r1, pc, asr r0
    37e0:	49555f5f 	ldmdbmi	r5, {r0, r1, r2, r3, r4, r6, r8, r9, sl, fp, ip, lr}^
    37e4:	5f38544e 	svcpl	0x0038544e
    37e8:	45505954 	ldrbmi	r5, [r0, #-2388]	; 0xfffff6ac
    37ec:	75205f5f 	strvc	r5, [r0, #-3935]!	; 0xfffff0a1
    37f0:	6769736e 	strbvs	r7, [r9, -lr, ror #6]!
    37f4:	2064656e 	rsbcs	r6, r4, lr, ror #10
    37f8:	72616863 	rsbvc	r6, r1, #6488064	; 0x630000
    37fc:	544e4900 	strbpl	r4, [lr], #-2304	; 0xfffff700
    3800:	41454c5f 	cmpmi	r5, pc, asr ip
    3804:	32335453 	eorscc	r5, r3, #1392508928	; 0x53000000
    3808:	4e494d5f 	mcrmi	13, 2, r4, cr9, cr15, {2}
    380c:	5f2d2820 	svcpl	0x002d2820
    3810:	544e495f 	strbpl	r4, [lr], #-2399	; 0xfffff6a1
    3814:	41454c5f 	cmpmi	r5, pc, asr ip
    3818:	32335453 	eorscc	r5, r3, #1392508928	; 0x53000000
    381c:	58414d5f 	stmdapl	r1, {r0, r1, r2, r3, r4, r6, r8, sl, fp, lr}^
    3820:	2d205f5f 	stccs	15, cr5, [r0, #-380]!	; 0xfffffe84
    3824:	00293120 	eoreq	r3, r9, r0, lsr #2
    3828:	5f433249 	svcpl	0x00433249
    382c:	5f325243 	svcpl	0x00325243
    3830:	45414d44 	strbmi	r4, [r1, #-3396]	; 0xfffff2bc
    3834:	6f505f4e 	svcvs	0x00505f4e
    3838:	31282073 			; <UNDEFINED> instruction: 0x31282073
    383c:	00295531 	eoreq	r5, r9, r1, lsr r5
    3840:	5f433249 	svcpl	0x00433249
    3844:	5f315243 	svcpl	0x00315243
    3848:	52454c41 	subpl	r4, r5, #16640	; 0x4100
    384c:	32492054 	subcc	r2, r9, #84	; 0x54
    3850:	52435f43 	subpl	r5, r3, #268	; 0x10c
    3854:	4c415f31 	mcrrmi	15, 3, r5, r1, cr1
    3858:	5f545245 	svcpl	0x00545245
    385c:	006b734d 	rsbeq	r7, fp, sp, asr #6
    3860:	4c41434d 	mcrrmi	3, 4, r4, r1, cr13
    3864:	5458455f 	ldrbpl	r4, [r8], #-1375	; 0xfffffaa1
    3868:	50475f49 	subpl	r5, r7, r9, asr #30
    386c:	445f4f49 	ldrbmi	r4, [pc], #-3913	; 3874 <_Min_Stack_Size+0x3474>
    3870:	696e4965 	stmdbvs	lr!, {r0, r2, r5, r6, r8, fp, lr}^
    3874:	49550074 	ldmdbmi	r5, {r2, r4, r5, r6}^
    3878:	3233544e 	eorscc	r5, r3, #1308622848	; 0x4e000000
    387c:	58414d5f 	stmdapl	r1, {r0, r1, r2, r3, r4, r6, r8, sl, fp, lr}^
    3880:	5f5f2820 	svcpl	0x005f2820
    3884:	544e4955 	strbpl	r4, [lr], #-2389	; 0xfffff6ab
    3888:	4d5f3233 	lfmmi	f3, 2, [pc, #-204]	; 37c4 <_Min_Stack_Size+0x33c4>
    388c:	5f5f5841 	svcpl	0x005f5841
    3890:	5f5f0029 	svcpl	0x005f0029
    3894:	43415355 	movtmi	r5, #4949	; 0x1355
    3898:	5f4d5543 	svcpl	0x004d5543
    389c:	54494246 	strbpl	r4, [r9], #-582	; 0xfffffdba
    38a0:	38205f5f 	stmdacc	r0!, {r0, r1, r2, r3, r4, r6, r8, r9, sl, fp, ip, lr}
    38a4:	54584500 	ldrbpl	r4, [r8], #-1280	; 0xfffffb00
    38a8:	41503049 	cmpmi	r0, r9, asr #32
    38ac:	45282030 	strmi	r2, [r8, #-48]!	; 0xffffffd0
    38b0:	5f495458 	svcpl	0x00495458
    38b4:	4f495047 	svcmi	0x00495047
    38b8:	70614d5f 	rsbvc	r4, r1, pc, asr sp
    38bc:	5f676e69 	svcpl	0x00676e69
    38c0:	457b2974 	ldrbmi	r2, [fp, #-2420]!	; 0xfffff68c
    38c4:	30495458 	subcc	r5, r9, r8, asr r4
    38c8:	5047202c 	subpl	r2, r7, ip, lsr #32
    38cc:	2c414f49 	mcrrcs	15, 4, r4, r1, cr9
    38d0:	49504720 	ldmdbmi	r0, {r5, r8, r9, sl, lr}^
    38d4:	49505f4f 	ldmdbmi	r0, {r0, r1, r2, r3, r6, r8, r9, sl, fp, ip, lr}^
    38d8:	2c305f4e 	ldccs	15, cr5, [r0], #-312	; 0xfffffec8
    38dc:	54584520 	ldrbpl	r4, [r8], #-1312	; 0xfffffae0
    38e0:	495f3049 	ldmdbmi	pc, {r0, r3, r6, ip, sp}^	; <UNPREDICTABLE>
    38e4:	007d5152 	rsbseq	r5, sp, r2, asr r1
    38e8:	43475f5f 	movtmi	r5, #32607	; 0x7f5f
    38ec:	54415f43 	strbpl	r5, [r1], #-3907	; 0xfffff0bd
    38f0:	43494d4f 	movtmi	r4, #40271	; 0x9d4f
    38f4:	5345545f 	movtpl	r5, #21599	; 0x545f
    38f8:	4e415f54 	mcrmi	15, 2, r5, cr1, cr4, {2}
    38fc:	45535f44 	ldrbmi	r5, [r3, #-3908]	; 0xfffff0bc
    3900:	52545f54 	subspl	r5, r4, #84, 30	; 0x150
    3904:	41564555 	cmpmi	r6, r5, asr r5
    3908:	0031204c 	eorseq	r2, r1, ip, asr #32
    390c:	494d5f5f 	stmdbmi	sp, {r0, r1, r2, r3, r4, r6, r8, r9, sl, fp, ip, lr}^
    3910:	565f4353 			; <UNDEFINED> instruction: 0x565f4353
    3914:	42495349 	submi	r5, r9, #603979777	; 0x24000001
    3918:	3120454c 			; <UNDEFINED> instruction: 0x3120454c
    391c:	69725400 	ldmdbvs	r2!, {sl, ip, lr}^
    3920:	72656767 	rsbvc	r6, r5, #27000832	; 0x19c0000
    3924:	7361435f 	cmnvc	r1, #2080374785	; 0x7c000001
    3928:	32490065 	subcc	r0, r9, #101	; 0x65
    392c:	52435f43 	subpl	r5, r3, #268	; 0x10c
    3930:	45505f31 	ldrbmi	r5, [r0, #-3889]	; 0xfffff0cf
    3934:	6b734d5f 	blvs	1cd6eb8 <_Min_Stack_Size+0x1cd6ab8>
    3938:	78302820 	ldmdavc	r0!, {r5, fp, sp}
    393c:	204c5531 	subcs	r5, ip, r1, lsr r5
    3940:	49203c3c 	stmdbmi	r0!, {r2, r3, r4, r5, sl, fp, ip, sp}
    3944:	435f4332 	cmpmi	pc, #-939524096	; 0xc8000000
    3948:	505f3152 	subspl	r3, pc, r2, asr r1	; <UNPREDICTABLE>
    394c:	6f505f45 	svcvs	0x00505f45
    3950:	5f002973 	svcpl	0x00002973
    3954:	544c465f 	strbpl	r4, [ip], #-1631	; 0xfffff9a1
    3958:	485f3233 	ldmdami	pc, {r0, r1, r4, r5, r9, ip, sp}^	; <UNPREDICTABLE>
    395c:	515f5341 	cmppl	pc, r1, asr #6
    3960:	54454955 	strbpl	r4, [r5], #-2389	; 0xfffff6ab
    3964:	4e414e5f 	mcrmi	14, 2, r4, cr1, cr15, {2}
    3968:	31205f5f 			; <UNDEFINED> instruction: 0x31205f5f
    396c:	415f5f00 	cmpmi	pc, r0, lsl #30
    3970:	465f4d52 			; <UNDEFINED> instruction: 0x465f4d52
    3974:	55544145 	ldrbpl	r4, [r4, #-325]	; 0xfffffebb
    3978:	4d5f4552 	cfldr64mi	mvdx4, [pc, #-328]	; 3838 <_Min_Stack_Size+0x3438>
    397c:	554d5441 	strbpl	r5, [sp, #-1089]	; 0xfffffbbf
    3980:	4e495f4c 	cdpmi	15, 4, cr5, cr9, cr12, {2}
    3984:	5f003854 	svcpl	0x00003854
    3988:	53424f5f 	movtpl	r4, #12127	; 0x2f5f
    398c:	54454c4f 	strbpl	r4, [r5], #-3151	; 0xfffff3b1
    3990:	414d5f45 	cmpmi	sp, r5, asr #30
    3994:	5f204854 	svcpl	0x00204854
    3998:	53424f5f 	movtpl	r4, #12127	; 0x2f5f
    399c:	54454c4f 	strbpl	r4, [r5], #-3151	; 0xfffff3b1
    39a0:	414d5f45 	cmpmi	sp, r5, asr #30
    39a4:	445f4854 	ldrbmi	r4, [pc], #-2132	; 39ac <_Min_Stack_Size+0x35ac>
    39a8:	55414645 	strbpl	r4, [r1, #-1605]	; 0xfffff9bb
    39ac:	5f00544c 	svcpl	0x0000544c
    39b0:	455a4953 	ldrbmi	r4, [sl, #-2387]	; 0xfffff6ad
    39b4:	00205f54 	eoreq	r5, r0, r4, asr pc
    39b8:	444c5f5f 	strbmi	r5, [ip], #-3935	; 0xfffff0a1
    39bc:	485f4c42 	ldmdami	pc, {r1, r6, sl, fp, lr}^	; <UNPREDICTABLE>
    39c0:	495f5341 	ldmdbmi	pc, {r0, r6, r8, r9, ip, lr}^	; <UNPREDICTABLE>
    39c4:	4e49464e 	cdpmi	6, 4, cr4, cr9, cr14, {2}
    39c8:	5f595449 	svcpl	0x00595449
    39cc:	0031205f 	eorseq	r2, r1, pc, asr r0
    39d0:	49545845 	ldmdbmi	r4, {r0, r2, r6, fp, ip, lr}^
    39d4:	41503331 	cmpmi	r0, r1, lsr r3
    39d8:	28203331 	stmdacs	r0!, {r0, r4, r5, r8, r9, ip, sp}
    39dc:	49545845 	ldmdbmi	r4, {r0, r2, r6, fp, ip, lr}^
    39e0:	4950475f 	ldmdbmi	r0, {r0, r1, r2, r3, r4, r6, r8, r9, sl, lr}^
    39e4:	614d5f4f 	cmpvs	sp, pc, asr #30
    39e8:	676e6970 			; <UNDEFINED> instruction: 0x676e6970
    39ec:	7b29745f 	blvc	a60b70 <_Min_Stack_Size+0xa60770>
    39f0:	49545845 	ldmdbmi	r4, {r0, r2, r6, fp, ip, lr}^
    39f4:	202c3331 	eorcs	r3, ip, r1, lsr r3
    39f8:	4f495047 	svcmi	0x00495047
    39fc:	47202c41 	strmi	r2, [r0, -r1, asr #24]!
    3a00:	5f4f4950 	svcpl	0x004f4950
    3a04:	5f4e4950 	svcpl	0x004e4950
    3a08:	202c3331 	eorcs	r3, ip, r1, lsr r3
    3a0c:	49545845 	ldmdbmi	r4, {r0, r2, r6, fp, ip, lr}^
    3a10:	495f3331 	ldmdbmi	pc, {r0, r4, r5, r8, r9, ip, sp}^	; <UNPREDICTABLE>
    3a14:	007d5152 	rsbseq	r5, sp, r2, asr r1
    3a18:	544e4955 	strbpl	r4, [lr], #-2389	; 0xfffff6ab
    3a1c:	5341465f 	movtpl	r4, #5727	; 0x165f
    3a20:	5f343654 	svcpl	0x00343654
    3a24:	2058414d 	subscs	r4, r8, sp, asr #2
    3a28:	555f5f28 	ldrbpl	r5, [pc, #-3880]	; 2b08 <_Min_Stack_Size+0x2708>
    3a2c:	5f544e49 	svcpl	0x00544e49
    3a30:	54534146 	ldrbpl	r4, [r3], #-326	; 0xfffffeba
    3a34:	4d5f3436 	cfldrdmi	mvd3, [pc, #-216]	; 3964 <_Min_Stack_Size+0x3564>
    3a38:	5f5f5841 	svcpl	0x005f5841
    3a3c:	5f5f0029 	svcpl	0x005f0029
    3a40:	465f4154 			; <UNDEFINED> instruction: 0x465f4154
    3a44:	5f544942 	svcpl	0x00544942
    3a48:	3336205f 	teqcc	r6, #95	; 0x5f
    3a4c:	54584500 	ldrbpl	r4, [r8], #-1280	; 0xfffffb00
    3a50:	30203049 	eorcc	r3, r0, r9, asr #32
    3a54:	49564e00 	ldmdbmi	r6, {r9, sl, fp, lr}^
    3a58:	52495f43 	subpl	r5, r9, #268	; 0x10c
    3a5c:	5f333251 	svcpl	0x00333251
    3a60:	49545845 	ldmdbmi	r4, {r0, r2, r6, fp, ip, lr}^
    3a64:	5f395f35 	svcpl	0x00395f35
    3a68:	62616e45 	rsbvs	r6, r1, #1104	; 0x450
    3a6c:	2820656c 	stmdacs	r0!, {r2, r3, r5, r6, r8, sl, sp, lr}
    3a70:	4349564e 	movtmi	r5, #38478	; 0x964e
    3a74:	4553495f 	ldrbmi	r4, [r3, #-2399]	; 0xfffff6a1
    3a78:	7c203052 	stcvc	0, cr3, [r0], #-328	; 0xfffffeb8
    3a7c:	3c31203d 	ldccc	0, cr2, [r1], #-244	; 0xffffff0c
    3a80:	2933323c 	ldmdbcs	r3!, {r2, r3, r4, r5, r9, ip, sp}
    3a84:	54584500 	ldrbpl	r4, [r8], #-1280	; 0xfffffb00
    3a88:	495f3349 	ldmdbmi	pc, {r0, r3, r6, r8, r9, ip, sp}^	; <UNPREDICTABLE>
    3a8c:	39205152 	stmdbcc	r0!, {r1, r4, r6, r8, ip, lr}
    3a90:	43324900 	teqmi	r2, #0, 18
    3a94:	3152435f 	cmpcc	r2, pc, asr r3
    3a98:	424d535f 	submi	r5, sp, #2080374785	; 0x7c000001
    3a9c:	505f5355 	subspl	r5, pc, r5, asr r3	; <UNPREDICTABLE>
    3aa0:	2820736f 	stmdacs	r0!, {r0, r1, r2, r3, r5, r6, r8, r9, ip, sp, lr}
    3aa4:	00295531 	eoreq	r5, r9, r1, lsr r5
    3aa8:	4c465f5f 	mcrrmi	15, 5, r5, r6, cr15
    3aac:	58323354 	ldmdapl	r2!, {r2, r4, r6, r8, r9, ip, sp}
    3ab0:	58414d5f 	stmdapl	r1, {r0, r1, r2, r3, r4, r6, r8, sl, fp, lr}^
    3ab4:	5f30315f 	svcpl	0x0030315f
    3ab8:	5f505845 	svcpl	0x00505845
    3abc:	3033205f 	eorscc	r2, r3, pc, asr r0
    3ac0:	5f5f0038 	svcpl	0x005f0038
    3ac4:	5f4d5241 	svcpl	0x004d5241
    3ac8:	48435241 	stmdami	r3, {r0, r6, r9, ip, lr}^
    3acc:	5458455f 	ldrbpl	r4, [r8], #-1375	; 0xfffffaa1
    3ad0:	4944495f 	stmdbmi	r4, {r0, r1, r2, r3, r4, r6, r8, fp, lr}^
    3ad4:	205f5f56 	subscs	r5, pc, r6, asr pc	; <UNPREDICTABLE>
    3ad8:	5f5f0031 	svcpl	0x005f0031
    3adc:	5f4d5241 	svcpl	0x004d5241
    3ae0:	20534350 	subscs	r4, r3, r0, asr r3
    3ae4:	58450031 	stmdapl	r5, {r0, r4, r5}^
    3ae8:	50324954 	eorspl	r4, r2, r4, asr r9
    3aec:	28203241 	stmdacs	r0!, {r0, r6, r9, ip, sp}
    3af0:	49545845 	ldmdbmi	r4, {r0, r2, r6, fp, ip, lr}^
    3af4:	4950475f 	ldmdbmi	r0, {r0, r1, r2, r3, r4, r6, r8, r9, sl, lr}^
    3af8:	614d5f4f 	cmpvs	sp, pc, asr #30
    3afc:	676e6970 			; <UNDEFINED> instruction: 0x676e6970
    3b00:	7b29745f 	blvc	a60c84 <_Min_Stack_Size+0xa60884>
    3b04:	49545845 	ldmdbmi	r4, {r0, r2, r6, fp, ip, lr}^
    3b08:	47202c32 			; <UNDEFINED> instruction: 0x47202c32
    3b0c:	414f4950 	cmpmi	pc, r0, asr r9	; <UNPREDICTABLE>
    3b10:	5047202c 	subpl	r2, r7, ip, lsr #32
    3b14:	505f4f49 	subspl	r4, pc, r9, asr #30
    3b18:	325f4e49 	subscc	r4, pc, #1168	; 0x490
    3b1c:	5845202c 	stmdapl	r5, {r2, r3, r5, sp}^
    3b20:	5f324954 	svcpl	0x00324954
    3b24:	7d515249 	lfmvc	f5, 2, [r1, #-292]	; 0xfffffedc
    3b28:	49564e00 	ldmdbmi	r6, {r9, sl, fp, lr}^
    3b2c:	52495f43 	subpl	r5, r9, #268	; 0x10c
    3b30:	455f3751 	ldrbmi	r3, [pc, #-1873]	; 33e7 <_Min_Stack_Size+0x2fe7>
    3b34:	31495458 	cmpcc	r9, r8, asr r4
    3b38:	7369445f 	cmnvc	r9, #1593835520	; 0x5f000000
    3b3c:	656c6261 	strbvs	r6, [ip, #-609]!	; 0xfffffd9f
    3b40:	564e2820 	strbpl	r2, [lr], -r0, lsr #16
    3b44:	495f4349 	ldmdbmi	pc, {r0, r3, r6, r8, r9, lr}^	; <UNPREDICTABLE>
    3b48:	30524543 	subscc	r4, r2, r3, asr #10
    3b4c:	203d7c20 	eorscs	r7, sp, r0, lsr #24
    3b50:	373c3c31 			; <UNDEFINED> instruction: 0x373c3c31
    3b54:	5f5f0029 	svcpl	0x005f0029
    3b58:	65727570 	ldrbvs	r7, [r2, #-1392]!	; 0xfffffa90
    3b5c:	615f5f20 	cmpvs	pc, r0, lsr #30
    3b60:	69727474 	ldmdbvs	r2!, {r2, r4, r5, r6, sl, ip, sp, lr}^
    3b64:	65747562 	ldrbvs	r7, [r4, #-1378]!	; 0xfffffa9e
    3b68:	28285f5f 	stmdacs	r8!, {r0, r1, r2, r3, r4, r6, r8, r9, sl, fp, ip, lr}
    3b6c:	75705f5f 	ldrbvc	r5, [r0, #-3935]!	; 0xfffff0a1
    3b70:	5f5f6572 	svcpl	0x005f6572
    3b74:	45002929 	strmi	r2, [r0, #-2345]	; 0xfffff6d7
    3b78:	31495458 	cmpcc	r9, r8, asr r4
    3b7c:	52495f31 	subpl	r5, r9, #49, 30	; 0xc4
    3b80:	30342051 	eorscc	r2, r4, r1, asr r0
    3b84:	49504700 	ldmdbmi	r0, {r8, r9, sl, lr}^
    3b88:	4f4d5f4f 	svcmi	0x004d5f4f
    3b8c:	415f4544 	cmpmi	pc, r4, asr #10
    3b90:	6f6c616e 	svcvs	0x006c616e
    3b94:	78302067 	ldmdavc	r0!, {r0, r1, r2, r5, r6, sp}
    3b98:	30303030 	eorscc	r3, r0, r0, lsr r0
    3b9c:	30303030 	eorscc	r3, r0, r0, lsr r0
    3ba0:	5f5f0055 	svcpl	0x005f0055
    3ba4:	5f474953 	svcpl	0x00474953
    3ba8:	4d4f5441 	cfstrdmi	mvd5, [pc, #-260]	; 3aac <_Min_Stack_Size+0x36ac>
    3bac:	4d5f4349 	ldclmi	3, cr4, [pc, #-292]	; 3a90 <_Min_Stack_Size+0x3690>
    3bb0:	5f5f4e49 	svcpl	0x005f4e49
    3bb4:	5f2d2820 	svcpl	0x002d2820
    3bb8:	4749535f 	smlsldmi	r5, r9, pc, r3	; <UNPREDICTABLE>
    3bbc:	4f54415f 	svcmi	0x0054415f
    3bc0:	5f43494d 	svcpl	0x0043494d
    3bc4:	5f58414d 	svcpl	0x0058414d
    3bc8:	202d205f 	eorcs	r2, sp, pc, asr r0
    3bcc:	45002931 	strmi	r2, [r0, #-2353]	; 0xfffff6cf
    3bd0:	35495458 	strbcc	r5, [r9, #-1112]	; 0xfffffba8
    3bd4:	5f003520 	svcpl	0x00003520
    3bd8:	4e454552 	mcrmi	5, 2, r4, cr5, cr2, {2}
    3bdc:	48435f54 	stmdami	r3, {r2, r4, r6, r8, r9, sl, fp, ip, lr}^
    3be0:	5f4b4345 	svcpl	0x004b4345
    3be4:	54435341 	strbpl	r5, [r3], #-833	; 0xfffffcbf
    3be8:	5f454d49 	svcpl	0x00454d49
    3bec:	28465542 	stmdacs	r6, {r1, r6, r8, sl, ip, lr}^
    3bf0:	29726176 	ldmdbcs	r2!, {r1, r2, r4, r5, r6, r8, sp, lr}^
    3bf4:	45525f20 	ldrbmi	r5, [r2, #-3872]	; 0xfffff0e0
    3bf8:	5f544e45 	svcpl	0x00544e45
    3bfc:	43454843 	movtmi	r4, #22595	; 0x5843
    3c00:	6176284b 	cmnvs	r6, fp, asr #16
    3c04:	5f202c72 	svcpl	0x00202c72
    3c08:	74637361 	strbtvc	r7, [r3], #-865	; 0xfffffc9f
    3c0c:	5f656d69 	svcpl	0x00656d69
    3c10:	2c667562 	cfstr64cs	mvdx7, [r6], #-392	; 0xfffffe78
    3c14:	61686320 	cmnvs	r8, r0, lsr #6
    3c18:	2c2a2072 	stccs	0, cr2, [sl], #-456	; 0xfffffe38
    3c1c:	45525f20 	ldrbmi	r5, [r2, #-3872]	; 0xfffff0e0
    3c20:	5f544e45 	svcpl	0x00544e45
    3c24:	54435341 	strbpl	r5, [r3], #-833	; 0xfffffcbf
    3c28:	5f454d49 	svcpl	0x00454d49
    3c2c:	455a4953 	ldrbmi	r4, [sl, #-2387]	; 0xfffff6ad
    3c30:	656d202c 	strbvs	r2, [sp, #-44]!	; 0xffffffd4
    3c34:	7465736d 	strbtvc	r7, [r5], #-877	; 0xfffffc93
    3c38:	61762828 	cmnvs	r6, r8, lsr #16
    3c3c:	3e2d2972 			; <UNDEFINED> instruction: 0x3e2d2972
    3c40:	6373615f 	cmnvs	r3, #-1073741801	; 0xc0000017
    3c44:	656d6974 	strbvs	r6, [sp, #-2420]!	; 0xfffff68c
    3c48:	6675625f 			; <UNDEFINED> instruction: 0x6675625f
    3c4c:	2c30202c 	ldccs	0, cr2, [r0], #-176	; 0xffffff50
    3c50:	45525f20 	ldrbmi	r5, [r2, #-3872]	; 0xfffff0e0
    3c54:	5f544e45 	svcpl	0x00544e45
    3c58:	54435341 	strbpl	r5, [r3], #-833	; 0xfffffcbf
    3c5c:	5f454d49 	svcpl	0x00454d49
    3c60:	455a4953 	ldrbmi	r4, [sl, #-2387]	; 0xfffff6ad
    3c64:	45002929 	strmi	r2, [r0, #-2345]	; 0xfffff6d7
    3c68:	31495458 	cmpcc	r9, r8, asr r4
    3c6c:	31415035 	cmpcc	r1, r5, lsr r0
    3c70:	45282035 	strmi	r2, [r8, #-53]!	; 0xffffffcb
    3c74:	5f495458 	svcpl	0x00495458
    3c78:	4f495047 	svcmi	0x00495047
    3c7c:	70614d5f 	rsbvc	r4, r1, pc, asr sp
    3c80:	5f676e69 	svcpl	0x00676e69
    3c84:	457b2974 	ldrbmi	r2, [fp, #-2420]!	; 0xfffff68c
    3c88:	31495458 	cmpcc	r9, r8, asr r4
    3c8c:	47202c35 			; <UNDEFINED> instruction: 0x47202c35
    3c90:	414f4950 	cmpmi	pc, r0, asr r9	; <UNPREDICTABLE>
    3c94:	5047202c 	subpl	r2, r7, ip, lsr #32
    3c98:	505f4f49 	subspl	r4, pc, r9, asr #30
    3c9c:	315f4e49 	cmpcc	pc, r9, asr #28
    3ca0:	45202c35 	strmi	r2, [r0, #-3125]!	; 0xfffff3cb
    3ca4:	31495458 	cmpcc	r9, r8, asr r4
    3ca8:	52495f35 	subpl	r5, r9, #53, 30	; 0xd4
    3cac:	5f007d51 	svcpl	0x00007d51
    3cb0:	5f445342 	svcpl	0x00445342
    3cb4:	41484357 	cmpmi	r8, r7, asr r3
    3cb8:	5f545f52 	svcpl	0x00545f52
    3cbc:	5f5f0020 	svcpl	0x005f0020
    3cc0:	61736f6e 	cmnvs	r3, lr, ror #30
    3cc4:	6974696e 	ldmdbvs	r4!, {r1, r2, r3, r5, r6, r8, fp, sp, lr}^
    3cc8:	656d657a 	strbvs	r6, [sp, #-1402]!	; 0xfffffa86
    3ccc:	79726f6d 	ldmdbvc	r2!, {r0, r2, r3, r5, r6, r8, r9, sl, fp, sp, lr}^
    3cd0:	5f5f0020 	svcpl	0x005f0020
    3cd4:	61736f6e 	cmnvs	r3, lr, ror #30
    3cd8:	6974696e 	ldmdbvs	r4!, {r1, r2, r3, r5, r6, r8, fp, sp, lr}^
    3cdc:	6461657a 	strbtvs	r6, [r1], #-1402	; 0xfffffa86
    3ce0:	73657264 	cmnvc	r5, #100, 4	; 0x40000006
    3ce4:	45002073 	strmi	r2, [r0, #-115]	; 0xffffff8d
    3ce8:	33495458 	movtcc	r5, #37976	; 0x9458
    3cec:	20334450 	eorscs	r4, r3, r0, asr r4
    3cf0:	54584528 	ldrbpl	r4, [r8], #-1320	; 0xfffffad8
    3cf4:	50475f49 	subpl	r5, r7, r9, asr #30
    3cf8:	4d5f4f49 	ldclmi	15, cr4, [pc, #-292]	; 3bdc <_Min_Stack_Size+0x37dc>
    3cfc:	6e697061 	cdpvs	0, 6, cr7, cr9, cr1, {3}
    3d00:	29745f67 	ldmdbcs	r4!, {r0, r1, r2, r5, r6, r8, r9, sl, fp, ip, lr}^
    3d04:	5458457b 	ldrbpl	r4, [r8], #-1403	; 0xfffffa85
    3d08:	202c3349 	eorcs	r3, ip, r9, asr #6
    3d0c:	4f495047 	svcmi	0x00495047
    3d10:	47202c44 	strmi	r2, [r0, -r4, asr #24]!
    3d14:	5f4f4950 	svcpl	0x004f4950
    3d18:	5f4e4950 	svcpl	0x004e4950
    3d1c:	45202c33 	strmi	r2, [r0, #-3123]!	; 0xfffff3cd
    3d20:	33495458 	movtcc	r5, #37976	; 0x9458
    3d24:	5152495f 	cmppl	r2, pc, asr r9
    3d28:	525f007d 	subspl	r0, pc, #125	; 0x7d
    3d2c:	544e4545 	strbpl	r4, [lr], #-1349	; 0xfffffabb
    3d30:	5f504d5f 	svcpl	0x00504d5f
    3d34:	28533550 	ldmdacs	r3, {r4, r6, r8, sl, ip, sp}^
    3d38:	29727470 	ldmdbcs	r2!, {r4, r5, r6, sl, ip, sp, lr}^
    3d3c:	70282820 	eorvc	r2, r8, r0, lsr #16
    3d40:	2d297274 	sfmcs	f7, 4, [r9, #-464]!	; 0xfffffe30
    3d44:	706d5f3e 	rsbvc	r5, sp, lr, lsr pc
    3d48:	705f3e2d 	subsvc	r3, pc, sp, lsr #28
    3d4c:	00297335 	eoreq	r7, r9, r5, lsr r3
    3d50:	5f474953 	svcpl	0x00474953
    3d54:	4d4f5441 	cfstrdmi	mvd5, [pc, #-260]	; 3c58 <_Min_Stack_Size+0x3858>
    3d58:	4d5f4349 	ldclmi	3, cr4, [pc, #-292]	; 3c3c <_Min_Stack_Size+0x383c>
    3d5c:	28204e49 	stmdacs	r0!, {r0, r3, r6, r9, sl, fp, lr}
    3d60:	535f5f2d 	cmppl	pc, #45, 30	; 0xb4
    3d64:	4e494454 	mcrmi	4, 2, r4, cr9, cr4, {2}
    3d68:	58455f54 	stmdapl	r5, {r2, r4, r6, r8, r9, sl, fp, ip, lr}^
    3d6c:	4e492850 	mcrmi	8, 2, r2, cr9, cr0, {2}
    3d70:	414d5f54 	cmpmi	sp, r4, asr pc
    3d74:	2d202958 			; <UNDEFINED> instruction: 0x2d202958
    3d78:	00293120 	eoreq	r3, r9, r0, lsr #2
    3d7c:	544e4955 	strbpl	r4, [lr], #-2389	; 0xfffff6ab
    3d80:	435f3631 	cmpmi	pc, #51380224	; 0x3100000
    3d84:	20297828 	eorcs	r7, r9, r8, lsr #16
    3d88:	49555f5f 	ldmdbmi	r5, {r0, r1, r2, r3, r4, r6, r8, r9, sl, fp, ip, lr}^
    3d8c:	3631544e 	ldrtcc	r5, [r1], -lr, asr #8
    3d90:	7828435f 	stmdavc	r8!, {r0, r1, r2, r3, r4, r6, r8, r9, lr}
    3d94:	43520029 	cmpmi	r2, #41	; 0x29
    3d98:	32495f43 	subcc	r5, r9, #268	; 0x10c
    3d9c:	435f3243 	cmpmi	pc, #805306372	; 0x30000004
    3da0:	455f4b4c 	ldrbmi	r4, [pc, #-2892]	; 325c <_Min_Stack_Size+0x2e5c>
    3da4:	2029284e 	eorcs	r2, r9, lr, asr #16
    3da8:	43435228 	movtmi	r5, #12840	; 0x3228
    3dac:	50413e2d 	subpl	r3, r1, sp, lsr #28
    3db0:	4e453142 	dvfmism	f3, f5, f2
    3db4:	3d7c2052 	ldclcc	0, cr2, [ip, #-328]!	; 0xfffffeb8
    3db8:	3c203120 	stfccs	f3, [r0], #-128	; 0xffffff80
    3dbc:	3232203c 	eorscc	r2, r2, #60	; 0x3c
    3dc0:	495f0029 	ldmdbmi	pc, {r0, r3, r5}^	; <UNPREDICTABLE>
    3dc4:	3631544e 	ldrtcc	r5, [r1], -lr, asr #8
    3dc8:	445f545f 	ldrbmi	r5, [pc], #-1119	; 3dd0 <_Min_Stack_Size+0x39d0>
    3dcc:	414c4345 	cmpmi	ip, r5, asr #6
    3dd0:	20444552 	subcs	r4, r4, r2, asr r5
    3dd4:	465f5f00 	ldrbmi	r5, [pc], -r0, lsl #30
    3dd8:	3233544c 	eorscc	r5, r3, #76, 8	; 0x4c000000
    3ddc:	53495f58 	movtpl	r5, #40792	; 0x9f58
    3de0:	4345495f 	movtmi	r4, #22879	; 0x595f
    3de4:	3530365f 	ldrcc	r3, [r0, #-1631]!	; 0xfffff9a1
    3de8:	5f5f3935 	svcpl	0x005f3935
    3dec:	5f003220 	svcpl	0x00003220
    3df0:	544d505f 	strbpl	r5, [sp], #-95	; 0xffffffa1
    3df4:	67726128 	ldrbvs	r6, [r2, -r8, lsr #2]!
    3df8:	61202973 			; <UNDEFINED> instruction: 0x61202973
    3dfc:	00736772 	rsbseq	r6, r3, r2, ror r7
    3e00:	49545845 	ldmdbmi	r4, {r0, r2, r6, fp, ip, lr}^
    3e04:	36425036 			; <UNDEFINED> instruction: 0x36425036
    3e08:	58452820 	stmdapl	r5, {r5, fp, sp}^
    3e0c:	475f4954 			; <UNDEFINED> instruction: 0x475f4954
    3e10:	5f4f4950 	svcpl	0x004f4950
    3e14:	6970614d 	ldmdbvs	r0!, {r0, r2, r3, r6, r8, sp, lr}^
    3e18:	745f676e 	ldrbvc	r6, [pc], #-1902	; 3e20 <_Min_Stack_Size+0x3a20>
    3e1c:	58457b29 	stmdapl	r5, {r0, r3, r5, r8, r9, fp, ip, sp, lr}^
    3e20:	2c364954 			; <UNDEFINED> instruction: 0x2c364954
    3e24:	49504720 	ldmdbmi	r0, {r5, r8, r9, sl, lr}^
    3e28:	202c424f 	eorcs	r4, ip, pc, asr #4
    3e2c:	4f495047 	svcmi	0x00495047
    3e30:	4e49505f 	mcrmi	0, 2, r5, cr9, cr15, {2}
    3e34:	202c365f 	eorcs	r3, ip, pc, asr r6
    3e38:	49545845 	ldmdbmi	r4, {r0, r2, r6, fp, ip, lr}^
    3e3c:	52495f36 	subpl	r5, r9, #54, 30	; 0xd8
    3e40:	5f007d51 	svcpl	0x00007d51
    3e44:	4e49555f 	mcrmi	5, 2, r5, cr9, cr15, {2}
    3e48:	52545054 	subspl	r5, r4, #84	; 0x54
    3e4c:	58414d5f 	stmdapl	r1, {r0, r1, r2, r3, r4, r6, r8, sl, fp, lr}^
    3e50:	30205f5f 	eorcc	r5, r0, pc, asr pc
    3e54:	66666678 			; <UNDEFINED> instruction: 0x66666678
    3e58:	66666666 	strbtvs	r6, [r6], -r6, ror #12
    3e5c:	49005566 	stmdbmi	r0, {r1, r2, r5, r6, r8, sl, ip, lr}
    3e60:	535f4332 	cmppl	pc, #-939524096	; 0xc8000000
    3e64:	535f3152 	cmppl	pc, #-2147483628	; 0x80000014
    3e68:	4c41424d 	sfmmi	f4, 2, [r1], {77}	; 0x4d
    3e6c:	5f545245 	svcpl	0x00545245
    3e70:	20736f50 	rsbscs	r6, r3, r0, asr pc
    3e74:	55353128 	ldrpl	r3, [r5, #-296]!	; 0xfffffed8
    3e78:	5f5f0029 	svcpl	0x005f0029
    3e7c:	5f544e49 	svcpl	0x00544e49
    3e80:	5341454c 	movtpl	r4, #5452	; 0x154c
    3e84:	5f363154 	svcpl	0x00363154
    3e88:	54444957 	strbpl	r4, [r4], #-2391	; 0xfffff6a9
    3e8c:	205f5f48 	subscs	r5, pc, r8, asr #30
    3e90:	49003631 	stmdbmi	r0, {r0, r4, r5, r9, sl, ip, sp}
    3e94:	535f4332 	cmppl	pc, #-939524096	; 0xc8000000
    3e98:	4f5f3152 	svcmi	0x005f3152
    3e9c:	49205256 	stmdbmi	r0!, {r1, r2, r4, r6, r9, ip, lr}
    3ea0:	535f4332 	cmppl	pc, #-939524096	; 0xc8000000
    3ea4:	4f5f3152 	svcmi	0x005f3152
    3ea8:	4d5f5256 	lfmmi	f5, 2, [pc, #-344]	; 3d58 <_Min_Stack_Size+0x3958>
    3eac:	5f006b73 	svcpl	0x00006b73
    3eb0:	4345445f 	movtmi	r4, #21599	; 0x545f
    3eb4:	4156455f 	cmpmi	r6, pc, asr r5
    3eb8:	454d5f4c 	strbmi	r5, [sp, #-3916]	; 0xfffff0b4
    3ebc:	444f4854 	strbmi	r4, [pc], #-2132	; 3ec4 <_Min_Stack_Size+0x3ac4>
    3ec0:	32205f5f 	eorcc	r5, r0, #380	; 0x17c
    3ec4:	43324900 	teqmi	r2, #0, 18
    3ec8:	3152435f 	cmpcc	r2, pc, asr r3
    3ecc:	424d535f 	submi	r5, sp, #2080374785	; 0x7c000001
    3ed0:	45505954 	ldrbmi	r5, [r0, #-2388]	; 0xfffff6ac
    3ed4:	43324920 	teqmi	r2, #32, 18	; 0x80000
    3ed8:	3152435f 	cmpcc	r2, pc, asr r3
    3edc:	424d535f 	submi	r5, sp, #2080374785	; 0x7c000001
    3ee0:	45505954 	ldrbmi	r5, [r0, #-2388]	; 0xfffff6ac
    3ee4:	6b734d5f 	blvs	1cd7468 <_Min_Stack_Size+0x1cd7068>
    3ee8:	415f5f00 	cmpmi	pc, r0, lsl #30
    3eec:	465f4d52 			; <UNDEFINED> instruction: 0x465f4d52
    3ef0:	55544145 	ldrbpl	r4, [r4, #-325]	; 0xfffffebb
    3ef4:	465f4552 			; <UNDEFINED> instruction: 0x465f4552
    3ef8:	5f363150 	svcpl	0x00363150
    3efc:	004c4d46 	subeq	r4, ip, r6, asr #26
    3f00:	49545845 	ldmdbmi	r4, {r0, r2, r6, fp, ip, lr}^
    3f04:	45282820 	strmi	r2, [r8, #-2080]!	; 0xfffff7e0
    3f08:	5f495458 	svcpl	0x00495458
    3f0c:	65707954 	ldrbvs	r7, [r0, #-2388]!	; 0xfffff6ac
    3f10:	20666564 	rsbcs	r6, r6, r4, ror #10
    3f14:	5845292a 	stmdapl	r5, {r1, r3, r5, r8, fp, sp}^
    3f18:	425f4954 	subsmi	r4, pc, #84, 18	; 0x150000
    3f1c:	29455341 	stmdbcs	r5, {r0, r6, r8, r9, ip, lr}^
    3f20:	555f5f00 	ldrbpl	r5, [pc, #-3840]	; 3028 <_Min_Stack_Size+0x2c28>
    3f24:	495f4148 	ldmdbmi	pc, {r3, r6, r8, lr}^	; <UNPREDICTABLE>
    3f28:	5f544942 	svcpl	0x00544942
    3f2c:	0038205f 	eorseq	r2, r8, pc, asr r0
    3f30:	65725f5f 	ldrbvs	r5, [r2, #-3935]!	; 0xfffff0a1
    3f34:	69727473 	ldmdbvs	r2!, {r0, r1, r4, r5, r6, sl, ip, sp, lr}^
    3f38:	72207463 	eorvc	r7, r0, #1660944384	; 0x63000000
    3f3c:	72747365 	rsbsvc	r7, r4, #-1811939327	; 0x94000001
    3f40:	00746369 	rsbseq	r6, r4, r9, ror #6
    3f44:	49545845 	ldmdbmi	r4, {r0, r2, r6, fp, ip, lr}^
    3f48:	43503531 	cmpmi	r0, #205520896	; 0xc400000
    3f4c:	28203531 	stmdacs	r0!, {r0, r4, r5, r8, sl, ip, sp}
    3f50:	49545845 	ldmdbmi	r4, {r0, r2, r6, fp, ip, lr}^
    3f54:	4950475f 	ldmdbmi	r0, {r0, r1, r2, r3, r4, r6, r8, r9, sl, lr}^
    3f58:	614d5f4f 	cmpvs	sp, pc, asr #30
    3f5c:	676e6970 			; <UNDEFINED> instruction: 0x676e6970
    3f60:	7b29745f 	blvc	a610e4 <_Min_Stack_Size+0xa60ce4>
    3f64:	49545845 	ldmdbmi	r4, {r0, r2, r6, fp, ip, lr}^
    3f68:	202c3531 	eorcs	r3, ip, r1, lsr r5
    3f6c:	4f495047 	svcmi	0x00495047
    3f70:	47202c43 	strmi	r2, [r0, -r3, asr #24]!
    3f74:	5f4f4950 	svcpl	0x004f4950
    3f78:	5f4e4950 	svcpl	0x004e4950
    3f7c:	202c3531 	eorcs	r3, ip, r1, lsr r5
    3f80:	49545845 	ldmdbmi	r4, {r0, r2, r6, fp, ip, lr}^
    3f84:	495f3531 	ldmdbmi	pc, {r0, r4, r5, r8, sl, ip, sp}^	; <UNPREDICTABLE>
    3f88:	007d5152 	rsbseq	r5, sp, r2, asr r1
    3f8c:	53555f5f 	cmppl	r5, #380	; 0x17c
    3f90:	43415246 	movtmi	r5, #4678	; 0x1246
    3f94:	50455f54 	subpl	r5, r5, r4, asr pc
    3f98:	4f4c4953 	svcmi	0x004c4953
    3f9c:	205f5f4e 	subscs	r5, pc, lr, asr #30
    3fa0:	50317830 	eorspl	r7, r1, r0, lsr r8
    3fa4:	4855382d 	ldmdami	r5, {r0, r2, r3, r5, fp, ip, sp}^
    3fa8:	554e0052 	strbpl	r0, [lr, #-82]	; 0xffffffae
    3fac:	28204c4c 	stmdacs	r0!, {r2, r3, r6, sl, fp, lr}
    3fb0:	696f7628 	stmdbvs	pc!, {r3, r5, r9, sl, ip, sp, lr}^	; <UNPREDICTABLE>
    3fb4:	292a2064 	stmdbcs	sl!, {r2, r5, r6, sp}
    3fb8:	5f002930 	svcpl	0x00002930
    3fbc:	4e454552 	mcrmi	5, 2, r4, cr5, cr2, {2}
    3fc0:	49535f54 	ldmdbmi	r3, {r2, r4, r6, r8, r9, sl, fp, ip, lr}^
    3fc4:	55465f47 	strbpl	r5, [r6, #-3911]	; 0xfffff0b9
    3fc8:	5f28434e 	svcpl	0x0028434e
    3fcc:	29727470 	ldmdbcs	r2!, {r4, r5, r6, sl, ip, sp, lr}^
    3fd0:	5f282820 	svcpl	0x00282820
    3fd4:	29727470 	ldmdbcs	r2!, {r4, r5, r6, sl, ip, sp, lr}^
    3fd8:	735f3e2d 	cmpvc	pc, #720	; 0x2d0
    3fdc:	665f6769 	ldrbvs	r6, [pc], -r9, ror #14
    3fe0:	29636e75 	stmdbcs	r3!, {r0, r2, r4, r5, r6, r9, sl, fp, sp, lr}^
    3fe4:	5f5f5f00 	svcpl	0x005f5f00
    3fe8:	5f746e69 	svcpl	0x00746e69
    3fec:	7361656c 	cmnvc	r1, #108, 10	; 0x1b000000
    3ff0:	5f323374 	svcpl	0x00323374
    3ff4:	65645f74 	strbvs	r5, [r4, #-3956]!	; 0xfffff08c
    3ff8:	656e6966 	strbvs	r6, [lr, #-2406]!	; 0xfffff69a
    3ffc:	00312064 	eorseq	r2, r1, r4, rrx
    4000:	4c4c5f5f 	mcrrmi	15, 5, r5, ip, cr15
    4004:	55434341 	strbpl	r4, [r3, #-833]	; 0xfffffcbf
    4008:	414d5f4d 	cmpmi	sp, sp, asr #30
    400c:	205f5f58 	subscs	r5, pc, r8, asr pc	; <UNPREDICTABLE>
    4010:	46375830 			; <UNDEFINED> instruction: 0x46375830
    4014:	46464646 	strbmi	r4, [r6], -r6, asr #12
    4018:	46464646 	strbmi	r4, [r6], -r6, asr #12
    401c:	46464646 	strbmi	r4, [r6], -r6, asr #12
    4020:	2d504646 	ldclcs	6, cr4, [r0, #-280]	; 0xfffffee8
    4024:	4c4c3133 	stfmie	f3, [ip], {51}	; 0x33
    4028:	3249004b 	subcc	r0, r9, #75	; 0x4b
    402c:	52435f43 	subpl	r5, r3, #268	; 0x10c
    4030:	4e455f31 	mcrmi	15, 2, r5, cr5, cr1, {1}
    4034:	5f505241 	svcpl	0x00505241
    4038:	20736f50 	rsbscs	r6, r3, r0, asr pc
    403c:	29553428 	ldmdbcs	r5, {r3, r5, sl, ip, sp}^
    4040:	6e5f5f00 	cdpvs	15, 5, cr5, cr15, cr0, {0}
    4044:	5f646565 	svcpl	0x00646565
    4048:	4c4c554e 	cfstr64mi	mvdx5, [ip], {78}	; 0x4e
    404c:	54584500 	ldrbpl	r4, [r8], #-1280	; 0xfffffb00
    4050:	43503549 	cmpmi	r0, #306184192	; 0x12400000
    4054:	45282035 	strmi	r2, [r8, #-53]!	; 0xffffffcb
    4058:	5f495458 	svcpl	0x00495458
    405c:	4f495047 	svcmi	0x00495047
    4060:	70614d5f 	rsbvc	r4, r1, pc, asr sp
    4064:	5f676e69 	svcpl	0x00676e69
    4068:	457b2974 	ldrbmi	r2, [fp, #-2420]!	; 0xfffff68c
    406c:	35495458 	strbcc	r5, [r9, #-1112]	; 0xfffffba8
    4070:	5047202c 	subpl	r2, r7, ip, lsr #32
    4074:	2c434f49 	mcrrcs	15, 4, r4, r3, cr9
    4078:	49504720 	ldmdbmi	r0, {r5, r8, r9, sl, lr}^
    407c:	49505f4f 	ldmdbmi	r0, {r0, r1, r2, r3, r6, r8, r9, sl, fp, ip, lr}^
    4080:	2c355f4e 	ldccs	15, cr5, [r5], #-312	; 0xfffffec8
    4084:	54584520 	ldrbpl	r4, [r8], #-1312	; 0xfffffae0
    4088:	495f3549 	ldmdbmi	pc, {r0, r3, r6, r8, sl, ip, sp}^	; <UNPREDICTABLE>
    408c:	007d5152 	rsbseq	r5, sp, r2, asr r1
    4090:	53555f5f 	cmppl	r5, #380	; 0x17c
    4094:	4c5f5245 	lfmmi	f5, 2, [pc], {69}	; 0x45
    4098:	4c454241 	sfmmi	f4, 2, [r5], {65}	; 0x41
    409c:	4552505f 	ldrbmi	r5, [r2, #-95]	; 0xffffffa1
    40a0:	5f584946 	svcpl	0x00584946
    40a4:	5f00205f 	svcpl	0x0000205f
    40a8:	4e49555f 	mcrmi	5, 2, r5, cr9, cr15, {2}
    40ac:	5f343654 	svcpl	0x00343654
    40b0:	5f58414d 	svcpl	0x0058414d
    40b4:	7830205f 	ldmdavc	r0!, {r0, r1, r2, r3, r4, r6, sp}
    40b8:	66666666 	strbtvs	r6, [r6], -r6, ror #12
    40bc:	66666666 	strbtvs	r6, [r6], -r6, ror #12
    40c0:	66666666 	strbtvs	r6, [r6], -r6, ror #12
    40c4:	66666666 	strbtvs	r6, [r6], -r6, ror #12
    40c8:	004c4c55 	subeq	r4, ip, r5, asr ip
    40cc:	4545525f 	strbmi	r5, [r5, #-607]	; 0xfffffda1
    40d0:	535f544e 	cmppl	pc, #1308622848	; 0x4e000000
    40d4:	4f545254 	svcmi	0x00545254
    40d8:	414c5f4b 	cmpmi	ip, fp, asr #30
    40dc:	70285453 	eorvc	r5, r8, r3, asr r4
    40e0:	20297274 	eorcs	r7, r9, r4, ror r2
    40e4:	74702828 	ldrbtvc	r2, [r0], #-2088	; 0xfffff7d8
    40e8:	3e2d2972 			; <UNDEFINED> instruction: 0x3e2d2972
    40ec:	73696d5f 	cmnvc	r9, #6080	; 0x17c0
    40f0:	5f3e2d63 	svcpl	0x003e2d63
    40f4:	74727473 	ldrbtvc	r7, [r2], #-1139	; 0xfffffb8d
    40f8:	6c5f6b6f 	mrrcvs	11, 6, r6, pc, cr15	; <UNPREDICTABLE>
    40fc:	29747361 	ldmdbcs	r4!, {r0, r5, r6, r8, r9, ip, sp, lr}^
    4100:	54584500 	ldrbpl	r4, [r8], #-1280	; 0xfffffb00
    4104:	50353149 	eorspl	r3, r5, r9, asr #2
    4108:	20353142 	eorscs	r3, r5, r2, asr #2
    410c:	54584528 	ldrbpl	r4, [r8], #-1320	; 0xfffffad8
    4110:	50475f49 	subpl	r5, r7, r9, asr #30
    4114:	4d5f4f49 	ldclmi	15, cr4, [pc, #-292]	; 3ff8 <_Min_Stack_Size+0x3bf8>
    4118:	6e697061 	cdpvs	0, 6, cr7, cr9, cr1, {3}
    411c:	29745f67 	ldmdbcs	r4!, {r0, r1, r2, r5, r6, r8, r9, sl, fp, ip, lr}^
    4120:	5458457b 	ldrbpl	r4, [r8], #-1403	; 0xfffffa85
    4124:	2c353149 	ldfcss	f3, [r5], #-292	; 0xfffffedc
    4128:	49504720 	ldmdbmi	r0, {r5, r8, r9, sl, lr}^
    412c:	202c424f 	eorcs	r4, ip, pc, asr #4
    4130:	4f495047 	svcmi	0x00495047
    4134:	4e49505f 	mcrmi	0, 2, r5, cr9, cr15, {2}
    4138:	2c35315f 	ldfcss	f3, [r5], #-380	; 0xfffffe84
    413c:	54584520 	ldrbpl	r4, [r8], #-1312	; 0xfffffae0
    4140:	5f353149 	svcpl	0x00353149
    4144:	7d515249 	lfmvc	f5, 2, [r1, #-292]	; 0xfffffedc
    4148:	555f5f00 	ldrbpl	r5, [pc, #-3840]	; 3250 <_Min_Stack_Size+0x2e50>
    414c:	33544e49 	cmpcc	r4, #1168	; 0x490
    4150:	414d5f32 	cmpmi	sp, r2, lsr pc
    4154:	205f5f58 	subscs	r5, pc, r8, asr pc	; <UNPREDICTABLE>
    4158:	66667830 			; <UNDEFINED> instruction: 0x66667830
    415c:	66666666 	strbtvs	r6, [r6], -r6, ror #12
    4160:	4c556666 	mrrcmi	6, 6, r6, r5, cr6
    4164:	544e4900 	strbpl	r4, [lr], #-2304	; 0xfffff700
    4168:	435f3436 	cmpmi	pc, #905969664	; 0x36000000
    416c:	20297828 	eorcs	r7, r9, r8, lsr #16
    4170:	4e495f5f 	mcrmi	15, 2, r5, cr9, cr15, {2}
    4174:	5f343654 	svcpl	0x00343654
    4178:	29782843 	ldmdbcs	r8!, {r0, r1, r6, fp, sp}^
    417c:	54415f00 	strbpl	r5, [r1], #-3840	; 0xfffff100
    4180:	454c4946 	strbmi	r4, [ip, #-2374]	; 0xfffff6ba
    4184:	554f535f 	strbpl	r5, [pc, #-863]	; 3e2d <_Min_Stack_Size+0x3a2d>
    4188:	00454352 	subeq	r4, r5, r2, asr r3
    418c:	38544e49 	ldmdacc	r4, {r0, r3, r6, r9, sl, fp, lr}^
    4190:	4e494d5f 	mcrmi	13, 2, r4, cr9, cr15, {2}
    4194:	5f2d2820 	svcpl	0x002d2820
    4198:	544e495f 	strbpl	r4, [lr], #-2399	; 0xfffff6a1
    419c:	414d5f38 	cmpmi	sp, r8, lsr pc
    41a0:	205f5f58 	subscs	r5, pc, r8, asr pc	; <UNPREDICTABLE>
    41a4:	2931202d 	ldmdbcs	r1!, {r0, r2, r3, r5, sp}
    41a8:	535f5f00 	cmppl	pc, #0, 30
    41ac:	5f434454 	svcpl	0x00434454
    41b0:	53524556 	cmppl	r2, #360710144	; 0x15800000
    41b4:	5f4e4f49 	svcpl	0x004e4f49
    41b8:	3032205f 	eorscc	r2, r2, pc, asr r0
    41bc:	32313131 	eorscc	r3, r1, #1073741836	; 0x4000000c
    41c0:	5845004c 	stmdapl	r5, {r2, r3, r6}^
    41c4:	495f4954 	ldmdbmi	pc, {r2, r4, r6, r8, fp, lr}^	; <UNPREDICTABLE>
    41c8:	455f5152 	ldrbmi	r5, [pc, #-338]	; 407e <_Min_Stack_Size+0x3c7e>
    41cc:	6c62616e 	stfvse	f6, [r2], #-440	; 0xfffffe48
    41d0:	00302065 	eorseq	r2, r0, r5, rrx
    41d4:	72745f5f 	rsbsvc	r5, r4, #380	; 0x17c
    41d8:	636f6c79 	cmnvs	pc, #30976	; 0x7900
    41dc:	735f736b 	cmpvc	pc, #-1409286143	; 0xac000001
    41e0:	65726168 	ldrbvs	r6, [r2, #-360]!	; 0xfffffe98
    41e4:	2e2e2864 	cdpcs	8, 2, cr2, cr14, cr4, {3}
    41e8:	5f20292e 	svcpl	0x0020292e
    41ec:	636f6c5f 	cmnvs	pc, #24320	; 0x5f00
    41f0:	6e615f6b 	cdpvs	15, 6, cr5, cr1, cr11, {3}
    41f4:	61746f6e 	cmnvs	r4, lr, ror #30
    41f8:	73286574 			; <UNDEFINED> instruction: 0x73286574
    41fc:	65726168 	ldrbvs	r6, [r2, #-360]!	; 0xfffffe98
    4200:	72745f64 	rsbsvc	r5, r4, #100, 30	; 0x190
    4204:	636f6c79 	cmnvs	pc, #30976	; 0x7900
    4208:	75665f6b 	strbvc	r5, [r6, #-3947]!	; 0xfffff095
    420c:	6974636e 	ldmdbvs	r4!, {r1, r2, r3, r5, r6, r8, r9, sp, lr}^
    4210:	5f286e6f 	svcpl	0x00286e6f
    4214:	5f41565f 	svcpl	0x0041565f
    4218:	53475241 	movtpl	r5, #29249	; 0x7241
    421c:	29295f5f 	stmdbcs	r9!, {r0, r1, r2, r3, r4, r6, r8, r9, sl, fp, ip, lr}
    4220:	495f5f00 	ldmdbmi	pc, {r8, r9, sl, fp, ip, lr}^	; <UNPREDICTABLE>
    4224:	4c5f544e 	cfldrdmi	mvd5, [pc], {78}	; 0x4e
    4228:	54534145 	ldrbpl	r4, [r3], #-325	; 0xfffffebb
    422c:	414d5f38 	cmpmi	sp, r8, lsr pc
    4230:	205f5f58 	subscs	r5, pc, r8, asr pc	; <UNPREDICTABLE>
    4234:	66377830 			; <UNDEFINED> instruction: 0x66377830
    4238:	475f5f00 	ldrbmi	r5, [pc, -r0, lsl #30]
    423c:	415f4343 	cmpmi	pc, r3, asr #6
    4240:	494d4f54 	stmdbmi	sp, {r2, r4, r6, r8, r9, sl, fp, lr}^
    4244:	4f505f43 	svcmi	0x00505f43
    4248:	45544e49 	ldrbmi	r4, [r4, #-3657]	; 0xfffff1b7
    424c:	4f4c5f52 	svcmi	0x004c5f52
    4250:	465f4b43 	ldrbmi	r4, [pc], -r3, asr #22
    4254:	20454552 	subcs	r4, r5, r2, asr r5
    4258:	5f5f0032 	svcpl	0x005f0032
    425c:	5f4d5241 	svcpl	0x004d5241
    4260:	54414546 	strbpl	r4, [r1], #-1350	; 0xfffffaba
    4264:	5f455255 	svcpl	0x00455255
    4268:	54494251 	strbpl	r4, [r9], #-593	; 0xfffffdaf
    426c:	5f003120 	svcpl	0x00003120
    4270:	4d52415f 	ldfmie	f4, [r2, #-380]	; 0xfffffe84
    4274:	4145465f 	cmpmi	r5, pc, asr r6
    4278:	45525554 	ldrbmi	r5, [r2, #-1364]	; 0xfffffaac
    427c:	5a4c435f 	bpl	1315000 <_Min_Stack_Size+0x1314c00>
    4280:	5f003120 	svcpl	0x00003120
    4284:	4f54415f 	svcmi	0x0054415f
    4288:	5f43494d 	svcpl	0x0043494d
    428c:	55514341 	ldrbpl	r4, [r1, #-833]	; 0xfffffcbf
    4290:	20455249 	subcs	r5, r5, r9, asr #4
    4294:	5f5f0032 	svcpl	0x005f0032
    4298:	5f4d5241 	svcpl	0x004d5241
    429c:	54414546 	strbpl	r4, [r1], #-1350	; 0xfffffaba
    42a0:	5f455255 	svcpl	0x00455255
    42a4:	504d4f43 	subpl	r4, sp, r3, asr #30
    42a8:	0058454c 	subseq	r4, r8, ip, asr #10
    42ac:	6f6c5f5f 	svcvs	0x006c5f5f
    42b0:	5f736b63 	svcpl	0x00736b63
    42b4:	72616873 	rsbvc	r6, r1, #7536640	; 0x730000
    42b8:	2e286465 	cdpcs	4, 2, cr6, cr8, cr5, {3}
    42bc:	20292e2e 	eorcs	r2, r9, lr, lsr #28
    42c0:	6f6c5f5f 	svcvs	0x006c5f5f
    42c4:	615f6b63 	cmpvs	pc, r3, ror #22
    42c8:	746f6e6e 	strbtvc	r6, [pc], #-3694	; 42d0 <_Min_Stack_Size+0x3ed0>
    42cc:	28657461 	stmdacs	r5!, {r0, r5, r6, sl, ip, sp, lr}^
    42d0:	72616873 	rsbvc	r6, r1, #7536640	; 0x730000
    42d4:	6c5f6465 	cfldrdvs	mvd6, [pc], {101}	; 0x65
    42d8:	5f6b636f 	svcpl	0x006b636f
    42dc:	636e7566 	cmnvs	lr, #427819008	; 0x19800000
    42e0:	6e6f6974 			; <UNDEFINED> instruction: 0x6e6f6974
    42e4:	565f5f28 	ldrbpl	r5, [pc], -r8, lsr #30
    42e8:	52415f41 	subpl	r5, r1, #260	; 0x104
    42ec:	5f5f5347 	svcpl	0x005f5347
    42f0:	4e002929 	vmlami.f16	s4, s0, s19	; <UNPREDICTABLE>
    42f4:	5f434956 	svcpl	0x00434956
    42f8:	52455349 	subpl	r5, r5, #603979777	; 0x24000001
    42fc:	282a2030 	stmdacs	sl!, {r4, r5, sp}
    4300:	616c6f76 	smcvs	50934	; 0xc6f6
    4304:	656c6974 	strbvs	r6, [ip, #-2420]!	; 0xfffff68c
    4308:	6e697520 	cdpvs	5, 6, cr7, cr9, cr0, {1}
    430c:	5f323374 	svcpl	0x00323374
    4310:	292a2074 	stmdbcs	sl!, {r2, r4, r5, r6, sp}
    4314:	49564e28 	ldmdbmi	r6, {r3, r5, r9, sl, fp, lr}^
    4318:	41425f43 	cmpmi	r2, r3, asr #30
    431c:	2b204553 	blcs	815870 <_Min_Stack_Size+0x815470>
    4320:	30783020 	rsbscc	r3, r8, r0, lsr #32
    4324:	5f5f0029 	svcpl	0x005f0029
    4328:	31544e49 	cmpcc	r4, r9, asr #28
    432c:	68222036 	stmdavs	r2!, {r1, r2, r4, r5, sp}
    4330:	6e750022 	cdpvs	0, 7, cr0, cr5, cr2, {1}
    4334:	6e676973 			; <UNDEFINED> instruction: 0x6e676973
    4338:	73206465 			; <UNDEFINED> instruction: 0x73206465
    433c:	656e6769 	strbvs	r6, [lr, #-1897]!	; 0xfffff897
    4340:	50470064 	subpl	r0, r7, r4, rrx
    4344:	20444f49 	subcs	r4, r4, r9, asr #30
    4348:	50472828 	subpl	r2, r7, r8, lsr #16
    434c:	545f4f49 	ldrbpl	r4, [pc], #-3913	; 4354 <_Min_Stack_Size+0x3f54>
    4350:	64657079 	strbtvs	r7, [r5], #-121	; 0xffffff87
    4354:	2a206665 	bcs	81dcf0 <_Min_Stack_Size+0x81d8f0>
    4358:	49504729 	ldmdbmi	r0, {r0, r3, r5, r8, r9, sl, lr}^
    435c:	425f444f 	subsmi	r4, pc, #1325400064	; 0x4f000000
    4360:	29455341 	stmdbcs	r5, {r0, r6, r8, r9, ip, lr}^
    4364:	4e495f00 	cdpmi	15, 4, cr5, cr9, cr0, {0}
    4368:	52545054 	subspl	r5, r4, #84	; 0x54
    436c:	5f51455f 	svcpl	0x0051455f
    4370:	20544e49 	subscs	r4, r4, r9, asr #28
    4374:	415f5f00 	cmpmi	pc, r0, lsl #30
    4378:	535f4d52 	cmppl	pc, #5248	; 0x1480
    437c:	4f455a49 	svcmi	0x00455a49
    4380:	43575f46 	cmpmi	r7, #280	; 0x118
    4384:	5f524148 	svcpl	0x00524148
    4388:	00342054 	eorseq	r2, r4, r4, asr r0
    438c:	4c465f5f 	mcrrmi	15, 5, r5, r6, cr15
    4390:	58323354 	ldmdapl	r2!, {r2, r4, r6, r8, r9, ip, sp}
    4394:	58414d5f 	stmdapl	r1, {r0, r1, r2, r3, r4, r6, r8, sl, fp, lr}^
    4398:	5058455f 	subspl	r4, r8, pc, asr r5
    439c:	31205f5f 			; <UNDEFINED> instruction: 0x31205f5f
    43a0:	00343230 	eorseq	r3, r4, r0, lsr r2
    43a4:	4f495047 	svcmi	0x00495047
    43a8:	4e49505f 	mcrmi	0, 2, r5, cr9, cr15, {2}
    43ac:	2820375f 	stmdacs	r0!, {r0, r1, r2, r3, r4, r6, r8, r9, sl, ip, sp}
    43b0:	6e697528 	cdpvs	5, 6, cr7, cr9, cr8, {1}
    43b4:	5f363174 	svcpl	0x00363174
    43b8:	78302974 	ldmdavc	r0!, {r2, r4, r5, r6, r8, fp, sp}
    43bc:	30383030 	eorscc	r3, r8, r0, lsr r0
    43c0:	58450029 	stmdapl	r5, {r0, r3, r5}^
    43c4:	50334954 	eorspl	r4, r3, r4, asr r9
    43c8:	28203342 	stmdacs	r0!, {r1, r6, r8, r9, ip, sp}
    43cc:	49545845 	ldmdbmi	r4, {r0, r2, r6, fp, ip, lr}^
    43d0:	4950475f 	ldmdbmi	r0, {r0, r1, r2, r3, r4, r6, r8, r9, sl, lr}^
    43d4:	614d5f4f 	cmpvs	sp, pc, asr #30
    43d8:	676e6970 			; <UNDEFINED> instruction: 0x676e6970
    43dc:	7b29745f 	blvc	a61560 <_Min_Stack_Size+0xa61160>
    43e0:	49545845 	ldmdbmi	r4, {r0, r2, r6, fp, ip, lr}^
    43e4:	47202c33 			; <UNDEFINED> instruction: 0x47202c33
    43e8:	424f4950 	submi	r4, pc, #80, 18	; 0x140000
    43ec:	5047202c 	subpl	r2, r7, ip, lsr #32
    43f0:	505f4f49 	subspl	r4, pc, r9, asr #30
    43f4:	335f4e49 	cmpcc	pc, #1168	; 0x490
    43f8:	5845202c 	stmdapl	r5, {r2, r3, r5, sp}^
    43fc:	5f334954 	svcpl	0x00334954
    4400:	7d515249 	lfmvc	f5, 2, [r1, #-292]	; 0xfffffedc
    4404:	555f5f00 	ldrbpl	r5, [pc, #-3840]	; 350c <_Min_Stack_Size+0x310c>
    4408:	5f544e49 	svcpl	0x00544e49
    440c:	5341454c 	movtpl	r4, #5452	; 0x154c
    4410:	5f323354 	svcpl	0x00323354
    4414:	5f58414d 	svcpl	0x0058414d
    4418:	7830205f 	ldmdavc	r0!, {r0, r1, r2, r3, r4, r6, sp}
    441c:	66666666 	strbtvs	r6, [r6], -r6, ror #12
    4420:	66666666 	strbtvs	r6, [r6], -r6, ror #12
    4424:	5f004c55 	svcpl	0x00004c55
    4428:	4c42445f 	cfstrdmi	mvd4, [r2], {95}	; 0x5f
    442c:	5350455f 	cmppl	r0, #398458880	; 0x17c00000
    4430:	4e4f4c49 	cdpmi	12, 4, cr4, cr15, cr9, {2}
    4434:	28205f5f 	stmdacs	r0!, {r0, r1, r2, r3, r4, r6, r8, r9, sl, fp, ip, lr}
    4438:	756f6428 	strbvc	r6, [pc, #-1064]!	; 4018 <_Min_Stack_Size+0x3c18>
    443c:	29656c62 	stmdbcs	r5!, {r1, r5, r6, sl, fp, sp, lr}^
    4440:	32322e32 	eorscc	r2, r2, #800	; 0x320
    4444:	36343430 			; <UNDEFINED> instruction: 0x36343430
    4448:	32393430 	eorscc	r3, r9, #48, 8	; 0x30000000
    444c:	31333035 	teqcc	r3, r5, lsr r0
    4450:	2d653133 	stfcse	f3, [r5, #-204]!	; 0xffffff34
    4454:	294c3631 	stmdbcs	ip, {r0, r4, r5, r9, sl, ip, sp}^
    4458:	4c5f5f00 	mrrcmi	15, 0, r5, pc, cr0	; <UNPREDICTABLE>
    445c:	43415246 	movtmi	r5, #4678	; 0x1246
    4460:	494d5f54 	stmdbmi	sp, {r2, r4, r6, r8, r9, sl, fp, ip, lr}^
    4464:	205f5f4e 	subscs	r5, pc, lr, asr #30
    4468:	2e302d28 	cdpcs	13, 3, cr2, cr0, cr8, {1}
    446c:	2d524c35 	ldclcs	12, cr4, [r2, #-212]	; 0xffffff2c
    4470:	4c352e30 	ldcmi	14, cr2, [r5], #-192	; 0xffffff40
    4474:	5f002952 	svcpl	0x00002952
    4478:	4f54415f 	svcmi	0x0054415f
    447c:	5f43494d 	svcpl	0x0043494d
    4480:	534e4f43 	movtpl	r4, #61251	; 0xef43
    4484:	20454d55 	subcs	r4, r5, r5, asr sp
    4488:	5f5f0031 	svcpl	0x005f0031
    448c:	5f544e49 	svcpl	0x00544e49
    4490:	5341454c 	movtpl	r4, #5452	; 0x154c
    4494:	5f343654 	svcpl	0x00343654
    4498:	54444957 	strbpl	r4, [r4], #-2391	; 0xfffff6a9
    449c:	205f5f48 	subscs	r5, pc, r8, asr #30
    44a0:	5f003436 	svcpl	0x00003436
    44a4:	544c465f 	strbpl	r4, [ip], #-1631	; 0xfffff9a1
    44a8:	5341485f 	movtpl	r4, #6239	; 0x185f
    44ac:	464e495f 			; <UNDEFINED> instruction: 0x464e495f
    44b0:	54494e49 	strbpl	r4, [r9], #-3657	; 0xfffff1b7
    44b4:	205f5f59 	subscs	r5, pc, r9, asr pc	; <UNPREDICTABLE>
    44b8:	5f5f0031 	svcpl	0x005f0031
    44bc:	55434341 	strbpl	r4, [r3, #-833]	; 0xfffffcbf
    44c0:	414d5f4d 	cmpmi	sp, sp, asr #30
    44c4:	205f5f58 	subscs	r5, pc, r8, asr pc	; <UNPREDICTABLE>
    44c8:	46375830 			; <UNDEFINED> instruction: 0x46375830
    44cc:	46464646 	strbmi	r4, [r6], -r6, asr #12
    44d0:	2d504646 	ldclcs	6, cr4, [r0, #-280]	; 0xfffffee8
    44d4:	004b3531 	subeq	r3, fp, r1, lsr r5
    44d8:	5f433249 	svcpl	0x00433249
    44dc:	5f315253 	svcpl	0x00315253
    44e0:	504f5453 	subpl	r5, pc, r3, asr r4	; <UNPREDICTABLE>
    44e4:	734d5f46 	movtvc	r5, #57158	; 0xdf46
    44e8:	3028206b 	eorcc	r2, r8, fp, rrx
    44ec:	4c553178 	ldfmie	f3, [r5], {120}	; 0x78
    44f0:	203c3c20 	eorscs	r3, ip, r0, lsr #24
    44f4:	5f433249 	svcpl	0x00433249
    44f8:	5f315253 	svcpl	0x00315253
    44fc:	504f5453 	subpl	r5, pc, r3, asr r4	; <UNPREDICTABLE>
    4500:	6f505f46 	svcvs	0x00505f46
    4504:	5f002973 	svcpl	0x00002973
    4508:	544e495f 	strbpl	r4, [lr], #-2399	; 0xfffff6a1
    450c:	414d5f38 	cmpmi	sp, r8, lsr pc
    4510:	205f5f58 	subscs	r5, pc, r8, asr pc	; <UNPREDICTABLE>
    4514:	66377830 			; <UNDEFINED> instruction: 0x66377830
    4518:	54584500 	ldrbpl	r4, [r8], #-1280	; 0xfffffb00
    451c:	50333149 	eorspl	r3, r3, r9, asr #2
    4520:	20333143 	eorscs	r3, r3, r3, asr #2
    4524:	54584528 	ldrbpl	r4, [r8], #-1320	; 0xfffffad8
    4528:	50475f49 	subpl	r5, r7, r9, asr #30
    452c:	4d5f4f49 	ldclmi	15, cr4, [pc, #-292]	; 4410 <_Min_Stack_Size+0x4010>
    4530:	6e697061 	cdpvs	0, 6, cr7, cr9, cr1, {3}
    4534:	29745f67 	ldmdbcs	r4!, {r0, r1, r2, r5, r6, r8, r9, sl, fp, ip, lr}^
    4538:	5458457b 	ldrbpl	r4, [r8], #-1403	; 0xfffffa85
    453c:	2c333149 	ldfcss	f3, [r3], #-292	; 0xfffffedc
    4540:	49504720 	ldmdbmi	r0, {r5, r8, r9, sl, lr}^
    4544:	202c434f 	eorcs	r4, ip, pc, asr #6
    4548:	4f495047 	svcmi	0x00495047
    454c:	4e49505f 	mcrmi	0, 2, r5, cr9, cr15, {2}
    4550:	2c33315f 	ldfcss	f3, [r3], #-380	; 0xfffffe84
    4554:	54584520 	ldrbpl	r4, [r8], #-1312	; 0xfffffae0
    4558:	5f333149 	svcpl	0x00333149
    455c:	7d515249 	lfmvc	f5, 2, [r1, #-292]	; 0xfffffedc
    4560:	43324900 	teqmi	r2, #0, 18
    4564:	52414f5f 	subpl	r4, r1, #380	; 0x17c
    4568:	4e455f32 	mcrmi	15, 2, r5, cr5, cr2, {1}
    456c:	4c415544 	cfstr64mi	mvdx5, [r1], {68}	; 0x44
    4570:	736f505f 	cmnvc	pc, #95	; 0x5f
    4574:	55302820 	ldrpl	r2, [r0, #-2080]!	; 0xfffff7e0
    4578:	564e0029 	strbpl	r0, [lr], -r9, lsr #32
    457c:	495f4349 	ldmdbmi	pc, {r0, r3, r6, r8, r9, lr}^	; <UNPREDICTABLE>
    4580:	5f375152 	svcpl	0x00375152
    4584:	49545845 	ldmdbmi	r4, {r0, r2, r6, fp, ip, lr}^
    4588:	6e455f31 	mcrvs	15, 2, r5, cr5, cr1, {1}
    458c:	656c6261 	strbvs	r6, [ip, #-609]!	; 0xfffffd9f
    4590:	564e2820 	strbpl	r2, [lr], -r0, lsr #16
    4594:	495f4349 	ldmdbmi	pc, {r0, r3, r6, r8, r9, lr}^	; <UNPREDICTABLE>
    4598:	30524553 	subscc	r4, r2, r3, asr r5
    459c:	203d7c20 	eorscs	r7, sp, r0, lsr #24
    45a0:	373c3c31 			; <UNDEFINED> instruction: 0x373c3c31
    45a4:	58450029 	stmdapl	r5, {r0, r3, r5}^
    45a8:	50374954 	eorspl	r4, r7, r4, asr r9
    45ac:	28203743 	stmdacs	r0!, {r0, r1, r6, r8, r9, sl, ip, sp}
    45b0:	49545845 	ldmdbmi	r4, {r0, r2, r6, fp, ip, lr}^
    45b4:	4950475f 	ldmdbmi	r0, {r0, r1, r2, r3, r4, r6, r8, r9, sl, lr}^
    45b8:	614d5f4f 	cmpvs	sp, pc, asr #30
    45bc:	676e6970 			; <UNDEFINED> instruction: 0x676e6970
    45c0:	7b29745f 	blvc	a61744 <_Min_Stack_Size+0xa61344>
    45c4:	49545845 	ldmdbmi	r4, {r0, r2, r6, fp, ip, lr}^
    45c8:	47202c37 			; <UNDEFINED> instruction: 0x47202c37
    45cc:	434f4950 	movtmi	r4, #63824	; 0xf950
    45d0:	5047202c 	subpl	r2, r7, ip, lsr #32
    45d4:	505f4f49 	subspl	r4, pc, r9, asr #30
    45d8:	375f4e49 	ldrbcc	r4, [pc, -r9, asr #28]
    45dc:	5845202c 	stmdapl	r5, {r2, r3, r5, sp}^
    45e0:	5f374954 	svcpl	0x00374954
    45e4:	7d515249 	lfmvc	f5, 2, [r1, #-292]	; 0xfffffedc
    45e8:	475f5f00 	ldrbmi	r5, [pc, -r0, lsl #30]
    45ec:	485f4343 	ldmdami	pc, {r0, r1, r6, r8, r9, lr}^	; <UNPREDICTABLE>
    45f0:	5f455641 	svcpl	0x00455641
    45f4:	52415744 	subpl	r5, r1, #68, 14	; 0x1100000
    45f8:	435f3246 	cmpmi	pc, #1610612740	; 0x60000004
    45fc:	415f4946 	cmpmi	pc, r6, asr #18
    4600:	31204d53 			; <UNDEFINED> instruction: 0x31204d53
    4604:	5f5f5f00 	svcpl	0x005f5f00
    4608:	38746e69 	ldmdacc	r4!, {r0, r3, r5, r6, r9, sl, fp, sp, lr}^
    460c:	645f745f 	ldrbvs	r7, [pc], #-1119	; 4614 <_Min_Stack_Size+0x4214>
    4610:	6e696665 	cdpvs	6, 6, cr6, cr9, cr5, {3}
    4614:	31206465 			; <UNDEFINED> instruction: 0x31206465
    4618:	535f5f00 	cmppl	pc, #0, 30
    461c:	43415246 	movtmi	r5, #4678	; 0x1246
    4620:	494d5f54 	stmdbmi	sp, {r2, r4, r6, r8, r9, sl, fp, ip, lr}^
    4624:	205f5f4e 	subscs	r5, pc, lr, asr #30
    4628:	2e302d28 	cdpcs	13, 3, cr2, cr0, cr8, {1}
    462c:	2d524835 	ldclcs	8, cr4, [r2, #-212]	; 0xffffff2c
    4630:	48352e30 	ldmdami	r5!, {r4, r5, r9, sl, fp, sp}
    4634:	5f002952 	svcpl	0x00002952
    4638:	5f41535f 	svcpl	0x0041535f
    463c:	54494249 	strbpl	r4, [r9], #-585	; 0xfffffdb7
    4640:	31205f5f 			; <UNDEFINED> instruction: 0x31205f5f
    4644:	5f5f0036 	svcpl	0x005f0036
    4648:	7366666f 	cmnvc	r6, #116391936	; 0x6f00000
    464c:	666f7465 	strbtvs	r7, [pc], -r5, ror #8
    4650:	70797428 	rsbsvc	r7, r9, r8, lsr #8
    4654:	69662c65 	stmdbvs	r6!, {r0, r2, r5, r6, sl, fp, sp}^
    4658:	29646c65 	stmdbcs	r4!, {r0, r2, r5, r6, sl, fp, sp, lr}^
    465c:	66666f20 	strbtvs	r6, [r6], -r0, lsr #30
    4660:	6f746573 	svcvs	0x00746573
    4664:	79742866 	ldmdbvc	r4!, {r1, r2, r5, r6, fp, sp}^
    4668:	202c6570 	eorcs	r6, ip, r0, ror r5
    466c:	6c656966 			; <UNDEFINED> instruction: 0x6c656966
    4670:	5f002964 	svcpl	0x00002964
    4674:	4343475f 	movtmi	r4, #14175	; 0x375f
    4678:	4345495f 	movtmi	r4, #22879	; 0x595f
    467c:	3935355f 	ldmdbcc	r5!, {r0, r1, r2, r3, r4, r6, r8, sl, ip, sp}
    4680:	4d4f435f 	stclmi	3, cr4, [pc, #-380]	; 450c <_Min_Stack_Size+0x410c>
    4684:	58454c50 	stmdapl	r5, {r4, r6, sl, fp, lr}^
    4688:	5f003020 	svcpl	0x00003020
    468c:	4d52415f 	ldfmie	f4, [r2, #-380]	; 0xfffffe84
    4690:	4145465f 	cmpmi	r5, pc, asr r6
    4694:	45525554 	ldrbmi	r5, [r2, #-1364]	; 0xfffffaac
    4698:	45564d5f 	ldrbmi	r4, [r6, #-3423]	; 0xfffff2a1
    469c:	6e5f5f00 	cdpvs	15, 5, cr5, cr15, cr0, {0}
    46a0:	756e6e6f 	strbvc	r6, [lr, #-3695]!	; 0xfffff191
    46a4:	615f6c6c 	cmpvs	pc, ip, ror #24
    46a8:	5f206c6c 	svcpl	0x00206c6c
    46ac:	7474615f 	ldrbtvc	r6, [r4], #-351	; 0xfffffea1
    46b0:	75626972 	strbvc	r6, [r2, #-2418]!	; 0xfffff68e
    46b4:	5f5f6574 	svcpl	0x005f6574
    46b8:	5f5f2828 	svcpl	0x005f2828
    46bc:	6e6e6f6e 	cdpvs	15, 6, cr6, cr14, cr14, {3}
    46c0:	5f6c6c75 	svcpl	0x006c6c75
    46c4:	0029295f 	eoreq	r2, r9, pc, asr r9
    46c8:	52415f5f 	subpl	r5, r1, #380	; 0x17c
    46cc:	50465f4d 	subpl	r5, r6, sp, asr #30
    46d0:	465f3631 			; <UNDEFINED> instruction: 0x465f3631
    46d4:	414d524f 	cmpmi	sp, pc, asr #4
    46d8:	45495f54 	strbmi	r5, [r9, #-3924]	; 0xfffff0ac
    46dc:	5f004545 	svcpl	0x00004545
    46e0:	4e49555f 	mcrmi	5, 2, r5, cr9, cr15, {2}
    46e4:	5f363154 	svcpl	0x00363154
    46e8:	45505954 	ldrbmi	r5, [r0, #-2388]	; 0xfffff6ac
    46ec:	73205f5f 			; <UNDEFINED> instruction: 0x73205f5f
    46f0:	74726f68 	ldrbtvc	r6, [r2], #-3944	; 0xfffff098
    46f4:	736e7520 	cmnvc	lr, #32, 10	; 0x8000000
    46f8:	656e6769 	strbvs	r6, [lr, #-1897]!	; 0xfffff897
    46fc:	6e692064 	cdpvs	0, 6, cr2, cr9, cr4, {3}
    4700:	505f0074 	subspl	r0, pc, r4, ror r0	; <UNPREDICTABLE>
    4704:	5849534f 	stmdapl	r9, {r0, r1, r2, r3, r6, r8, r9, ip, lr}^
    4708:	554f535f 	strbpl	r5, [pc, #-863]	; 43b1 <_Min_Stack_Size+0x3fb1>
    470c:	00454352 	subeq	r4, r5, r2, asr r3
    4710:	444e4152 	strbmi	r4, [lr], #-338	; 0xfffffeae
    4714:	58414d5f 	stmdapl	r1, {r0, r1, r2, r3, r4, r6, r8, sl, fp, lr}^
    4718:	525f5f20 	subspl	r5, pc, #32, 30	; 0x80
    471c:	5f444e41 	svcpl	0x00444e41
    4720:	0058414d 	subseq	r4, r8, sp, asr #2
    4724:	5f433249 	svcpl	0x00433249
    4728:	3252414f 	subscc	r4, r2, #-1073741805	; 0xc0000013
    472c:	444e455f 	strbmi	r4, [lr], #-1375	; 0xfffffaa1
    4730:	204c4155 	subcs	r4, ip, r5, asr r1
    4734:	5f433249 	svcpl	0x00433249
    4738:	3252414f 	subscc	r4, r2, #-1073741805	; 0xc0000013
    473c:	444e455f 	strbmi	r4, [lr], #-1375	; 0xfffffaa1
    4740:	5f4c4155 	svcpl	0x004c4155
    4744:	006b734d 	rsbeq	r7, fp, sp, asr #6
    4748:	69755f5f 	ldmdbvs	r5!, {r0, r1, r2, r3, r4, r6, r8, r9, sl, fp, ip, lr}^
    474c:	3233746e 	eorscc	r7, r3, #1845493760	; 0x6e000000
    4750:	5f00745f 	svcpl	0x0000745f
    4754:	464f535f 			; <UNDEFINED> instruction: 0x464f535f
    4758:	5f504654 	svcpl	0x00504654
    475c:	0031205f 	eorseq	r2, r1, pc, asr r0
    4760:	4545525f 	strbmi	r5, [r5, #-607]	; 0xfffffda1
    4764:	545f544e 	ldrbpl	r5, [pc], #-1102	; 476c <_Min_Stack_Size+0x436c>
    4768:	7470284d 	ldrbtvc	r2, [r0], #-2125	; 0xfffff7b3
    476c:	28202972 	stmdacs	r0!, {r1, r4, r5, r6, r8, fp, sp}
    4770:	72747028 	rsbsvc	r7, r4, #40	; 0x28
    4774:	5f3e2d29 	svcpl	0x003e2d29
    4778:	61636f6c 	cmnvs	r3, ip, ror #30
    477c:	6d69746c 	cfstrdvs	mvd7, [r9, #-432]!	; 0xfffffe50
    4780:	75625f65 	strbvc	r5, [r2, #-3941]!	; 0xfffff09b
    4784:	45002966 	strmi	r2, [r0, #-2406]	; 0xfffff69a
    4788:	37495458 	smlsldcc	r5, r9, r8, r4
    478c:	5f003720 	svcpl	0x00003720
    4790:	49535f54 	ldmdbmi	r3, {r2, r4, r6, r8, r9, sl, fp, ip, lr}^
    4794:	205f455a 	subscs	r4, pc, sl, asr r5	; <UNPREDICTABLE>
    4798:	465f5f00 	ldrbmi	r5, [pc], -r0, lsl #30
    479c:	455f544c 	ldrbmi	r5, [pc, #-1100]	; 4358 <_Min_Stack_Size+0x3f58>
    47a0:	5f4c4156 	svcpl	0x004c4156
    47a4:	4854454d 	ldmdami	r4, {r0, r2, r3, r6, r8, sl, lr}^
    47a8:	545f444f 	ldrbpl	r4, [pc], #-1103	; 47b0 <_Min_Stack_Size+0x43b0>
    47ac:	38315f53 	ldmdacc	r1!, {r0, r1, r4, r6, r8, r9, sl, fp, ip, lr}
    47b0:	5f313636 	svcpl	0x00313636
    47b4:	205f5f33 	subscs	r5, pc, r3, lsr pc	; <UNPREDICTABLE>
    47b8:	5f5f0030 	svcpl	0x005f0030
    47bc:	72747461 	rsbsvc	r7, r4, #1627389952	; 0x61000000
    47c0:	74756269 	ldrbtvc	r6, [r5], #-617	; 0xfffffd97
    47c4:	616d5f65 	cmnvs	sp, r5, ror #30
    47c8:	636f6c6c 	cmnvs	pc, #108, 24	; 0x6c00
    47cc:	00205f5f 	eoreq	r5, r0, pc, asr pc
    47d0:	43535f5f 	cmpmi	r3, #380	; 0x17c
    47d4:	5f524148 	svcpl	0x00524148
    47d8:	54444957 	strbpl	r4, [r4], #-2391	; 0xfffff6a9
    47dc:	205f5f48 	subscs	r5, pc, r8, asr #30
    47e0:	32490038 	subcc	r0, r9, #56	; 0x38
    47e4:	52435f43 	subpl	r5, r3, #268	; 0x10c
    47e8:	4f4e5f31 	svcmi	0x004e5f31
    47ec:	45525453 	ldrbmi	r5, [r2, #-1107]	; 0xfffffbad
    47f0:	20484354 	subcs	r4, r8, r4, asr r3
    47f4:	5f433249 	svcpl	0x00433249
    47f8:	5f315243 	svcpl	0x00315243
    47fc:	54534f4e 	ldrbpl	r4, [r3], #-3918	; 0xfffff0b2
    4800:	43544552 	cmpmi	r4, #343932928	; 0x14800000
    4804:	734d5f48 	movtvc	r5, #57160	; 0xdf48
    4808:	4e49006b 	cdpmi	0, 4, cr0, cr9, cr11, {3}
    480c:	435f3854 	cmpmi	pc, #84, 16	; 0x540000
    4810:	20297828 	eorcs	r7, r9, r8, lsr #16
    4814:	4e495f5f 	mcrmi	15, 2, r5, cr9, cr15, {2}
    4818:	435f3854 	cmpmi	pc, #84, 16	; 0x540000
    481c:	00297828 	eoreq	r7, r9, r8, lsr #16
    4820:	49555f5f 	ldmdbmi	r5, {r0, r1, r2, r3, r4, r6, r8, r9, sl, fp, ip, lr}^
    4824:	465f544e 	ldrbmi	r5, [pc], -lr, asr #8
    4828:	38545341 	ldmdacc	r4, {r0, r6, r8, r9, ip, lr}^
    482c:	5059545f 	subspl	r5, r9, pc, asr r4
    4830:	205f5f45 	subscs	r5, pc, r5, asr #30
    4834:	69736e75 	ldmdbvs	r3!, {r0, r2, r4, r5, r6, r9, sl, fp, sp, lr}^
    4838:	64656e67 	strbtvs	r6, [r5], #-3687	; 0xfffff199
    483c:	746e6920 	strbtvc	r6, [lr], #-2336	; 0xfffff6e0
    4840:	4c5f5f00 	mrrcmi	15, 0, r5, pc, cr0	; <UNPREDICTABLE>
    4844:	4343414c 	movtmi	r4, #12620	; 0x314c
    4848:	495f4d55 	ldmdbmi	pc, {r0, r2, r4, r6, r8, sl, fp, lr}^	; <UNPREDICTABLE>
    484c:	5f544942 	svcpl	0x00544942
    4850:	3233205f 	eorscc	r2, r3, #95	; 0x5f
    4854:	45525f00 	ldrbmi	r5, [r2, #-3840]	; 0xfffff100
    4858:	5f544e45 	svcpl	0x00544e45
    485c:	4e5f5349 	cdpmi	3, 5, cr5, cr15, cr9, {2}
    4860:	284c4c55 	stmdacs	ip, {r0, r2, r4, r6, sl, fp, lr}^
    4864:	7274705f 	rsbsvc	r7, r4, #95	; 0x5f
    4868:	28282029 	stmdacs	r8!, {r0, r3, r5, sp}
    486c:	7274705f 	rsbsvc	r7, r4, #95	; 0x5f
    4870:	3d3d2029 	ldccc	0, cr2, [sp, #-164]!	; 0xffffff5c
    4874:	4c554e20 	mrrcmi	14, 2, r4, r5, cr0
    4878:	5f00294c 	svcpl	0x0000294c
    487c:	636f6c5f 	cmnvs	pc, #24320	; 0x5f00
    4880:	6c635f6b 	stclvs	15, cr5, [r3], #-428	; 0xfffffe54
    4884:	5f65736f 	svcpl	0x0065736f
    4888:	75636572 	strbvc	r6, [r3, #-1394]!	; 0xfffffa8e
    488c:	76697372 			; <UNDEFINED> instruction: 0x76697372
    4890:	6f6c2865 	svcvs	0x006c2865
    4894:	20296b63 	eorcs	r6, r9, r3, ror #22
    4898:	65725f5f 	ldrbvs	r5, [r2, #-3935]!	; 0xfffff0a1
    489c:	67726174 			; <UNDEFINED> instruction: 0x67726174
    48a0:	6c5f7465 	cfldrdvs	mvd7, [pc], {101}	; 0x65
    48a4:	5f6b636f 	svcpl	0x006b636f
    48a8:	736f6c63 	cmnvc	pc, #25344	; 0x6300
    48ac:	65725f65 	ldrbvs	r5, [r2, #-3941]!	; 0xfffff09b
    48b0:	73727563 	cmnvc	r2, #415236096	; 0x18c00000
    48b4:	28657669 	stmdacs	r5!, {r0, r3, r5, r6, r9, sl, ip, sp, lr}^
    48b8:	6b636f6c 	blvs	18e0670 <_Min_Stack_Size+0x18e0270>
    48bc:	32490029 	subcc	r0, r9, #41	; 0x29
    48c0:	52535f43 	subspl	r5, r3, #268	; 0x10c
    48c4:	54425f31 	strbpl	r5, [r2], #-3889	; 0xfffff0cf
    48c8:	32492046 	subcc	r2, r9, #70	; 0x46
    48cc:	52535f43 	subspl	r5, r3, #268	; 0x10c
    48d0:	54425f31 	strbpl	r5, [r2], #-3889	; 0xfffff0cf
    48d4:	734d5f46 	movtvc	r5, #57158	; 0xdf46
    48d8:	3249006b 	subcc	r0, r9, #107	; 0x6b
    48dc:	52535f43 	subspl	r5, r3, #268	; 0x10c
    48e0:	49545f31 	ldmdbmi	r4, {r0, r4, r5, r8, r9, sl, fp, ip, lr}^
    48e4:	554f454d 	strbpl	r4, [pc, #-1357]	; 439f <_Min_Stack_Size+0x3f9f>
    48e8:	6f505f54 	svcvs	0x00505f54
    48ec:	31282073 			; <UNDEFINED> instruction: 0x31282073
    48f0:	00295534 	eoreq	r5, r9, r4, lsr r5
    48f4:	4e495f5f 	mcrmi	15, 2, r5, cr9, cr15, {2}
    48f8:	5f323354 	svcpl	0x00323354
    48fc:	5f58414d 	svcpl	0x0058414d
    4900:	7830205f 	ldmdavc	r0!, {r0, r1, r2, r3, r4, r6, sp}
    4904:	66666637 			; <UNDEFINED> instruction: 0x66666637
    4908:	66666666 	strbtvs	r6, [r6], -r6, ror #12
    490c:	555f004c 	ldrbpl	r0, [pc, #-76]	; 48c8 <_Min_Stack_Size+0x44c8>
    4910:	475f4553 			; <UNDEFINED> instruction: 0x475f4553
    4914:	414f5444 	cmpmi	pc, r4, asr #8
    4918:	5f5f0020 	svcpl	0x005f0020
    491c:	5f6e696d 	svcpl	0x006e696d
    4920:	657a6973 	ldrbvs	r6, [sl, #-2419]!	; 0xfffff68d
    4924:	20297828 	eorcs	r7, r9, r8, lsr #16
    4928:	74617473 	strbtvc	r7, [r1], #-1139	; 0xfffffb8d
    492c:	28206369 	stmdacs	r0!, {r0, r3, r5, r6, r8, r9, sp, lr}
    4930:	5f002978 	svcpl	0x00002978
    4934:	454d4954 	strbmi	r4, [sp, #-2388]	; 0xfffff6ac
    4938:	5f545f52 	svcpl	0x00545f52
    493c:	736e7520 	cmnvc	lr, #32, 10	; 0x8000000
    4940:	656e6769 	strbvs	r6, [lr, #-1897]!	; 0xfffff897
    4944:	6f6c2064 	svcvs	0x006c2064
    4948:	5f00676e 	svcpl	0x0000676e
    494c:	544e495f 	strbpl	r4, [lr], #-2399	; 0xfffff6a1
    4950:	41454c5f 	cmpmi	r5, pc, asr ip
    4954:	34365453 	ldrtcc	r5, [r6], #-1107	; 0xfffffbad
    4958:	58414d5f 	stmdapl	r1, {r0, r1, r2, r3, r4, r6, r8, sl, fp, lr}^
    495c:	30205f5f 	eorcc	r5, r0, pc, asr pc
    4960:	66663778 			; <UNDEFINED> instruction: 0x66663778
    4964:	66666666 	strbtvs	r6, [r6], -r6, ror #12
    4968:	66666666 	strbtvs	r6, [r6], -r6, ror #12
    496c:	66666666 	strbtvs	r6, [r6], -r6, ror #12
    4970:	004c4c66 	subeq	r4, ip, r6, ror #24
    4974:	50415f5f 	subpl	r5, r1, pc, asr pc
    4978:	335f5343 	cmpcc	pc, #201326593	; 0xc000001
    497c:	205f5f32 	subscs	r5, pc, r2, lsr pc	; <UNPREDICTABLE>
    4980:	5f5f0031 	svcpl	0x005f0031
    4984:	5f4d5241 	svcpl	0x004d5241
    4988:	54414546 	strbpl	r4, [r1], #-1350	; 0xfffffaba
    498c:	5f455255 	svcpl	0x00455255
    4990:	36314642 	ldrtcc	r4, [r1], -r2, asr #12
    4994:	4345565f 	movtmi	r5, #22111	; 0x565f
    4998:	5f524f54 	svcpl	0x00524f54
    499c:	54495241 	strbpl	r5, [r9], #-577	; 0xfffffdbf
    49a0:	54454d48 	strbpl	r4, [r5], #-3400	; 0xfffff2b8
    49a4:	5f004349 	svcpl	0x00004349
    49a8:	5f535953 	svcpl	0x00535953
    49ac:	4454535f 	ldrbmi	r5, [r4], #-863	; 0xfffffca1
    49b0:	5f544e49 	svcpl	0x00544e49
    49b4:	5f002048 	svcpl	0x00002048
    49b8:	65656e5f 	strbvs	r6, [r5, #-3679]!	; 0xfffff1a1
    49bc:	554e5f64 	strbpl	r5, [lr, #-3940]	; 0xfffff09c
    49c0:	00204c4c 	eoreq	r4, r0, ip, asr #24
    49c4:	4645445f 			; <UNDEFINED> instruction: 0x4645445f
    49c8:	544c5541 	strbpl	r5, [ip], #-1345	; 0xfffffabf
    49cc:	554f535f 	strbpl	r5, [pc, #-863]	; 4675 <_Min_Stack_Size+0x4275>
    49d0:	20454352 	subcs	r4, r5, r2, asr r3
    49d4:	32490031 	subcc	r0, r9, #49	; 0x31
    49d8:	52535f43 	subspl	r5, r3, #268	; 0x10c
    49dc:	4d535f32 	ldclmi	15, cr5, [r3, #-200]	; 0xffffff38
    49e0:	46454442 	strbmi	r4, [r5], -r2, asr #8
    49e4:	544c5541 	strbpl	r5, [ip], #-1345	; 0xfffffabf
    49e8:	736f505f 	cmnvc	pc, #95	; 0x5f
    49ec:	55352820 	ldrpl	r2, [r5, #-2080]!	; 0xfffff7e0
    49f0:	5f5f0029 	svcpl	0x005f0029
    49f4:	33544c46 	cmpcc	r4, #17920	; 0x4600
    49f8:	414d5f32 	cmpmi	sp, r2, lsr pc
    49fc:	445f544e 	ldrbmi	r5, [pc], #-1102	; 4a04 <_Min_Stack_Size+0x4604>
    4a00:	5f5f4749 	svcpl	0x005f4749
    4a04:	00343220 	eorseq	r3, r4, r0, lsr #4
    4a08:	4c465f5f 	mcrrmi	15, 5, r5, r6, cr15
    4a0c:	5f323354 	svcpl	0x00323354
    4a10:	4f4e4544 	svcmi	0x004e4544
    4a14:	4d5f4d52 	ldclmi	13, cr4, [pc, #-328]	; 48d4 <_Min_Stack_Size+0x44d4>
    4a18:	5f5f4e49 	svcpl	0x005f4e49
    4a1c:	342e3120 	strtcc	r3, [lr], #-288	; 0xfffffee0
    4a20:	39323130 	ldmdbcc	r2!, {r4, r5, r8, ip, sp}
    4a24:	34363438 	ldrtcc	r3, [r6], #-1080	; 0xfffffbc8
    4a28:	38343233 	ldmdacc	r4!, {r0, r1, r4, r5, r9, ip, sp}
    4a2c:	65313731 	ldrvs	r3, [r1, #-1841]!	; 0xfffff8cf
    4a30:	4635342d 	ldrtmi	r3, [r5], -sp, lsr #8
    4a34:	5f003233 	svcpl	0x00003233
    4a38:	6365735f 	cmnvs	r5, #2080374785	; 0x7c000001
    4a3c:	6e6f6974 			; <UNDEFINED> instruction: 0x6e6f6974
    4a40:	20297828 	eorcs	r7, r9, r8, lsr #16
    4a44:	74615f5f 	strbtvc	r5, [r1], #-3935	; 0xfffff0a1
    4a48:	62697274 	rsbvs	r7, r9, #116, 4	; 0x40000007
    4a4c:	5f657475 	svcpl	0x00657475
    4a50:	5f28285f 	svcpl	0x0028285f
    4a54:	6365735f 	cmnvs	r5, #2080374785	; 0x7c000001
    4a58:	6e6f6974 			; <UNDEFINED> instruction: 0x6e6f6974
    4a5c:	78285f5f 	stmdavc	r8!, {r0, r1, r2, r3, r4, r6, r8, r9, sl, fp, ip, lr}
    4a60:	00292929 	eoreq	r2, r9, r9, lsr #18
    4a64:	7366666f 	cmnvc	r6, #116391936	; 0x6f00000
    4a68:	666f7465 	strbtvs	r7, [pc], -r5, ror #8
    4a6c:	50595428 	subspl	r5, r9, r8, lsr #8
    4a70:	454d2c45 	strbmi	r2, [sp, #-3141]	; 0xfffff3bb
    4a74:	5245424d 	subpl	r4, r5, #-805306364	; 0xd0000004
    4a78:	5f5f2029 	svcpl	0x005f2029
    4a7c:	6c697562 	cfstr64vs	mvdx7, [r9], #-392	; 0xfffffe78
    4a80:	5f6e6974 	svcpl	0x006e6974
    4a84:	7366666f 	cmnvc	r6, #116391936	; 0x6f00000
    4a88:	666f7465 	strbtvs	r7, [pc], -r5, ror #8
    4a8c:	59542820 	ldmdbpl	r4, {r5, fp, sp}^
    4a90:	202c4550 	eorcs	r4, ip, r0, asr r5
    4a94:	424d454d 	submi	r4, sp, #322961408	; 0x13400000
    4a98:	00295245 	eoreq	r5, r9, r5, asr #4
    4a9c:	49555f5f 	ldmdbmi	r5, {r0, r1, r2, r3, r4, r6, r8, r9, sl, fp, ip, lr}^
    4aa0:	3436544e 	ldrtcc	r5, [r6], #-1102	; 0xfffffbb2
    4aa4:	6328435f 			; <UNDEFINED> instruction: 0x6328435f
    4aa8:	20632029 	rsbcs	r2, r3, r9, lsr #32
    4aac:	55202323 	strpl	r2, [r0, #-803]!	; 0xfffffcdd
    4ab0:	5f004c4c 	svcpl	0x00004c4c
    4ab4:	4e49555f 	mcrmi	5, 2, r5, cr9, cr15, {2}
    4ab8:	454c5f54 	strbmi	r5, [ip, #-3924]	; 0xfffff0ac
    4abc:	36545341 	ldrbcc	r5, [r4], -r1, asr #6
    4ac0:	59545f34 	ldmdbpl	r4, {r2, r4, r5, r8, r9, sl, fp, ip, lr}^
    4ac4:	5f5f4550 	svcpl	0x005f4550
    4ac8:	6e6f6c20 	cdpvs	12, 6, cr6, cr15, cr0, {1}
    4acc:	6f6c2067 	svcvs	0x006c2067
    4ad0:	7520676e 	strvc	r6, [r0, #-1902]!	; 0xfffff892
    4ad4:	6769736e 	strbvs	r7, [r9, -lr, ror #6]!
    4ad8:	2064656e 	rsbcs	r6, r4, lr, ror #10
    4adc:	00746e69 	rsbseq	r6, r4, r9, ror #28
    4ae0:	53555f5f 	cmppl	r5, #380	; 0x17c
    4ae4:	43415246 	movtmi	r5, #4678	; 0x1246
    4ae8:	42465f54 	submi	r5, r6, #84, 30	; 0x150
    4aec:	5f5f5449 	svcpl	0x005f5449
    4af0:	5f003820 	svcpl	0x00003820
    4af4:	42444c5f 	submi	r4, r4, #24320	; 0x5f00
    4af8:	50455f4c 	subpl	r5, r5, ip, asr #30
    4afc:	4f4c4953 	svcmi	0x004c4953
    4b00:	205f5f4e 	subscs	r5, pc, lr, asr #30
    4b04:	32322e32 	eorscc	r2, r2, #800	; 0x320
    4b08:	36343430 			; <UNDEFINED> instruction: 0x36343430
    4b0c:	32393430 	eorscc	r3, r9, #48, 8	; 0x30000000
    4b10:	31333035 	teqcc	r3, r5, lsr r0
    4b14:	2d653133 	stfcse	f3, [r5, #-204]!	; 0xffffff34
    4b18:	004c3631 	subeq	r3, ip, r1, lsr r6
    4b1c:	5f433249 	svcpl	0x00433249
    4b20:	5f315253 	svcpl	0x00315253
    4b24:	454e5852 	strbmi	r5, [lr, #-2130]	; 0xfffff7ae
    4b28:	736f505f 	cmnvc	pc, #95	; 0x5f
    4b2c:	55362820 	ldrpl	r2, [r6, #-2080]!	; 0xfffff7e0
    4b30:	4e490029 	cdpmi	0, 4, cr0, cr9, cr9, {1}
    4b34:	41465f54 	cmpmi	r6, r4, asr pc
    4b38:	34365453 	ldrtcc	r5, [r6], #-1107	; 0xfffffbad
    4b3c:	58414d5f 	stmdapl	r1, {r0, r1, r2, r3, r4, r6, r8, sl, fp, lr}^
    4b40:	5f5f2820 	svcpl	0x005f2820
    4b44:	5f544e49 	svcpl	0x00544e49
    4b48:	54534146 	ldrbpl	r4, [r3], #-326	; 0xfffffeba
    4b4c:	4d5f3436 	cfldrdmi	mvd3, [pc, #-216]	; 4a7c <_Min_Stack_Size+0x467c>
    4b50:	5f5f5841 	svcpl	0x005f5841
    4b54:	5f5f0029 	svcpl	0x005f0029
    4b58:	65727570 	ldrbvs	r7, [r2, #-1392]!	; 0xfffffa90
    4b5c:	5f5f2032 	svcpl	0x005f2032
    4b60:	72747461 	rsbsvc	r7, r4, #1627389952	; 0x61000000
    4b64:	74756269 	ldrbtvc	r6, [r5], #-617	; 0xfffffd97
    4b68:	285f5f65 	ldmdacs	pc, {r0, r2, r5, r6, r8, r9, sl, fp, ip, lr}^	; <UNPREDICTABLE>
    4b6c:	635f5f28 	cmpvs	pc, #40, 30	; 0xa0
    4b70:	74736e6f 	ldrbtvc	r6, [r3], #-3695	; 0xfffff191
    4b74:	29295f5f 	stmdbcs	r9!, {r0, r1, r2, r3, r4, r6, r8, r9, sl, fp, ip, lr}
    4b78:	475f5f00 	ldrbmi	r5, [pc, -r0, lsl #30]
    4b7c:	415f4343 	cmpmi	pc, r3, asr #6
    4b80:	494d4f54 	stmdbmi	sp, {r2, r4, r6, r8, r9, sl, fp, lr}^
    4b84:	48435f43 	stmdami	r3, {r0, r1, r6, r8, r9, sl, fp, ip, lr}^
    4b88:	36315241 	ldrtcc	r5, [r1], -r1, asr #4
    4b8c:	4c5f545f 	cfldrdmi	mvd5, [pc], {95}	; 0x5f
    4b90:	5f4b434f 	svcpl	0x004b434f
    4b94:	45455246 	strbmi	r5, [r5, #-582]	; 0xfffffdba
    4b98:	5f003220 	svcpl	0x00003220
    4b9c:	4c554e5f 	mrrcmi	14, 5, r4, r5, cr15
    4ba0:	4942414c 	stmdbmi	r2, {r2, r3, r6, r8, lr}^
    4ba4:	5954494c 	ldmdbpl	r4, {r2, r3, r6, r8, fp, lr}^
    4ba8:	4152505f 	cmpmi	r2, pc, asr r0
    4bac:	5f414d47 	svcpl	0x00414d47
    4bb0:	48535550 	ldmdami	r3, {r4, r6, r8, sl, ip, lr}^
    4bb4:	434c0020 	movtmi	r0, #49184	; 0xc020
    4bb8:	5f00524b 	svcpl	0x0000524b
    4bbc:	4c42445f 	cfstrdmi	mvd4, [r2], {95}	; 0x5f
    4bc0:	58414d5f 	stmdapl	r1, {r0, r1, r2, r3, r4, r6, r8, sl, fp, lr}^
    4bc4:	5058455f 	subspl	r4, r8, pc, asr r5
    4bc8:	31205f5f 			; <UNDEFINED> instruction: 0x31205f5f
    4bcc:	00343230 	eorseq	r3, r4, r0, lsr r2
    4bd0:	41465f5f 	cmpmi	r6, pc, asr pc
    4bd4:	34365453 	ldrtcc	r5, [r6], #-1107	; 0xfffffbad
    4bd8:	6c6c2220 	sfmvs	f2, 2, [ip], #-128	; 0xffffff80
    4bdc:	5f5f0022 	svcpl	0x005f0022
    4be0:	4d4f5441 	cfstrdmi	mvd5, [pc, #-260]	; 4ae4 <_Min_Stack_Size+0x46e4>
    4be4:	525f4349 	subspl	r4, pc, #603979777	; 0x24000001
    4be8:	41454c45 	cmpmi	r5, r5, asr #24
    4bec:	33204553 			; <UNDEFINED> instruction: 0x33204553
    4bf0:	736e7500 	cmnvc	lr, #0, 10
    4bf4:	656e6769 	strbvs	r6, [lr, #-1897]!	; 0xfffff897
    4bf8:	302b2064 	eorcc	r2, fp, r4, rrx
    4bfc:	43324900 	teqmi	r2, #0, 18
    4c00:	3152435f 	cmpcc	r2, pc, asr r3
    4c04:	4154535f 	cmpmi	r4, pc, asr r3
    4c08:	49205452 	stmdbmi	r0!, {r1, r4, r6, sl, ip, lr}
    4c0c:	435f4332 	cmpmi	pc, #-939524096	; 0xc8000000
    4c10:	535f3152 	cmppl	pc, #-2147483628	; 0x80000014
    4c14:	54524154 	ldrbpl	r4, [r2], #-340	; 0xfffffeac
    4c18:	6b734d5f 	blvs	1cd819c <_Min_Stack_Size+0x1cd7d9c>
    4c1c:	465f5f00 	ldrbmi	r5, [pc], -r0, lsl #30
    4c20:	3233544c 	eorscc	r5, r3, #76, 8	; 0x4c000000
    4c24:	41485f58 	cmpmi	r8, r8, asr pc
    4c28:	45445f53 	strbmi	r5, [r4, #-3923]	; 0xfffff0ad
    4c2c:	4d524f4e 	ldclmi	15, cr4, [r2, #-312]	; 0xfffffec8
    4c30:	31205f5f 			; <UNDEFINED> instruction: 0x31205f5f
    4c34:	2f3a4400 	svccs	0x003a4400
    4c38:	645f736b 	ldrbvs	r7, [pc], #-875	; 4c40 <_Min_Stack_Size+0x4840>
    4c3c:	6f6c7069 	svcvs	0x006c7069
    4c40:	552f616d 	strpl	r6, [pc, #-365]!	; 4adb <_Min_Stack_Size+0x46db>
    4c44:	7374696e 	cmnvc	r4, #1802240	; 0x1b8000
    4c48:	696e552f 	stmdbvs	lr!, {r0, r1, r2, r3, r5, r8, sl, ip, lr}^
    4c4c:	34312074 	ldrtcc	r2, [r1], #-116	; 0xffffff8c
    4c50:	73654c2f 	cmnvc	r5, #12032	; 0x2f00
    4c54:	206e6f73 	rsbcs	r6, lr, r3, ror pc
    4c58:	616c2f33 	cmnvs	ip, r3, lsr pc
    4c5c:	442f3262 	strtmi	r3, [pc], #-610	; 4c64 <_Min_Stack_Size+0x4864>
    4c60:	67756265 	ldrbvs	r6, [r5, -r5, ror #4]!
    4c64:	43324900 	teqmi	r2, #0, 18
    4c68:	3152535f 	cmpcc	r2, pc, asr r3
    4c6c:	52564f5f 	subspl	r4, r6, #380	; 0x17c
    4c70:	6b734d5f 	blvs	1cd81f4 <_Min_Stack_Size+0x1cd7df4>
    4c74:	78302820 	ldmdavc	r0!, {r5, fp, sp}
    4c78:	204c5531 	subcs	r5, ip, r1, lsr r5
    4c7c:	49203c3c 	stmdbmi	r0!, {r2, r3, r4, r5, sl, fp, ip, sp}
    4c80:	535f4332 	cmppl	pc, #-939524096	; 0xc8000000
    4c84:	4f5f3152 	svcmi	0x005f3152
    4c88:	505f5256 	subspl	r5, pc, r6, asr r2	; <UNPREDICTABLE>
    4c8c:	0029736f 	eoreq	r7, r9, pc, ror #6
    4c90:	4e41525f 	mcrmi	2, 2, r5, cr1, cr15, {2}
    4c94:	5f383444 	svcpl	0x00383444
    4c98:	44454553 	strbmi	r4, [r5], #-1363	; 0xfffffaad
    4c9c:	2820315f 	stmdacs	r0!, {r0, r1, r2, r3, r4, r6, r8, ip, sp}
    4ca0:	62617830 	rsbvs	r7, r1, #48, 16	; 0x300000
    4ca4:	00296463 	eoreq	r6, r9, r3, ror #8
    4ca8:	44555f5f 	ldrbmi	r5, [r5], #-3935	; 0xfffff0a1
    4cac:	42495f51 	submi	r5, r9, #324	; 0x144
    4cb0:	5f5f5449 	svcpl	0x005f5449
    4cb4:	69003020 	stmdbvs	r0, {r5, ip, sp}
    4cb8:	2b20746e 	blcs	821e78 <_Min_Stack_Size+0x821a78>
    4cbc:	32490032 	subcc	r0, r9, #50	; 0x32
    4cc0:	52435f43 	subpl	r5, r3, #268	; 0x10c
    4cc4:	54535f31 	ldrbpl	r5, [r3], #-3889	; 0xfffff0cf
    4cc8:	5f545241 	svcpl	0x00545241
    4ccc:	20736f50 	rsbscs	r6, r3, r0, asr pc
    4cd0:	29553828 	ldmdbcs	r5, {r3, r5, fp, ip, sp}^
    4cd4:	4e495500 	cdpmi	5, 4, cr5, cr9, cr0, {0}
    4cd8:	58414d54 	stmdapl	r1, {r2, r4, r6, r8, sl, fp, lr}^
    4cdc:	58414d5f 	stmdapl	r1, {r0, r1, r2, r3, r4, r6, r8, sl, fp, lr}^
    4ce0:	5f5f2820 	svcpl	0x005f2820
    4ce4:	544e4955 	strbpl	r4, [lr], #-2389	; 0xfffff6ab
    4ce8:	5f58414d 	svcpl	0x0058414d
    4cec:	5f58414d 	svcpl	0x0058414d
    4cf0:	5f00295f 	svcpl	0x0000295f
    4cf4:	6e695f5f 	mcrvs	15, 3, r5, cr9, cr15, {2}
    4cf8:	74705f74 	ldrbtvc	r5, [r0], #-3956	; 0xfffff08c
    4cfc:	66696472 			; <UNDEFINED> instruction: 0x66696472
    4d00:	5f745f66 	svcpl	0x00745f66
    4d04:	4e002068 	cdpmi	0, 0, cr2, cr0, cr8, {3}
    4d08:	5f434956 	svcpl	0x00434956
    4d0c:	45534142 	ldrbmi	r4, [r3, #-322]	; 0xfffffebe
    4d10:	45783020 	ldrbmi	r3, [r8, #-32]!	; 0xffffffe0
    4d14:	45303030 	ldrmi	r3, [r0, #-48]!	; 0xffffffd0
    4d18:	55303031 	ldrpl	r3, [r0, #-49]!	; 0xffffffcf
    4d1c:	5f5f004c 	svcpl	0x005f004c
    4d20:	43434155 	movtmi	r4, #12629	; 0x3155
    4d24:	4d5f4d55 	ldclmi	13, cr4, [pc, #-340]	; 4bd8 <_Min_Stack_Size+0x47d8>
    4d28:	5f5f5841 	svcpl	0x005f5841
    4d2c:	46583020 	ldrbmi	r3, [r8], -r0, lsr #32
    4d30:	46464646 	strbmi	r4, [r6], -r6, asr #12
    4d34:	50464646 	subpl	r4, r6, r6, asr #12
    4d38:	5536312d 	ldrpl	r3, [r6, #-301]!	; 0xfffffed3
    4d3c:	5f5f004b 	svcpl	0x005f004b
    4d40:	535f4343 	cmppl	pc, #201326593	; 0xc000001
    4d44:	4f505055 	svcmi	0x00505055
    4d48:	5f535452 	svcpl	0x00535452
    4d4c:	55465f5f 	strbpl	r5, [r6, #-3935]	; 0xfffff0a1
    4d50:	5f5f434e 	svcpl	0x005f434e
    4d54:	5f003120 	svcpl	0x00003120
    4d58:	544c465f 	strbpl	r4, [ip], #-1631	; 0xfffff9a1
    4d5c:	4e5f3436 	mrcmi	4, 2, r3, cr15, cr6, {1}
    4d60:	5f4d524f 	svcpl	0x004d524f
    4d64:	5f58414d 	svcpl	0x0058414d
    4d68:	2e31205f 	mrccs	0, 1, r2, cr1, cr15, {2}
    4d6c:	36373937 			; <UNDEFINED> instruction: 0x36373937
    4d70:	33313339 	teqcc	r1, #-469762048	; 0xe4000000
    4d74:	32363834 	eorscc	r3, r6, #52, 16	; 0x340000
    4d78:	37353133 			; <UNDEFINED> instruction: 0x37353133
    4d7c:	30332b65 	eorscc	r2, r3, r5, ror #22
    4d80:	34364638 	ldrtcc	r4, [r6], #-1592	; 0xfffff9c8
    4d84:	475f5f00 	ldrbmi	r5, [pc, -r0, lsl #30]
    4d88:	4c43554e 	cfstr64mi	mvdx5, [r3], {78}	; 0x4e
    4d8c:	5f454b49 	svcpl	0x00454b49
    4d90:	4854414d 	ldmdami	r4, {r0, r2, r3, r6, r8, lr}^
    4d94:	4955425f 	ldmdbmi	r5, {r0, r1, r2, r3, r4, r6, r9, lr}^
    4d98:	4e49544c 	cdpmi	4, 4, cr5, cr9, cr12, {2}
    4d9c:	4e4f435f 	mcrmi	3, 2, r4, cr15, cr15, {2}
    4da0:	4e415453 	mcrmi	4, 2, r5, cr1, cr3, {2}
    4da4:	00205354 	eoreq	r5, r0, r4, asr r3
    4da8:	4f495047 	svcmi	0x00495047
    4dac:	4e49505f 	mcrmi	0, 2, r5, cr9, cr15, {2}
    4db0:	2820305f 	stmdacs	r0!, {r0, r1, r2, r3, r4, r6, ip, sp}
    4db4:	6e697528 	cdpvs	5, 6, cr7, cr9, cr8, {1}
    4db8:	5f363174 	svcpl	0x00363174
    4dbc:	78302974 	ldmdavc	r0!, {r2, r4, r5, r6, r8, fp, sp}
    4dc0:	31303030 	teqcc	r0, r0, lsr r0
    4dc4:	525f0029 	subspl	r0, pc, #41	; 0x29
    4dc8:	544e4545 	strbpl	r4, [lr], #-1349	; 0xfffffabb
    4dcc:	4353415f 	cmpmi	r3, #-1073741801	; 0xc0000017
    4dd0:	454d4954 	strbmi	r4, [sp, #-2388]	; 0xfffff6ac
    4dd4:	4655425f 			; <UNDEFINED> instruction: 0x4655425f
    4dd8:	72747028 	rsbsvc	r7, r4, #40	; 0x28
    4ddc:	28282029 	stmdacs	r8!, {r0, r3, r5, sp}
    4de0:	29727470 	ldmdbcs	r2!, {r4, r5, r6, sl, ip, sp, lr}^
    4de4:	615f3e2d 	cmpvs	pc, sp, lsr #28
    4de8:	69746373 	ldmdbvs	r4!, {r0, r1, r4, r5, r6, r8, r9, sp, lr}^
    4dec:	625f656d 	subsvs	r6, pc, #457179136	; 0x1b400000
    4df0:	00296675 	eoreq	r6, r9, r5, ror r6
    4df4:	5f433249 	svcpl	0x00433249
    4df8:	5f315253 	svcpl	0x00315253
    4dfc:	4f4c5241 	svcmi	0x004c5241
    4e00:	6b734d5f 	blvs	1cd8384 <_Min_Stack_Size+0x1cd7f84>
    4e04:	78302820 	ldmdavc	r0!, {r5, fp, sp}
    4e08:	204c5531 	subcs	r5, ip, r1, lsr r5
    4e0c:	49203c3c 	stmdbmi	r0!, {r2, r3, r4, r5, sl, fp, ip, sp}
    4e10:	535f4332 	cmppl	pc, #-939524096	; 0xc8000000
    4e14:	415f3152 	cmpmi	pc, r2, asr r1	; <UNPREDICTABLE>
    4e18:	5f4f4c52 	svcpl	0x004f4c52
    4e1c:	29736f50 	ldmdbcs	r3!, {r4, r6, r8, r9, sl, fp, sp, lr}^
    4e20:	5f545f00 	svcpl	0x00545f00
    4e24:	44525450 	ldrbmi	r5, [r2], #-1104	; 0xfffffbb0
    4e28:	5f464649 	svcpl	0x00464649
    4e2c:	58450020 	stmdapl	r5, {r5}^
    4e30:	32314954 	eorscc	r4, r1, #84, 18	; 0x150000
    4e34:	32314450 	eorscc	r4, r1, #80, 8	; 0x50000000
    4e38:	58452820 	stmdapl	r5, {r5, fp, sp}^
    4e3c:	475f4954 			; <UNDEFINED> instruction: 0x475f4954
    4e40:	5f4f4950 	svcpl	0x004f4950
    4e44:	6970614d 	ldmdbvs	r0!, {r0, r2, r3, r6, r8, sp, lr}^
    4e48:	745f676e 	ldrbvc	r6, [pc], #-1902	; 4e50 <_Min_Stack_Size+0x4a50>
    4e4c:	58457b29 	stmdapl	r5, {r0, r3, r5, r8, r9, fp, ip, sp, lr}^
    4e50:	32314954 	eorscc	r4, r1, #84, 18	; 0x150000
    4e54:	5047202c 	subpl	r2, r7, ip, lsr #32
    4e58:	2c444f49 	mcrrcs	15, 4, r4, r4, cr9
    4e5c:	49504720 	ldmdbmi	r0, {r5, r8, r9, sl, lr}^
    4e60:	49505f4f 	ldmdbmi	r0, {r0, r1, r2, r3, r6, r8, r9, sl, fp, ip, lr}^
    4e64:	32315f4e 	eorscc	r5, r1, #312	; 0x138
    4e68:	5845202c 	stmdapl	r5, {r2, r3, r5, sp}^
    4e6c:	32314954 	eorscc	r4, r1, #84, 18	; 0x150000
    4e70:	5152495f 	cmppl	r2, pc, asr r9
    4e74:	5f5f007d 	svcpl	0x005f007d
    4e78:	4c42444c 	cfstrdmi	mvd4, [r2], {76}	; 0x4c
    4e7c:	4e45445f 	mcrmi	4, 2, r4, cr5, cr15, {2}
    4e80:	5f4d524f 	svcpl	0x004d524f
    4e84:	5f4e494d 	svcpl	0x004e494d
    4e88:	2e34205f 	mrccs	0, 1, r2, cr4, cr15, {2}
    4e8c:	36303439 			; <UNDEFINED> instruction: 0x36303439
    4e90:	35343635 	ldrcc	r3, [r4, #-1589]!	; 0xfffff9cb
    4e94:	32313438 	eorscc	r3, r1, #56, 8	; 0x38000000
    4e98:	34353634 	ldrtcc	r3, [r5], #-1588	; 0xfffff9cc
    4e9c:	32332d65 	eorscc	r2, r3, #6464	; 0x1940
    4ea0:	5f004c34 	svcpl	0x00004c34
    4ea4:	544e495f 	strbpl	r4, [lr], #-2399	; 0xfffff6a1
    4ea8:	4d5f3436 	cfldrdmi	mvd3, [pc, #-216]	; 4dd8 <_Min_Stack_Size+0x49d8>
    4eac:	5f5f5841 	svcpl	0x005f5841
    4eb0:	37783020 	ldrbcc	r3, [r8, -r0, lsr #32]!
    4eb4:	66666666 	strbtvs	r6, [r6], -r6, ror #12
    4eb8:	66666666 	strbtvs	r6, [r6], -r6, ror #12
    4ebc:	66666666 	strbtvs	r6, [r6], -r6, ror #12
    4ec0:	4c666666 	stclmi	6, cr6, [r6], #-408	; 0xfffffe68
    4ec4:	7361004c 	cmnvc	r1, #76	; 0x4c
    4ec8:	74726573 	ldrbtvc	r6, [r2], #-1395	; 0xfffffa8d
    4ecc:	655f5f28 	ldrbvs	r5, [pc, #-3880]	; 3fac <_Min_Stack_Size+0x3bac>
    4ed0:	28282029 	stmdacs	r8!, {r0, r3, r5, sp}
    4ed4:	29655f5f 	stmdbcs	r5!, {r0, r1, r2, r3, r4, r6, r8, r9, sl, fp, ip, lr}^
    4ed8:	28203f20 	stmdacs	r0!, {r5, r8, r9, sl, fp, ip, sp}
    4edc:	64696f76 	strbtvs	r6, [r9], #-3958	; 0xfffff08a
    4ee0:	3a203029 	bcc	810f8c <_Min_Stack_Size+0x810b8c>
    4ee4:	615f5f20 	cmpvs	pc, r0, lsr #30
    4ee8:	72657373 	rsbvc	r7, r5, #-872415231	; 0xcc000001
    4eec:	75665f74 	strbvc	r5, [r6, #-3956]!	; 0xfffff08c
    4ef0:	2820636e 	stmdacs	r0!, {r1, r2, r3, r5, r6, r8, r9, sp, lr}
    4ef4:	49465f5f 	stmdbmi	r6, {r0, r1, r2, r3, r4, r6, r8, r9, sl, fp, ip, lr}^
    4ef8:	5f5f454c 	svcpl	0x005f454c
    4efc:	5f5f202c 	svcpl	0x005f202c
    4f00:	454e494c 	strbmi	r4, [lr, #-2380]	; 0xfffff6b4
    4f04:	202c5f5f 	eorcs	r5, ip, pc, asr pc
    4f08:	53415f5f 	movtpl	r5, #8031	; 0x1f5f
    4f0c:	54524553 	ldrbpl	r4, [r2], #-1363	; 0xfffffaad
    4f10:	4e55465f 	mrcmi	6, 2, r4, cr5, cr15, {2}
    4f14:	23202c43 			; <UNDEFINED> instruction: 0x23202c43
    4f18:	29655f5f 	stmdbcs	r5!, {r0, r1, r2, r3, r4, r6, r8, r9, sl, fp, ip, lr}^
    4f1c:	5f5f0029 	svcpl	0x005f0029
    4f20:	464c4c55 			; <UNDEFINED> instruction: 0x464c4c55
    4f24:	54434152 	strbpl	r4, [r3], #-338	; 0xfffffeae
    4f28:	4942495f 	stmdbmi	r2, {r0, r1, r2, r3, r4, r6, r8, fp, lr}^
    4f2c:	205f5f54 	subscs	r5, pc, r4, asr pc	; <UNPREDICTABLE>
    4f30:	564e0030 			; <UNDEFINED> instruction: 0x564e0030
    4f34:	495f4349 	ldmdbmi	pc, {r0, r3, r6, r8, r9, lr}^	; <UNPREDICTABLE>
    4f38:	31524543 	cmpcc	r2, r3, asr #10
    4f3c:	76282a20 	strtvc	r2, [r8], -r0, lsr #20
    4f40:	74616c6f 	strbtvc	r6, [r1], #-3183	; 0xfffff391
    4f44:	20656c69 	rsbcs	r6, r5, r9, ror #24
    4f48:	746e6975 	strbtvc	r6, [lr], #-2421	; 0xfffff68b
    4f4c:	745f3233 	ldrbvc	r3, [pc], #-563	; 4f54 <_Min_Stack_Size+0x4b54>
    4f50:	28292a20 	stmdacs	r9!, {r5, r9, fp, sp}
    4f54:	4349564e 	movtmi	r5, #38478	; 0x964e
    4f58:	5341425f 	movtpl	r4, #4703	; 0x125f
    4f5c:	202b2045 	eorcs	r2, fp, r5, asr #32
    4f60:	34387830 	ldrtcc	r7, [r8], #-2096	; 0xfffff7d0
    4f64:	415f0029 	cmpmi	pc, r9, lsr #32
    4f68:	5f49534e 	svcpl	0x0049534e
    4f6c:	44445453 	strbmi	r5, [r4], #-1107	; 0xfffffbad
    4f70:	485f4645 	ldmdami	pc, {r0, r2, r6, r9, sl, lr}^	; <UNPREDICTABLE>
    4f74:	32490020 	subcc	r0, r9, #32
    4f78:	52435f43 	subpl	r5, r3, #268	; 0x10c
    4f7c:	45505f31 	ldrbmi	r5, [r0, #-3889]	; 0xfffff0cf
    4f80:	736f505f 	cmnvc	pc, #95	; 0x5f
    4f84:	55302820 	ldrpl	r2, [r0, #-2080]!	; 0xfffff7e0
    4f88:	5f5f0029 	svcpl	0x005f0029
    4f8c:	6c697562 	cfstr64vs	mvdx7, [r9], #-392	; 0xfffffe78
    4f90:	5f6e6974 	svcpl	0x006e6974
    4f94:	67696c61 	strbvs	r6, [r9, -r1, ror #24]!
    4f98:	70755f6e 	rsbsvc	r5, r5, lr, ror #30
    4f9c:	612c7828 			; <UNDEFINED> instruction: 0x612c7828
    4fa0:	6e67696c 	vnmulvs.f16	s13, s14, s25	; <UNPREDICTABLE>
    4fa4:	28282029 	stmdacs	r8!, {r0, r3, r5, sp}
    4fa8:	79745f5f 	ldmdbvc	r4!, {r0, r1, r2, r3, r4, r6, r8, r9, sl, fp, ip, lr}^
    4fac:	666f6570 			; <UNDEFINED> instruction: 0x666f6570
    4fb0:	78285f5f 	stmdavc	r8!, {r0, r1, r2, r3, r4, r6, r8, r9, sl, fp, ip, lr}
    4fb4:	28282929 	stmdacs	r8!, {r0, r3, r5, r8, fp, sp}
    4fb8:	755f5f28 	ldrbvc	r5, [pc, #-3880]	; 4098 <_Min_Stack_Size+0x3c98>
    4fbc:	70746e69 	rsbsvc	r6, r4, r9, ror #28
    4fc0:	745f7274 	ldrbvc	r7, [pc], #-628	; 4fc8 <_Min_Stack_Size+0x4bc8>
    4fc4:	29782829 	ldmdbcs	r8!, {r0, r3, r5, fp, sp}^
    4fc8:	6128282b 			; <UNDEFINED> instruction: 0x6128282b
    4fcc:	6e67696c 	vnmulvs.f16	s13, s14, s25	; <UNPREDICTABLE>
    4fd0:	29312d29 	ldmdbcs	r1!, {r0, r3, r5, r8, sl, fp, sp}
    4fd4:	7e282629 	cfmadda32vc	mvax1, mvax2, mvfx8, mvfx9
    4fd8:	6c612828 	stclvs	8, cr2, [r1], #-160	; 0xffffff60
    4fdc:	296e6769 	stmdbcs	lr!, {r0, r3, r5, r6, r8, r9, sl, sp, lr}^
    4fe0:	2929312d 	stmdbcs	r9!, {r0, r2, r3, r5, r8, ip, sp}
    4fe4:	5f002929 	svcpl	0x00002929
    4fe8:	554e475f 	strbpl	r4, [lr, #-1887]	; 0xfffff8a1
    4fec:	205f5f43 	subscs	r5, pc, r3, asr #30
    4ff0:	49003131 	stmdbmi	r0, {r0, r4, r5, r8, ip, sp}
    4ff4:	535f4332 	cmppl	pc, #-939524096	; 0xc8000000
    4ff8:	535f3252 	cmppl	pc, #536870917	; 0x20000005
    4ffc:	4f48424d 	svcmi	0x0048424d
    5000:	4d5f5453 	cfldrdmi	mvd5, [pc, #-332]	; 4ebc <_Min_Stack_Size+0x4abc>
    5004:	28206b73 	stmdacs	r0!, {r0, r1, r4, r5, r6, r8, r9, fp, sp, lr}
    5008:	55317830 	ldrpl	r7, [r1, #-2096]!	; 0xfffff7d0
    500c:	3c3c204c 	ldccc	0, cr2, [ip], #-304	; 0xfffffed0
    5010:	43324920 	teqmi	r2, #32, 18	; 0x80000
    5014:	3252535f 	subscc	r5, r2, #2080374785	; 0x7c000001
    5018:	424d535f 	submi	r5, sp, #2080374785	; 0x7c000001
    501c:	54534f48 	ldrbpl	r4, [r3], #-3912	; 0xfffff0b8
    5020:	736f505f 	cmnvc	pc, #95	; 0x5f
    5024:	32490029 	subcc	r0, r9, #41	; 0x29
    5028:	52435f43 	subpl	r5, r3, #268	; 0x10c
    502c:	54495f32 	strbpl	r5, [r9], #-3890	; 0xfffff0ce
    5030:	45545645 	ldrbmi	r5, [r4, #-1605]	; 0xfffff9bb
    5034:	6f505f4e 	svcvs	0x00505f4e
    5038:	39282073 	stmdbcc	r8!, {r0, r1, r4, r5, r6, sp}
    503c:	5f002955 	svcpl	0x00002955
    5040:	4e454552 	mcrmi	5, 2, r4, cr5, cr2, {2}
    5044:	43575f54 	cmpmi	r7, #84, 30	; 0x150
    5048:	4d4f5452 	cfstrdmi	mvd5, [pc, #-328]	; 4f08 <_Min_Stack_Size+0x4b08>
    504c:	54535f42 	ldrbpl	r5, [r3], #-3906	; 0xfffff0be
    5050:	28455441 	stmdacs	r5, {r0, r6, sl, ip, lr}^
    5054:	29727470 	ldmdbcs	r2!, {r4, r5, r6, sl, ip, sp, lr}^
    5058:	70282820 	eorvc	r2, r8, r0, lsr #16
    505c:	2d297274 	sfmcs	f7, 4, [r9, #-464]!	; 0xfffffe30
    5060:	696d5f3e 	stmdbvs	sp!, {r1, r2, r3, r4, r5, r8, r9, sl, fp, ip, lr}^
    5064:	3e2d6373 	mcrcc	3, 1, r6, cr13, cr3, {3}
    5068:	7263775f 	rsbvc	r7, r3, #24903680	; 0x17c0000
    506c:	626d6f74 	rsbvs	r6, sp, #116, 30	; 0x1d0
    5070:	6174735f 	cmnvs	r4, pc, asr r3
    5074:	00296574 	eoreq	r6, r9, r4, ror r5
    5078:	6c615f5f 	stclvs	15, cr5, [r1], #-380	; 0xfffffe84
    507c:	5f636f6c 	svcpl	0x00636f6c
    5080:	657a6973 	ldrbvs	r6, [sl, #-2419]!	; 0xfffff68d
    5084:	20297828 	eorcs	r7, r9, r8, lsr #16
    5088:	74615f5f 	strbtvc	r5, [r1], #-3935	; 0xfffff0a1
    508c:	62697274 	rsbvs	r7, r9, #116, 4	; 0x40000007
    5090:	5f657475 	svcpl	0x00657475
    5094:	5f28285f 	svcpl	0x0028285f
    5098:	6c6c615f 	stfvse	f6, [ip], #-380	; 0xfffffe84
    509c:	735f636f 	cmpvc	pc, #-1140850687	; 0xbc000001
    50a0:	5f657a69 	svcpl	0x00657a69
    50a4:	2978285f 	ldmdbcs	r8!, {r0, r1, r2, r3, r4, r6, fp, sp}^
    50a8:	5f002929 	svcpl	0x00002929
    50ac:	4e4f4c5f 	mcrmi	12, 2, r4, cr15, cr15, {2}
    50b0:	49575f47 	ldmdbmi	r7, {r0, r1, r2, r6, r8, r9, sl, fp, ip, lr}^
    50b4:	5f485444 	svcpl	0x00485444
    50b8:	3233205f 	eorscc	r2, r3, #95	; 0x5f
    50bc:	5f545f00 	svcpl	0x00545f00
    50c0:	41484357 	cmpmi	r8, r7, asr r3
    50c4:	00205f52 	eoreq	r5, r0, r2, asr pc
    50c8:	41555f5f 	cmpmi	r5, pc, asr pc
    50cc:	4d554343 	ldclmi	3, cr4, [r5, #-268]	; 0xfffffef4
    50d0:	4942465f 	stmdbmi	r2, {r0, r1, r2, r3, r4, r6, r9, sl, lr}^
    50d4:	205f5f54 	subscs	r5, pc, r4, asr pc	; <UNPREDICTABLE>
    50d8:	5f003631 	svcpl	0x00003631
    50dc:	7261775f 	rsbvc	r7, r1, #24903680	; 0x17c0000
    50e0:	65725f6e 	ldrbvs	r5, [r2, #-3950]!	; 0xfffff092
    50e4:	65726566 	ldrbvs	r6, [r2, #-1382]!	; 0xfffffa9a
    50e8:	7365636e 	cmnvc	r5, #-1207959551	; 0xb8000001
    50ec:	6d797328 	ldclvs	3, cr7, [r9, #-160]!	; 0xffffff60
    50f0:	67736d2c 	ldrbvs	r6, [r3, -ip, lsr #26]!
    50f4:	5f5f2029 	svcpl	0x005f2029
    50f8:	5f6d7361 	svcpl	0x006d7361
    50fc:	2e22285f 	mcrcs	8, 1, r2, cr2, cr15, {2}
    5100:	74636573 	strbtvc	r6, [r3], #-1395	; 0xfffffa8d
    5104:	206e6f69 	rsbcs	r6, lr, r9, ror #30
    5108:	756e672e 	strbvc	r6, [lr, #-1838]!	; 0xfffff8d2
    510c:	7261772e 	rsbvc	r7, r1, #12058624	; 0xb80000
    5110:	676e696e 	strbvs	r6, [lr, -lr, ror #18]!
    5114:	2320222e 			; <UNDEFINED> instruction: 0x2320222e
    5118:	296d7973 	stmdbcs	sp!, {r0, r1, r4, r5, r6, r8, fp, ip, sp, lr}^
    511c:	5f5f203b 	svcpl	0x005f203b
    5120:	5f6d7361 	svcpl	0x006d7361
    5124:	2e22285f 	mcrcs	8, 1, r2, cr2, cr15, {2}
    5128:	69637361 	stmdbvs	r3!, {r0, r5, r6, r8, r9, ip, sp, lr}^
    512c:	225c207a 	subscs	r2, ip, #122	; 0x7a
    5130:	736d2022 	cmnvc	sp, #34	; 0x22
    5134:	5c222067 	stcpl	0, cr2, [r2], #-412	; 0xfffffe64
    5138:	3b292222 	blcc	a4d9c8 <_Min_Stack_Size+0xa4d5c8>
    513c:	615f5f20 	cmpvs	pc, r0, lsr #30
    5140:	5f5f6d73 	svcpl	0x005f6d73
    5144:	702e2228 	eorvc	r2, lr, r8, lsr #4
    5148:	69766572 	ldmdbvs	r6!, {r1, r4, r5, r6, r8, sl, sp, lr}^
    514c:	2273756f 	rsbscs	r7, r3, #465567744	; 0x1bc00000
    5150:	50470029 	subpl	r0, r7, r9, lsr #32
    5154:	505f4f49 	subspl	r4, pc, r9, asr #30
    5158:	315f4e49 	cmpcc	pc, r9, asr #28
    515c:	28282033 	stmdacs	r8!, {r0, r1, r4, r5, sp}
    5160:	746e6975 	strbtvc	r6, [lr], #-2421	; 0xfffff68b
    5164:	745f3631 	ldrbvc	r3, [pc], #-1585	; 516c <_Min_Stack_Size+0x4d6c>
    5168:	32783029 	rsbscc	r3, r8, #41	; 0x29
    516c:	29303030 	ldmdbcs	r0!, {r4, r5, ip, sp}
    5170:	555f5f00 	ldrbpl	r5, [pc, #-3840]	; 4278 <_Min_Stack_Size+0x3e78>
    5174:	43415246 	movtmi	r5, #4678	; 0x1246
    5178:	50455f54 	subpl	r5, r5, r4, asr pc
    517c:	4f4c4953 	svcmi	0x004c4953
    5180:	205f5f4e 	subscs	r5, pc, lr, asr #30
    5184:	50317830 	eorspl	r7, r1, r0, lsr r8
    5188:	5536312d 	ldrpl	r3, [r6, #-301]!	; 0xfffffed3
    518c:	5f5f0052 	svcpl	0x005f0052
    5190:	41484357 	cmpmi	r8, r7, asr r3
    5194:	494d5f52 	stmdbmi	sp, {r1, r4, r6, r8, r9, sl, fp, ip, lr}^
    5198:	205f5f4e 	subscs	r5, pc, lr, asr #30
    519c:	4d005530 	cfstr32mi	mvfx5, [r0, #-192]	; 0xffffff40
    51a0:	5f4c4143 	svcpl	0x004c4143
    51a4:	49545845 	ldmdbmi	r4, {r0, r2, r6, fp, ip, lr}^
    51a8:	4950475f 	ldmdbmi	r0, {r0, r1, r2, r3, r4, r6, r8, r9, sl, lr}^
    51ac:	6e495f4f 	cdpvs	15, 4, cr5, cr9, cr15, {2}
    51b0:	5f007469 	svcpl	0x00007469
    51b4:	5151555f 	cmppl	r1, pc, asr r5
    51b8:	4942495f 	stmdbmi	r2, {r0, r1, r2, r3, r4, r6, r8, fp, lr}^
    51bc:	205f5f54 	subscs	r5, pc, r4, asr pc	; <UNPREDICTABLE>
    51c0:	4e5f0030 	mrcmi	0, 2, r0, cr15, cr0, {1}
    51c4:	494c5745 	stmdbmi	ip, {r0, r2, r6, r8, r9, sl, ip, lr}^
    51c8:	45565f42 	ldrbmi	r5, [r6, #-3906]	; 0xfffff0be
    51cc:	4f495352 	svcmi	0x00495352
    51d0:	5f485f4e 	svcpl	0x00485f4e
    51d4:	0031205f 	eorseq	r2, r1, pc, asr r0
    51d8:	43475f5f 	movtmi	r5, #32607	; 0x7f5f
    51dc:	54415f43 	strbpl	r5, [r1], #-3907	; 0xfffff0bd
    51e0:	43494d4f 	movtmi	r4, #40271	; 0x9d4f
    51e4:	4e4f4c5f 	mcrmi	12, 2, r4, cr15, cr15, {2}
    51e8:	4f4c5f47 	svcmi	0x004c5f47
    51ec:	465f4b43 	ldrbmi	r4, [pc], -r3, asr #22
    51f0:	20454552 	subcs	r4, r5, r2, asr r5
    51f4:	5f5f0032 	svcpl	0x005f0032
    51f8:	43414c55 	movtmi	r4, #7253	; 0x1c55
    51fc:	5f4d5543 	svcpl	0x004d5543
    5200:	5f4e494d 	svcpl	0x004e494d
    5204:	2e30205f 	mrccs	0, 1, r2, cr0, cr15, {2}
    5208:	4b4c5530 	blmi	131a6d0 <_Min_Stack_Size+0x131a2d0>
    520c:	54415f00 	strbpl	r5, [r1], #-3840	; 0xfffff100
    5210:	54495845 	strbpl	r5, [r9], #-2117	; 0xfffff7bb
    5214:	4e59445f 	mrcmi	4, 2, r4, cr9, cr15, {2}
    5218:	43494d41 	movtmi	r4, #40257	; 0x9d41
    521c:	4c4c415f 	stfmie	f4, [ip], {95}	; 0x5f
    5220:	3120434f 			; <UNDEFINED> instruction: 0x3120434f
    5224:	6e5f5f00 	cdpvs	15, 5, cr5, cr15, cr0, {0}
    5228:	5f646565 	svcpl	0x00646565
    522c:	657a6973 	ldrbvs	r6, [sl, #-2419]!	; 0xfffff68d
    5230:	5f00745f 	svcpl	0x0000745f
    5234:	42444c5f 	submi	r4, r4, #24320	; 0x5f00
    5238:	414d5f4c 	cmpmi	sp, ip, asr #30
    523c:	205f5f58 	subscs	r5, pc, r8, asr pc	; <UNPREDICTABLE>
    5240:	39372e31 	ldmdbcc	r7!, {r0, r4, r5, r9, sl, fp, sp}
    5244:	33393637 	teqcc	r9, #57671680	; 0x3700000
    5248:	38343331 	ldmdacc	r4!, {r0, r4, r5, r8, r9, ip, sp}
    524c:	31333236 	teqcc	r3, r6, lsr r2
    5250:	2b653735 	blcs	1952f2c <_Min_Stack_Size+0x1952b2c>
    5254:	4c383033 	ldcmi	0, cr3, [r8], #-204	; 0xffffff34
    5258:	415f5f00 	cmpmi	pc, r0, lsl #30
    525c:	415f4d52 	cmpmi	pc, r2, asr sp	; <UNPREDICTABLE>
    5260:	20484352 	subcs	r4, r8, r2, asr r3
    5264:	32490037 	subcc	r0, r9, #55	; 0x37
    5268:	52435f43 	subpl	r5, r3, #268	; 0x10c
    526c:	54495f32 	strbpl	r5, [r9], #-3890	; 0xfffff0ce
    5270:	45545645 	ldrbmi	r5, [r4, #-1605]	; 0xfffff9bb
    5274:	734d5f4e 	movtvc	r5, #57166	; 0xdf4e
    5278:	3028206b 	eorcc	r2, r8, fp, rrx
    527c:	4c553178 	ldfmie	f3, [r5], {120}	; 0x78
    5280:	203c3c20 	eorscs	r3, ip, r0, lsr #24
    5284:	5f433249 	svcpl	0x00433249
    5288:	5f325243 	svcpl	0x00325243
    528c:	56455449 	strbpl	r5, [r5], -r9, asr #8
    5290:	5f4e4554 	svcpl	0x004e4554
    5294:	29736f50 	ldmdbcs	r3!, {r4, r6, r8, r9, sl, fp, sp, lr}^
    5298:	49504700 	ldmdbmi	r0, {r8, r9, sl, lr}^
    529c:	49505f4f 	ldmdbmi	r0, {r0, r1, r2, r3, r6, r8, r9, sl, fp, ip, lr}^
    52a0:	20325f4e 	eorscs	r5, r2, lr, asr #30
    52a4:	69752828 	ldmdbvs	r5!, {r3, r5, fp, sp}^
    52a8:	3631746e 	ldrtcc	r7, [r1], -lr, ror #8
    52ac:	3029745f 	eorcc	r7, r9, pc, asr r4
    52b0:	30303078 	eorscc	r3, r0, r8, ror r0
    52b4:	5f002934 	svcpl	0x00002934
    52b8:	544c465f 	strbpl	r4, [ip], #-1631	; 0xfffff9a1
    52bc:	4441525f 	strbmi	r5, [r1], #-607	; 0xfffffda1
    52c0:	5f5f5849 	svcpl	0x005f5849
    52c4:	5f003220 	svcpl	0x00003220
    52c8:	4e454552 	mcrmi	5, 2, r4, cr5, cr2, {2}
    52cc:	54535f54 	ldrbpl	r5, [r3], #-3924	; 0xfffff0ac
    52d0:	52524544 	subspl	r4, r2, #68, 10	; 0x11000000
    52d4:	74705f28 	ldrbtvc	r5, [r0], #-3880	; 0xfffff0d8
    52d8:	28202972 	stmdacs	r0!, {r1, r4, r5, r6, r8, fp, sp}
    52dc:	74705f28 	ldrbtvc	r5, [r0], #-3880	; 0xfffff0d8
    52e0:	3e2d2972 			; <UNDEFINED> instruction: 0x3e2d2972
    52e4:	6474735f 	ldrbtvs	r7, [r4], #-863	; 0xfffffca1
    52e8:	29727265 	ldmdbcs	r2!, {r0, r2, r5, r6, r9, ip, sp, lr}^
    52ec:	544e4900 	strbpl	r4, [lr], #-2304	; 0xfffff700
    52f0:	4d5f3436 	cfldrdmi	mvd3, [pc, #-216]	; 5220 <_Min_Stack_Size+0x4e20>
    52f4:	28205841 	stmdacs	r0!, {r0, r6, fp, ip, lr}
    52f8:	4e495f5f 	mcrmi	15, 2, r5, cr9, cr15, {2}
    52fc:	5f343654 	svcpl	0x00343654
    5300:	5f58414d 	svcpl	0x0058414d
    5304:	5f00295f 	svcpl	0x0000295f
    5308:	4d52415f 	ldfmie	f4, [r2, #-380]	; 0xfffffe84
    530c:	4145465f 	cmpmi	r5, pc, asr r6
    5310:	45525554 	ldrbmi	r5, [r2, #-1364]	; 0xfffffaac
    5314:	534d435f 	movtpl	r4, #54111	; 0xd35f
    5318:	5f5f0045 	svcpl	0x005f0045
    531c:	4343414c 	movtmi	r4, #12620	; 0x314c
    5320:	455f4d55 	ldrbmi	r4, [pc, #-3413]	; 45d3 <_Min_Stack_Size+0x41d3>
    5324:	4c495350 	mcrrmi	3, 5, r5, r9, cr0
    5328:	5f5f4e4f 	svcpl	0x005f4e4f
    532c:	31783020 	cmncc	r8, r0, lsr #32
    5330:	31332d50 	teqcc	r3, r0, asr sp
    5334:	5f004b4c 	svcpl	0x00004b4c
    5338:	6863775f 	stmdavs	r3!, {r0, r1, r2, r3, r4, r6, r8, r9, sl, ip, sp, lr}^
    533c:	745f7261 	ldrbvc	r7, [pc], #-609	; 5344 <_Min_Stack_Size+0x4f44>
    5340:	00205f5f 	eoreq	r5, r0, pc, asr pc
    5344:	4545525f 	strbmi	r5, [r5, #-607]	; 0xfffffda1
    5348:	495f544e 	ldmdbmi	pc, {r1, r2, r3, r6, sl, ip, lr}^	; <UNPREDICTABLE>
    534c:	5f54494e 	svcpl	0x0054494e
    5350:	4353494d 	cmpmi	r3, #1261568	; 0x134000
    5354:	72617628 	rsbvc	r7, r1, #40, 12	; 0x2800000
    5358:	6f642029 	svcvs	0x00642029
    535c:	73207b20 			; <UNDEFINED> instruction: 0x73207b20
    5360:	63757274 	cmnvs	r5, #116, 4	; 0x40000007
    5364:	725f2074 	subsvc	r2, pc, #116	; 0x74
    5368:	746e6565 	strbtvc	r6, [lr], #-1381	; 0xfffffa9b
    536c:	725f2a20 	subsvc	r2, pc, #32, 20	; 0x20000
    5370:	28203d20 	stmdacs	r0!, {r5, r8, sl, fp, ip, sp}
    5374:	29726176 	ldmdbcs	r2!, {r1, r2, r4, r5, r6, r8, sp, lr}^
    5378:	725f203b 	subsvc	r2, pc, #59	; 0x3b
    537c:	6d5f3e2d 	ldclvs	14, cr3, [pc, #-180]	; 52d0 <_Min_Stack_Size+0x4ed0>
    5380:	2d637369 	stclcs	3, cr7, [r3, #-420]!	; 0xfffffe5c
    5384:	74735f3e 	ldrbtvc	r5, [r3], #-3902	; 0xfffff0c2
    5388:	6b6f7472 	blvs	1be2558 <_Min_Stack_Size+0x1be2158>
    538c:	73616c5f 	cmnvc	r1, #24320	; 0x5f00
    5390:	203d2074 	eorscs	r2, sp, r4, ror r0
    5394:	4c554e5f 	mrrcmi	14, 5, r4, r5, cr15
    5398:	5f203b4c 	svcpl	0x00203b4c
    539c:	5f3e2d72 	svcpl	0x003e2d72
    53a0:	6373696d 	cmnvs	r3, #1785856	; 0x1b4000
    53a4:	6d5f3e2d 	ldclvs	14, cr3, [pc, #-180]	; 52f8 <_Min_Stack_Size+0x4ef8>
    53a8:	6e656c62 	cdpvs	12, 6, cr6, cr5, cr2, {3}
    53ac:	6174735f 	cmnvs	r4, pc, asr r3
    53b0:	5f2e6574 	svcpl	0x002e6574
    53b4:	756f635f 	strbvc	r6, [pc, #-863]!	; 505d <_Min_Stack_Size+0x4c5d>
    53b8:	3d20746e 	cfstrscc	mvf7, [r0, #-440]!	; 0xfffffe48
    53bc:	203b3020 	eorscs	r3, fp, r0, lsr #32
    53c0:	3e2d725f 	mcrcc	2, 1, r7, cr13, cr15, {2}
    53c4:	73696d5f 	cmnvc	r9, #6080	; 0x17c0
    53c8:	5f3e2d63 	svcpl	0x003e2d63
    53cc:	656c626d 	strbvs	r6, [ip, #-621]!	; 0xfffffd93
    53d0:	74735f6e 	ldrbtvc	r5, [r3], #-3950	; 0xfffff092
    53d4:	2e657461 	cdpcs	4, 6, cr7, cr5, cr1, {3}
    53d8:	61765f5f 	cmnvs	r6, pc, asr pc
    53dc:	2e65756c 	cdpcs	5, 6, cr7, cr5, cr12, {3}
    53e0:	63775f5f 	cmnvs	r7, #380	; 0x17c
    53e4:	203d2068 	eorscs	r2, sp, r8, rrx
    53e8:	5f203b30 	svcpl	0x00203b30
    53ec:	5f3e2d72 	svcpl	0x003e2d72
    53f0:	6373696d 	cmnvs	r3, #1785856	; 0x1b4000
    53f4:	775f3e2d 	ldrbvc	r3, [pc, -sp, lsr #28]
    53f8:	6d6f7463 	cfstrdvs	mvd7, [pc, #-396]!	; 5274 <_Min_Stack_Size+0x4e74>
    53fc:	74735f62 	ldrbtvc	r5, [r3], #-3938	; 0xfffff09e
    5400:	2e657461 	cdpcs	4, 6, cr7, cr5, cr1, {3}
    5404:	6f635f5f 	svcvs	0x00635f5f
    5408:	20746e75 	rsbscs	r6, r4, r5, ror lr
    540c:	3b30203d 	blcc	c0d508 <_Min_Stack_Size+0xc0d108>
    5410:	2d725f20 	ldclcs	15, cr5, [r2, #-128]!	; 0xffffff80
    5414:	696d5f3e 	stmdbvs	sp!, {r1, r2, r3, r4, r5, r8, r9, sl, fp, ip, lr}^
    5418:	3e2d6373 	mcrcc	3, 1, r6, cr13, cr3, {3}
    541c:	7463775f 	strbtvc	r7, [r3], #-1887	; 0xfffff8a1
    5420:	5f626d6f 	svcpl	0x00626d6f
    5424:	74617473 	strbtvc	r7, [r1], #-1139	; 0xfffffb8d
    5428:	5f5f2e65 	svcpl	0x005f2e65
    542c:	756c6176 	strbvc	r6, [ip, #-374]!	; 0xfffffe8a
    5430:	5f5f2e65 	svcpl	0x005f2e65
    5434:	20686377 	rsbcs	r6, r8, r7, ror r3
    5438:	3b30203d 	blcc	c0d534 <_Min_Stack_Size+0xc0d134>
    543c:	2d725f20 	ldclcs	15, cr5, [r2, #-128]!	; 0xffffff80
    5440:	696d5f3e 	stmdbvs	sp!, {r1, r2, r3, r4, r5, r8, r9, sl, fp, ip, lr}^
    5444:	3e2d6373 	mcrcc	3, 1, r6, cr13, cr3, {3}
    5448:	74626d5f 	strbtvc	r6, [r2], #-3423	; 0xfffff2a1
    544c:	5f63776f 	svcpl	0x0063776f
    5450:	74617473 	strbtvc	r7, [r1], #-1139	; 0xfffffb8d
    5454:	5f5f2e65 	svcpl	0x005f2e65
    5458:	6e756f63 	cdpvs	15, 7, cr6, cr5, cr3, {3}
    545c:	203d2074 	eorscs	r2, sp, r4, ror r0
    5460:	5f203b30 	svcpl	0x00203b30
    5464:	5f3e2d72 	svcpl	0x003e2d72
    5468:	6373696d 	cmnvs	r3, #1785856	; 0x1b4000
    546c:	6d5f3e2d 	ldclvs	14, cr3, [pc, #-180]	; 53c0 <_Min_Stack_Size+0x4fc0>
    5470:	776f7462 	strbvc	r7, [pc, -r2, ror #8]!
    5474:	74735f63 	ldrbtvc	r5, [r3], #-3939	; 0xfffff09d
    5478:	2e657461 	cdpcs	4, 6, cr7, cr5, cr1, {3}
    547c:	61765f5f 	cmnvs	r6, pc, asr pc
    5480:	2e65756c 	cdpcs	5, 6, cr7, cr5, cr12, {3}
    5484:	63775f5f 	cmnvs	r7, #380	; 0x17c
    5488:	203d2068 	eorscs	r2, sp, r8, rrx
    548c:	5f203b30 	svcpl	0x00203b30
    5490:	5f3e2d72 	svcpl	0x003e2d72
    5494:	6373696d 	cmnvs	r3, #1785856	; 0x1b4000
    5498:	6d5f3e2d 	ldclvs	14, cr3, [pc, #-180]	; 53ec <_Min_Stack_Size+0x4fec>
    549c:	656c7262 	strbvs	r7, [ip, #-610]!	; 0xfffffd9e
    54a0:	74735f6e 	ldrbtvc	r5, [r3], #-3950	; 0xfffff092
    54a4:	2e657461 	cdpcs	4, 6, cr7, cr5, cr1, {3}
    54a8:	6f635f5f 	svcvs	0x00635f5f
    54ac:	20746e75 	rsbscs	r6, r4, r5, ror lr
    54b0:	3b30203d 	blcc	c0d5ac <_Min_Stack_Size+0xc0d1ac>
    54b4:	2d725f20 	ldclcs	15, cr5, [r2, #-128]!	; 0xffffff80
    54b8:	696d5f3e 	stmdbvs	sp!, {r1, r2, r3, r4, r5, r8, r9, sl, fp, ip, lr}^
    54bc:	3e2d6373 	mcrcc	3, 1, r6, cr13, cr3, {3}
    54c0:	72626d5f 	rsbvc	r6, r2, #6080	; 0x17c0
    54c4:	5f6e656c 	svcpl	0x006e656c
    54c8:	74617473 	strbtvc	r7, [r1], #-1139	; 0xfffffb8d
    54cc:	5f5f2e65 	svcpl	0x005f2e65
    54d0:	756c6176 	strbvc	r6, [ip, #-374]!	; 0xfffffe8a
    54d4:	5f5f2e65 	svcpl	0x005f2e65
    54d8:	20686377 	rsbcs	r6, r8, r7, ror r3
    54dc:	3b30203d 	blcc	c0d5d8 <_Min_Stack_Size+0xc0d1d8>
    54e0:	2d725f20 	ldclcs	15, cr5, [r2, #-128]!	; 0xffffff80
    54e4:	696d5f3e 	stmdbvs	sp!, {r1, r2, r3, r4, r5, r8, r9, sl, fp, ip, lr}^
    54e8:	3e2d6373 	mcrcc	3, 1, r6, cr13, cr3, {3}
    54ec:	72626d5f 	rsbvc	r6, r2, #6080	; 0x17c0
    54f0:	63776f74 	cmnvs	r7, #116, 30	; 0x1d0
    54f4:	6174735f 	cmnvs	r4, pc, asr r3
    54f8:	5f2e6574 	svcpl	0x002e6574
    54fc:	756f635f 	strbvc	r6, [pc, #-863]!	; 51a5 <_Min_Stack_Size+0x4da5>
    5500:	3d20746e 	cfstrscc	mvf7, [r0, #-440]!	; 0xfffffe48
    5504:	203b3020 	eorscs	r3, fp, r0, lsr #32
    5508:	3e2d725f 	mcrcc	2, 1, r7, cr13, cr15, {2}
    550c:	73696d5f 	cmnvc	r9, #6080	; 0x17c0
    5510:	5f3e2d63 	svcpl	0x003e2d63
    5514:	7472626d 	ldrbtvc	r6, [r2], #-621	; 0xfffffd93
    5518:	5f63776f 	svcpl	0x0063776f
    551c:	74617473 	strbtvc	r7, [r1], #-1139	; 0xfffffb8d
    5520:	5f5f2e65 	svcpl	0x005f2e65
    5524:	756c6176 	strbvc	r6, [ip, #-374]!	; 0xfffffe8a
    5528:	5f5f2e65 	svcpl	0x005f2e65
    552c:	20686377 	rsbcs	r6, r8, r7, ror r3
    5530:	3b30203d 	blcc	c0d62c <_Min_Stack_Size+0xc0d22c>
    5534:	2d725f20 	ldclcs	15, cr5, [r2, #-128]!	; 0xffffff80
    5538:	696d5f3e 	stmdbvs	sp!, {r1, r2, r3, r4, r5, r8, r9, sl, fp, ip, lr}^
    553c:	3e2d6373 	mcrcc	3, 1, r6, cr13, cr3, {3}
    5540:	73626d5f 	cmnvc	r2, #6080	; 0x17c0
    5544:	776f7472 			; <UNDEFINED> instruction: 0x776f7472
    5548:	735f7363 	cmpvc	pc, #-1946157055	; 0x8c000001
    554c:	65746174 	ldrbvs	r6, [r4, #-372]!	; 0xfffffe8c
    5550:	635f5f2e 	cmpvs	pc, #46, 30	; 0xb8
    5554:	746e756f 	strbtvc	r7, [lr], #-1391	; 0xfffffa91
    5558:	30203d20 	eorcc	r3, r0, r0, lsr #26
    555c:	725f203b 	subsvc	r2, pc, #59	; 0x3b
    5560:	6d5f3e2d 	ldclvs	14, cr3, [pc, #-180]	; 54b4 <_Min_Stack_Size+0x50b4>
    5564:	2d637369 	stclcs	3, cr7, [r3, #-420]!	; 0xfffffe5c
    5568:	626d5f3e 	rsbvs	r5, sp, #62, 30	; 0xf8
    556c:	6f747273 	svcvs	0x00747273
    5570:	5f736377 	svcpl	0x00736377
    5574:	74617473 	strbtvc	r7, [r1], #-1139	; 0xfffffb8d
    5578:	5f5f2e65 	svcpl	0x005f2e65
    557c:	756c6176 	strbvc	r6, [ip, #-374]!	; 0xfffffe8a
    5580:	5f5f2e65 	svcpl	0x005f2e65
    5584:	20686377 	rsbcs	r6, r8, r7, ror r3
    5588:	3b30203d 	blcc	c0d684 <_Min_Stack_Size+0xc0d284>
    558c:	2d725f20 	ldclcs	15, cr5, [r2, #-128]!	; 0xffffff80
    5590:	696d5f3e 	stmdbvs	sp!, {r1, r2, r3, r4, r5, r8, r9, sl, fp, ip, lr}^
    5594:	3e2d6373 	mcrcc	3, 1, r6, cr13, cr3, {3}
    5598:	7263775f 	rsbvc	r7, r3, #24903680	; 0x17c0000
    559c:	626d6f74 	rsbvs	r6, sp, #116, 30	; 0x1d0
    55a0:	6174735f 	cmnvs	r4, pc, asr r3
    55a4:	5f2e6574 	svcpl	0x002e6574
    55a8:	756f635f 	strbvc	r6, [pc, #-863]!	; 5251 <_Min_Stack_Size+0x4e51>
    55ac:	3d20746e 	cfstrscc	mvf7, [r0, #-440]!	; 0xfffffe48
    55b0:	203b3020 	eorscs	r3, fp, r0, lsr #32
    55b4:	3e2d725f 	mcrcc	2, 1, r7, cr13, cr15, {2}
    55b8:	73696d5f 	cmnvc	r9, #6080	; 0x17c0
    55bc:	5f3e2d63 	svcpl	0x003e2d63
    55c0:	74726377 	ldrbtvc	r6, [r2], #-887	; 0xfffffc89
    55c4:	5f626d6f 	svcpl	0x00626d6f
    55c8:	74617473 	strbtvc	r7, [r1], #-1139	; 0xfffffb8d
    55cc:	5f5f2e65 	svcpl	0x005f2e65
    55d0:	756c6176 	strbvc	r6, [ip, #-374]!	; 0xfffffe8a
    55d4:	5f5f2e65 	svcpl	0x005f2e65
    55d8:	20686377 	rsbcs	r6, r8, r7, ror r3
    55dc:	3b30203d 	blcc	c0d6d8 <_Min_Stack_Size+0xc0d2d8>
    55e0:	2d725f20 	ldclcs	15, cr5, [r2, #-128]!	; 0xffffff80
    55e4:	696d5f3e 	stmdbvs	sp!, {r1, r2, r3, r4, r5, r8, r9, sl, fp, ip, lr}^
    55e8:	3e2d6373 	mcrcc	3, 1, r6, cr13, cr3, {3}
    55ec:	7363775f 	cmnvc	r3, #24903680	; 0x17c0000
    55f0:	6d6f7472 	cfstrdvs	mvd7, [pc, #-456]!	; 5430 <_Min_Stack_Size+0x5030>
    55f4:	735f7362 	cmpvc	pc, #-2013265919	; 0x88000001
    55f8:	65746174 	ldrbvs	r6, [r4, #-372]!	; 0xfffffe8c
    55fc:	635f5f2e 	cmpvs	pc, #46, 30	; 0xb8
    5600:	746e756f 	strbtvc	r7, [lr], #-1391	; 0xfffffa91
    5604:	30203d20 	eorcc	r3, r0, r0, lsr #26
    5608:	725f203b 	subsvc	r2, pc, #59	; 0x3b
    560c:	6d5f3e2d 	ldclvs	14, cr3, [pc, #-180]	; 5560 <_Min_Stack_Size+0x5160>
    5610:	2d637369 	stclcs	3, cr7, [r3, #-420]!	; 0xfffffe5c
    5614:	63775f3e 	cmnvs	r7, #62, 30	; 0xf8
    5618:	6f747273 	svcvs	0x00747273
    561c:	5f73626d 	svcpl	0x0073626d
    5620:	74617473 	strbtvc	r7, [r1], #-1139	; 0xfffffb8d
    5624:	5f5f2e65 	svcpl	0x005f2e65
    5628:	756c6176 	strbvc	r6, [ip, #-374]!	; 0xfffffe8a
    562c:	5f5f2e65 	svcpl	0x005f2e65
    5630:	20686377 	rsbcs	r6, r8, r7, ror r3
    5634:	3b30203d 	blcc	c0d730 <_Min_Stack_Size+0xc0d330>
    5638:	2d725f20 	ldclcs	15, cr5, [r2, #-128]!	; 0xffffff80
    563c:	696d5f3e 	stmdbvs	sp!, {r1, r2, r3, r4, r5, r8, r9, sl, fp, ip, lr}^
    5640:	3e2d6373 	mcrcc	3, 1, r6, cr13, cr3, {3}
    5644:	34366c5f 	ldrtcc	r6, [r6], #-3167	; 0xfffff3a1
    5648:	75625f61 	strbvc	r5, [r2, #-3937]!	; 0xfffff09f
    564c:	5d305b66 	vldmdbpl	r0!, {d5-<overflow reg d55>}
    5650:	27203d20 	strcs	r3, [r0, -r0, lsr #26]!
    5654:	3b27305c 	blcc	9d17cc <_Min_Stack_Size+0x9d13cc>
    5658:	2d725f20 	ldclcs	15, cr5, [r2, #-128]!	; 0xffffff80
    565c:	696d5f3e 	stmdbvs	sp!, {r1, r2, r3, r4, r5, r8, r9, sl, fp, ip, lr}^
    5660:	3e2d6373 	mcrcc	3, 1, r6, cr13, cr3, {3}
    5664:	7465675f 	strbtvc	r6, [r5], #-1887	; 0xfffff8a1
    5668:	65746164 	ldrbvs	r6, [r4, #-356]!	; 0xfffffe9c
    566c:	7272655f 	rsbsvc	r6, r2, #398458880	; 0x17c00000
    5670:	30203d20 	eorcc	r3, r0, r0, lsr #26
    5674:	207d203b 	rsbscs	r2, sp, fp, lsr r0
    5678:	6c696877 	stclvs	8, cr6, [r9], #-476	; 0xfffffe24
    567c:	30282065 	eorcc	r2, r8, r5, rrx
    5680:	5f5f0029 	svcpl	0x005f0029
    5684:	474e4f4c 	strbmi	r4, [lr, -ip, asr #30]
    5688:	4e4f4c5f 	mcrmi	12, 2, r4, cr15, cr15, {2}
    568c:	49575f47 	ldmdbmi	r7, {r0, r1, r2, r6, r8, r9, sl, fp, ip, lr}^
    5690:	5f485444 	svcpl	0x00485444
    5694:	3436205f 	ldrtcc	r2, [r6], #-95	; 0xffffffa1
    5698:	49564e00 	ldmdbmi	r6, {r9, sl, fp, lr}^
    569c:	52495f43 	subpl	r5, r9, #268	; 0x10c
    56a0:	455f3651 	ldrbmi	r3, [pc, #-1617]	; 5057 <_Min_Stack_Size+0x4c57>
    56a4:	30495458 	subcc	r5, r9, r8, asr r4
    56a8:	616e455f 	cmnvs	lr, pc, asr r5
    56ac:	20656c62 	rsbcs	r6, r5, r2, ror #24
    56b0:	49564e28 	ldmdbmi	r6, {r3, r5, r9, sl, fp, lr}^
    56b4:	53495f43 	movtpl	r5, #40771	; 0x9f43
    56b8:	20305245 	eorscs	r5, r0, r5, asr #4
    56bc:	31203d7c 			; <UNDEFINED> instruction: 0x31203d7c
    56c0:	29363c3c 	ldmdbcs	r6!, {r2, r3, r4, r5, sl, fp, ip, sp}
    56c4:	4e495700 	cdpmi	7, 4, cr5, cr9, cr0, {0}
    56c8:	414d5f54 	cmpmi	sp, r4, asr pc
    56cc:	5f282058 	svcpl	0x00282058
    56d0:	4e49575f 	mcrmi	7, 2, r5, cr9, cr15, {2}
    56d4:	414d5f54 	cmpmi	sp, r4, asr pc
    56d8:	295f5f58 	ldmdbcs	pc, {r3, r4, r6, r8, r9, sl, fp, ip, lr}^	; <UNPREDICTABLE>
    56dc:	49504700 	ldmdbmi	r0, {r8, r9, sl, lr}^
    56e0:	49505f4f 	ldmdbmi	r0, {r0, r1, r2, r3, r6, r8, r9, sl, fp, ip, lr}^
    56e4:	30315f4e 	eorscc	r5, r1, lr, asr #30
    56e8:	75282820 	strvc	r2, [r8, #-2080]!	; 0xfffff7e0
    56ec:	31746e69 	cmncc	r4, r9, ror #28
    56f0:	29745f36 	ldmdbcs	r4!, {r1, r2, r4, r5, r8, r9, sl, fp, ip, lr}^
    56f4:	34307830 	ldrtcc	r7, [r0], #-2096	; 0xfffff7d0
    56f8:	00293030 	eoreq	r3, r9, r0, lsr r0
    56fc:	49555f5f 	ldmdbmi	r5, {r0, r1, r2, r3, r4, r6, r8, r9, sl, fp, ip, lr}^
    5700:	465f544e 	ldrbmi	r5, [pc], -lr, asr #8
    5704:	36545341 	ldrbcc	r5, [r4], -r1, asr #6
    5708:	414d5f34 	cmpmi	sp, r4, lsr pc
    570c:	205f5f58 	subscs	r5, pc, r8, asr pc	; <UNPREDICTABLE>
    5710:	66667830 			; <UNDEFINED> instruction: 0x66667830
    5714:	66666666 	strbtvs	r6, [r6], -r6, ror #12
    5718:	66666666 	strbtvs	r6, [r6], -r6, ror #12
    571c:	66666666 	strbtvs	r6, [r6], -r6, ror #12
    5720:	4c556666 	mrrcmi	6, 6, r6, r5, cr6
    5724:	5f5f004c 	svcpl	0x005f004c
    5728:	5f4d5241 	svcpl	0x004d5241
    572c:	5f005046 	svcpl	0x00005046
    5730:	4e454552 	mcrmi	5, 2, r4, cr5, cr2, {2}
    5734:	48435f54 	stmdami	r3, {r2, r4, r6, r8, r9, sl, fp, ip, lr}^
    5738:	5f4b4345 	svcpl	0x004b4345
    573c:	52454d45 	subpl	r4, r5, #4416	; 0x1140
    5740:	434e4547 	movtmi	r4, #58695	; 0xe547
    5744:	61762859 	cmnvs	r6, r9, asr r8
    5748:	5f202972 	svcpl	0x00202972
    574c:	4e454552 	mcrmi	5, 2, r4, cr5, cr2, {2}
    5750:	48435f54 	stmdami	r3, {r2, r4, r6, r8, r9, sl, fp, ip, lr}^
    5754:	284b4345 	stmdacs	fp, {r0, r2, r6, r8, r9, lr}^
    5758:	2c726176 	ldfcse	f6, [r2], #-472	; 0xfffffe28
    575c:	6d655f20 	stclvs	15, cr5, [r5, #-128]!	; 0xffffff80
    5760:	65677265 	strbvs	r7, [r7, #-613]!	; 0xfffffd9b
    5764:	2c79636e 	ldclcs	3, cr6, [r9], #-440	; 0xfffffe48
    5768:	61686320 	cmnvs	r8, r0, lsr #6
    576c:	2c2a2072 	stccs	0, cr2, [sl], #-456	; 0xfffffe38
    5770:	45525f20 	ldrbmi	r5, [r2, #-3872]	; 0xfffff0e0
    5774:	5f544e45 	svcpl	0x00544e45
    5778:	52454d45 	subpl	r4, r5, #4416	; 0x1140
    577c:	434e4547 	movtmi	r4, #58695	; 0xe547
    5780:	49535f59 	ldmdbmi	r3, {r0, r3, r4, r6, r8, r9, sl, fp, ip, lr}^
    5784:	202c455a 	eorcs	r4, ip, sl, asr r5
    5788:	5f5f0029 	svcpl	0x005f0029
    578c:	5f4d5241 	svcpl	0x004d5241
    5790:	54414546 	strbpl	r4, [r1], #-1350	; 0xfffffaba
    5794:	5f455255 	svcpl	0x00455255
    5798:	00505344 	subseq	r5, r0, r4, asr #6
    579c:	4e495f5f 	mcrmi	15, 2, r5, cr9, cr15, {2}
    57a0:	52545054 	subspl	r5, r4, #84	; 0x54
    57a4:	4449575f 	strbmi	r5, [r9], #-1887	; 0xfffff8a1
    57a8:	5f5f4854 	svcpl	0x005f4854
    57ac:	00323320 	eorseq	r3, r2, r0, lsr #6
    57b0:	4545525f 	strbmi	r5, [r5, #-607]	; 0xfffffda1
    57b4:	495f544e 	ldmdbmi	pc, {r1, r2, r3, r6, sl, ip, lr}^	; <UNPREDICTABLE>
    57b8:	5f54494e 	svcpl	0x0054494e
    57bc:	7628504d 	strtvc	r5, [r8], -sp, asr #32
    57c0:	20297261 	eorcs	r7, r9, r1, ror #4
    57c4:	7b206f64 	blvc	82155c <_Min_Stack_Size+0x82115c>
    57c8:	72747320 	rsbsvc	r7, r4, #32, 6	; 0x80000000
    57cc:	20746375 	rsbscs	r6, r4, r5, ror r3
    57d0:	6565725f 	strbvs	r7, [r5, #-607]!	; 0xfffffda1
    57d4:	2a20746e 	bcs	822994 <_Min_Stack_Size+0x822594>
    57d8:	3d20725f 	sfmcc	f7, 4, [r0, #-380]!	; 0xfffffe84
    57dc:	61762820 	cmnvs	r6, r0, lsr #16
    57e0:	203b2972 	eorscs	r2, fp, r2, ror r9
    57e4:	3e2d725f 	mcrcc	2, 1, r7, cr13, cr15, {2}
    57e8:	2d706d5f 	ldclcs	13, cr6, [r0, #-380]!	; 0xfffffe84
    57ec:	65725f3e 	ldrbvs	r5, [r2, #-3902]!	; 0xfffff0c2
    57f0:	746c7573 	strbtvc	r7, [ip], #-1395	; 0xfffffa8d
    57f4:	3d206b5f 	fstmdbxcc	r0!, {d6-d52}	;@ Deprecated
    57f8:	203b3020 	eorscs	r3, fp, r0, lsr #32
    57fc:	3e2d725f 	mcrcc	2, 1, r7, cr13, cr15, {2}
    5800:	2d706d5f 	ldclcs	13, cr6, [r0, #-380]!	; 0xfffffe84
    5804:	65725f3e 	ldrbvs	r5, [r2, #-3902]!	; 0xfffff0c2
    5808:	746c7573 	strbtvc	r7, [ip], #-1395	; 0xfffffa8d
    580c:	5f203d20 	svcpl	0x00203d20
    5810:	5f3e2d72 	svcpl	0x003e2d72
    5814:	3e2d706d 	cdpcc	0, 2, cr7, cr13, cr13, {3}
    5818:	7335705f 	teqvc	r5, #95	; 0x5f
    581c:	5f203d20 	svcpl	0x00203d20
    5820:	4c4c554e 	cfstr64mi	mvdx5, [ip], {78}	; 0x4e
    5824:	725f203b 	subsvc	r2, pc, #59	; 0x3b
    5828:	6d5f3e2d 	ldclvs	14, cr3, [pc, #-180]	; 577c <_Min_Stack_Size+0x537c>
    582c:	5f3e2d70 	svcpl	0x003e2d70
    5830:	65657266 	strbvs	r7, [r5, #-614]!	; 0xfffffd9a
    5834:	7473696c 	ldrbtvc	r6, [r3], #-2412	; 0xfffff694
    5838:	5f203d20 	svcpl	0x00203d20
    583c:	4c4c554e 	cfstr64mi	mvdx5, [ip], {78}	; 0x4e
    5840:	207d203b 	rsbscs	r2, sp, fp, lsr r0
    5844:	6c696877 	stclvs	8, cr6, [r9], #-476	; 0xfffffe24
    5848:	30282065 	eorcc	r2, r8, r5, rrx
    584c:	58450029 	stmdapl	r5, {r0, r3, r5}^
    5850:	495f4954 	ldmdbmi	pc, {r2, r4, r6, r8, fp, lr}^	; <UNPREDICTABLE>
    5854:	7475706e 	ldrbtvc	r7, [r5], #-110	; 0xffffff92
    5858:	656e694c 	strbvs	r6, [lr, #-2380]!	; 0xfffff6b4
    585c:	626d754e 	rsbvs	r7, sp, #327155712	; 0x13800000
    5860:	5f007265 	svcpl	0x00007265
    5864:	4e454552 	mcrmi	5, 2, r4, cr5, cr2, {2}
    5868:	4f4c5f54 	svcmi	0x004c5f54
    586c:	454c4143 	strbmi	r4, [ip, #-323]	; 0xfffffebd
    5870:	74705f28 	ldrbtvc	r5, [r0], #-3880	; 0xfffff0d8
    5874:	28202972 	stmdacs	r0!, {r1, r4, r5, r6, r8, fp, sp}
    5878:	74705f28 	ldrbtvc	r5, [r0], #-3880	; 0xfffff0d8
    587c:	3e2d2972 			; <UNDEFINED> instruction: 0x3e2d2972
    5880:	636f6c5f 	cmnvs	pc, #24320	; 0x5f00
    5884:	29656c61 	stmdbcs	r5!, {r0, r5, r6, sl, fp, sp, lr}^
    5888:	465f5f00 	ldrbmi	r5, [pc], -r0, lsl #30
    588c:	3233544c 	eorscc	r5, r3, #76, 8	; 0x4c000000
    5890:	494d5f58 	stmdbmi	sp, {r3, r4, r6, r8, r9, sl, fp, ip, lr}^
    5894:	205f5f4e 	subscs	r5, pc, lr, asr #30
    5898:	32322e32 	eorscc	r2, r2, #800	; 0x320
    589c:	33373035 	teqcc	r7, #53	; 0x35
    58a0:	35383538 	ldrcc	r3, [r8, #-1336]!	; 0xfffffac8
    58a4:	30323730 	eorscc	r3, r2, r0, lsr r7
    58a8:	2d653431 	cfstrdcs	mvd3, [r5, #-196]!	; 0xffffff3c
    58ac:	46383033 			; <UNDEFINED> instruction: 0x46383033
    58b0:	00783233 	rsbseq	r3, r8, r3, lsr r2
    58b4:	4545525f 	strbmi	r5, [r5, #-607]	; 0xfffffda1
    58b8:	525f544e 	subspl	r5, pc, #1308622848	; 0x4e000000
    58bc:	34444e41 	strbcc	r4, [r4], #-3649	; 0xfffff1bf
    58c0:	554d5f38 	strbpl	r5, [sp, #-3896]	; 0xfffff0c8
    58c4:	7028544c 	eorvc	r5, r8, ip, asr #8
    58c8:	20297274 	eorcs	r7, r9, r4, ror r2
    58cc:	74702828 	ldrbtvc	r2, [r0], #-2088	; 0xfffff7d8
    58d0:	3e2d2972 			; <UNDEFINED> instruction: 0x3e2d2972
    58d4:	3834725f 	ldmdacc	r4!, {r0, r1, r2, r3, r4, r6, r9, ip, sp, lr}
    58d8:	6d5f3e2d 	ldclvs	14, cr3, [pc, #-180]	; 582c <_Min_Stack_Size+0x542c>
    58dc:	29746c75 	ldmdbcs	r4!, {r0, r2, r4, r5, r6, sl, fp, sp, lr}^
    58e0:	465f5f00 	ldrbmi	r5, [pc], -r0, lsl #30
    58e4:	3436544c 	ldrtcc	r5, [r6], #-1100	; 0xfffffbb4
    58e8:	58414d5f 	stmdapl	r1, {r0, r1, r2, r3, r4, r6, r8, sl, fp, lr}^
    58ec:	5058455f 	subspl	r4, r8, pc, asr r5
    58f0:	31205f5f 			; <UNDEFINED> instruction: 0x31205f5f
    58f4:	00343230 	eorseq	r3, r4, r0, lsr r2
    58f8:	5f433249 	svcpl	0x00433249
    58fc:	5f315243 	svcpl	0x00315243
    5900:	5f4b4341 	svcpl	0x004b4341
    5904:	206b734d 	rsbcs	r7, fp, sp, asr #6
    5908:	31783028 	cmncc	r8, r8, lsr #32
    590c:	3c204c55 	stccc	12, cr4, [r0], #-340	; 0xfffffeac
    5910:	3249203c 	subcc	r2, r9, #60	; 0x3c
    5914:	52435f43 	subpl	r5, r3, #268	; 0x10c
    5918:	43415f31 	movtmi	r5, #7985	; 0x1f31
    591c:	6f505f4b 	svcvs	0x00505f4b
    5920:	5f002973 	svcpl	0x00002973
    5924:	4843575f 	stmdami	r3, {r0, r1, r2, r3, r4, r6, r8, r9, sl, ip, lr}^
    5928:	545f5241 	ldrbpl	r5, [pc], #-577	; 5930 <_Min_Stack_Size+0x5530>
    592c:	424d0020 	submi	r0, sp, #32
    5930:	5255435f 	subspl	r4, r5, #2080374785	; 0x7c000001
    5934:	58414d5f 	stmdapl	r1, {r0, r1, r2, r3, r4, r6, r8, sl, fp, lr}^
    5938:	6c5f5f20 	mrrcvs	15, 2, r5, pc, cr0	; <UNPREDICTABLE>
    593c:	6c61636f 	stclvs	3, cr6, [r1], #-444	; 0xfffffe44
    5940:	626d5f65 	rsbvs	r5, sp, #404	; 0x194
    5944:	7275635f 	rsbsvc	r6, r5, #2080374785	; 0x7c000001
    5948:	78616d5f 	stmdavc	r1!, {r0, r1, r2, r3, r4, r6, r8, sl, fp, sp, lr}^
    594c:	5f002928 	svcpl	0x00002928
    5950:	544c465f 	strbpl	r4, [ip], #-1631	; 0xfffff9a1
    5954:	4d5f3436 	cfldrdmi	mvd3, [pc, #-216]	; 5884 <_Min_Stack_Size+0x5484>
    5958:	5f5f4e49 	svcpl	0x005f4e49
    595c:	322e3220 	eorcc	r3, lr, #32, 4
    5960:	37303532 			; <UNDEFINED> instruction: 0x37303532
    5964:	38353833 	ldmdacc	r5!, {r0, r1, r4, r5, fp, ip, sp}
    5968:	32373035 	eorscc	r3, r7, #53	; 0x35
    596c:	65343130 	ldrvs	r3, [r4, #-304]!	; 0xfffffed0
    5970:	3830332d 	ldmdacc	r0!, {r0, r2, r3, r5, r8, r9, ip, sp}
    5974:	00343646 	eorseq	r3, r4, r6, asr #12
    5978:	4545525f 	strbmi	r5, [r5, #-607]	; 0xfffffda1
    597c:	495f544e 	ldmdbmi	pc, {r1, r2, r3, r6, sl, ip, lr}^	; <UNPREDICTABLE>
    5980:	5f54494e 	svcpl	0x0054494e
    5984:	45534552 	ldrbmi	r4, [r3, #-1362]	; 0xfffffaae
    5988:	44455652 	strbmi	r5, [r5], #-1618	; 0xfffff9ae
    598c:	0020385f 	eoreq	r3, r0, pc, asr r8
    5990:	695f5f5f 	ldmdbvs	pc, {r0, r1, r2, r3, r4, r6, r8, r9, sl, fp, ip, lr}^	; <UNPREDICTABLE>
    5994:	3233746e 	eorscc	r7, r3, #1845493760	; 0x6e000000
    5998:	645f745f 	ldrbvs	r7, [pc], #-1119	; 59a0 <_Min_Stack_Size+0x55a0>
    599c:	6e696665 	cdpvs	6, 6, cr6, cr9, cr5, {3}
    59a0:	31206465 			; <UNDEFINED> instruction: 0x31206465
    59a4:	495f5f00 	ldmdbmi	pc, {r8, r9, sl, fp, ip, lr}^	; <UNPREDICTABLE>
    59a8:	575f544e 	ldrbpl	r5, [pc, -lr, asr #8]
    59ac:	48544449 	ldmdami	r4, {r0, r3, r6, sl, lr}^
    59b0:	33205f5f 			; <UNDEFINED> instruction: 0x33205f5f
    59b4:	485f0032 	ldmdami	pc, {r1, r4, r5}^	; <UNPREDICTABLE>
    59b8:	5f455641 	svcpl	0x00455641
    59bc:	495f4343 	ldmdbmi	pc, {r0, r1, r6, r8, r9, lr}^	; <UNPREDICTABLE>
    59c0:	4249484e 	submi	r4, r9, #5111808	; 0x4e0000
    59c4:	4c5f5449 	cfldrdmi	mvd5, [pc], {73}	; 0x49
    59c8:	5f504f4f 	svcpl	0x00504f4f
    59cc:	4c5f4f54 	mrrcmi	15, 5, r4, pc, cr4	; <UNPREDICTABLE>
    59d0:	41434249 	cmpmi	r3, r9, asr #4
    59d4:	31204c4c 			; <UNDEFINED> instruction: 0x31204c4c
    59d8:	4e5f5f00 	cdpmi	15, 5, cr5, cr15, cr0, {0}
    59dc:	414c4c55 	cmpmi	ip, r5, asr ip
    59e0:	494c4942 	stmdbmi	ip, {r1, r6, r8, fp, lr}^
    59e4:	505f5954 	subspl	r5, pc, r4, asr r9	; <UNPREDICTABLE>
    59e8:	4d474152 	stfmie	f4, [r7, #-328]	; 0xfffffeb8
    59ec:	4f505f41 	svcmi	0x00505f41
    59f0:	5f002050 	svcpl	0x00002050
    59f4:	4d52415f 	ldfmie	f4, [r2, #-380]	; 0xfffffe84
    59f8:	4352415f 	cmpmi	r2, #-1073741801	; 0xc0000017
    59fc:	52505f48 	subspl	r5, r0, #72, 30	; 0x120
    5a00:	4c49464f 	mcrrmi	6, 4, r4, r9, cr15
    5a04:	5f5f0045 	svcpl	0x005f0045
    5a08:	36544e49 	ldrbcc	r4, [r4], -r9, asr #28
    5a0c:	59545f34 	ldmdbpl	r4, {r2, r4, r5, r8, r9, sl, fp, ip, lr}^
    5a10:	5f5f4550 	svcpl	0x005f4550
    5a14:	6e6f6c20 	cdpvs	12, 6, cr6, cr15, cr0, {1}
    5a18:	6f6c2067 	svcvs	0x006c2067
    5a1c:	6920676e 	stmdbvs	r0!, {r1, r2, r3, r5, r6, r8, r9, sl, sp, lr}
    5a20:	5f00746e 	svcpl	0x0000746e
    5a24:	52464c5f 	subpl	r4, r6, #24320	; 0x5f00
    5a28:	5f544341 	svcpl	0x00544341
    5a2c:	54494246 	strbpl	r4, [r9], #-582	; 0xfffffdba
    5a30:	33205f5f 			; <UNDEFINED> instruction: 0x33205f5f
    5a34:	5f5f0031 	svcpl	0x005f0031
    5a38:	52414843 	subpl	r4, r1, #4390912	; 0x430000
    5a3c:	5449425f 	strbpl	r4, [r9], #-607	; 0xfffffda1
    5a40:	38205f5f 	stmdacc	r0!, {r0, r1, r2, r3, r4, r6, r8, r9, sl, fp, ip, lr}
    5a44:	43324900 	teqmi	r2, #0, 18
    5a48:	3252435f 	subscc	r4, r2, #2080374785	; 0x7c000001
    5a4c:	414d445f 	cmpmi	sp, pc, asr r4
    5a50:	49204e45 	stmdbmi	r0!, {r0, r2, r6, r9, sl, fp, lr}
    5a54:	435f4332 	cmpmi	pc, #-939524096	; 0xc8000000
    5a58:	445f3252 	ldrbmi	r3, [pc], #-594	; 5a60 <_Min_Stack_Size+0x5660>
    5a5c:	4e45414d 	dvfmism	f4, f5, #5.0
    5a60:	6b734d5f 	blvs	1cd8fe4 <_Min_Stack_Size+0x1cd8be4>
    5a64:	54584500 	ldrbpl	r4, [r8], #-1280	; 0xfffffb00
    5a68:	49505f49 	ldmdbmi	r0, {r0, r3, r6, r8, r9, sl, fp, ip, lr}^
    5a6c:	5f5f004e 	svcpl	0x005f004e
    5a70:	5f445342 	svcpl	0x00445342
    5a74:	49534956 	ldmdbmi	r3, {r1, r2, r4, r6, r8, fp, lr}^
    5a78:	20454c42 	subcs	r4, r5, r2, asr #24
    5a7c:	4e490031 	mcrmi	0, 2, r0, cr9, cr1, {1}
    5a80:	454c5f54 	strbmi	r5, [ip, #-3924]	; 0xfffff0ac
    5a84:	31545341 	cmpcc	r4, r1, asr #6
    5a88:	494d5f36 	stmdbmi	sp, {r1, r2, r4, r5, r8, r9, sl, fp, ip, lr}^
    5a8c:	2d28204e 	stccs	0, cr2, [r8, #-312]!	; 0xfffffec8
    5a90:	4e495f5f 	mcrmi	15, 2, r5, cr9, cr15, {2}
    5a94:	454c5f54 	strbmi	r5, [ip, #-3924]	; 0xfffff0ac
    5a98:	31545341 	cmpcc	r4, r1, asr #6
    5a9c:	414d5f36 	cmpmi	sp, r6, lsr pc
    5aa0:	205f5f58 	subscs	r5, pc, r8, asr pc	; <UNPREDICTABLE>
    5aa4:	2931202d 	ldmdbcs	r1!, {r0, r2, r3, r5, sp}
    5aa8:	755f5f00 	ldrbvc	r5, [pc, #-3840]	; 4bb0 <_Min_Stack_Size+0x47b0>
    5aac:	6573756e 	ldrbvs	r7, [r3, #-1390]!	; 0xfffffa92
    5ab0:	5f5f2064 	svcpl	0x005f2064
    5ab4:	72747461 	rsbsvc	r7, r4, #1627389952	; 0x61000000
    5ab8:	74756269 	ldrbtvc	r6, [r5], #-617	; 0xfffffd97
    5abc:	285f5f65 	ldmdacs	pc, {r0, r2, r5, r6, r8, r9, sl, fp, ip, lr}^	; <UNPREDICTABLE>
    5ac0:	755f5f28 	ldrbvc	r5, [pc, #-3880]	; 4ba0 <_Min_Stack_Size+0x47a0>
    5ac4:	6573756e 	ldrbvs	r7, [r3, #-1390]!	; 0xfffffa92
    5ac8:	295f5f64 	ldmdbcs	pc, {r2, r5, r6, r8, r9, sl, fp, ip, lr}^	; <UNPREDICTABLE>
    5acc:	5f5f0029 	svcpl	0x005f0029
    5ad0:	45535341 	ldrbmi	r5, [r3, #-833]	; 0xfffffcbf
    5ad4:	465f5452 			; <UNDEFINED> instruction: 0x465f5452
    5ad8:	20434e55 	subcs	r4, r3, r5, asr lr
    5adc:	75665f5f 	strbvc	r5, [r6, #-3935]!	; 0xfffff0a1
    5ae0:	5f5f636e 	svcpl	0x005f636e
    5ae4:	49504700 	ldmdbmi	r0, {r8, r9, sl, lr}^
    5ae8:	425f414f 	subsmi	r4, pc, #-1073741805	; 0xc0000013
    5aec:	20455341 	subcs	r5, r5, r1, asr #6
    5af0:	30347830 	eorscc	r7, r4, r0, lsr r8
    5af4:	38303130 	ldmdacc	r0!, {r4, r5, r8, ip, sp}
    5af8:	4c553030 	mrrcmi	0, 3, r3, r5, cr0
    5afc:	555f5f00 	ldrbpl	r5, [pc, #-3840]	; 4c04 <_Min_Stack_Size+0x4804>
    5b00:	43415246 	movtmi	r5, #4678	; 0x1246
    5b04:	414d5f54 	cmpmi	sp, r4, asr pc
    5b08:	205f5f58 	subscs	r5, pc, r8, asr pc	; <UNPREDICTABLE>
    5b0c:	46465830 			; <UNDEFINED> instruction: 0x46465830
    5b10:	2d504646 	ldclcs	6, cr4, [r0, #-280]	; 0xfffffee8
    5b14:	52553631 	subspl	r3, r5, #51380224	; 0x3100000
    5b18:	49504700 	ldmdbmi	r0, {r8, r9, sl, lr}^
    5b1c:	50535f4f 	subspl	r5, r3, pc, asr #30
    5b20:	5f444545 	svcpl	0x00444545
    5b24:	204d3035 	subcs	r3, sp, r5, lsr r0
    5b28:	30307830 	eorscc	r7, r0, r0, lsr r8
    5b2c:	30303030 	eorscc	r3, r0, r0, lsr r0
    5b30:	00553330 	subseq	r3, r5, r0, lsr r3
    5b34:	695f5f5f 	ldmdbvs	pc, {r0, r1, r2, r3, r4, r6, r8, r9, sl, fp, ip, lr}^	; <UNPREDICTABLE>
    5b38:	6c5f746e 	cfldrdvs	mvd7, [pc], {110}	; 0x6e
    5b3c:	74736165 	ldrbtvc	r6, [r3], #-357	; 0xfffffe9b
    5b40:	745f3436 	ldrbvc	r3, [pc], #-1078	; 5b48 <_Min_Stack_Size+0x5748>
    5b44:	6665645f 			; <UNDEFINED> instruction: 0x6665645f
    5b48:	64656e69 	strbtvs	r6, [r5], #-3689	; 0xfffff197
    5b4c:	5f003120 	svcpl	0x00003120
    5b50:	544e4157 	strbpl	r4, [lr], #-343	; 0xfffffea9
    5b54:	4545525f 	strbmi	r5, [r5, #-607]	; 0xfffffda1
    5b58:	535f544e 	cmppl	pc, #1308622848	; 0x4e000000
    5b5c:	4c4c414d 	stfmie	f4, [ip], {77}	; 0x4d
    5b60:	5f003120 	svcpl	0x00003120
    5b64:	5248545f 	subpl	r5, r8, #1593835520	; 0x5f000000
    5b68:	0020574f 	eoreq	r5, r0, pc, asr #14
    5b6c:	4545525f 	strbmi	r5, [r5, #-607]	; 0xfffffda1
    5b70:	435f544e 	cmpmi	pc, #1308622848	; 0x4e000000
    5b74:	4b434548 	blmi	10d709c <_Min_Stack_Size+0x10d6c9c>
    5b78:	28504d5f 	ldmdacs	r0, {r0, r1, r2, r3, r4, r6, r8, sl, fp, lr}^
    5b7c:	29726176 	ldmdbcs	r2!, {r1, r2, r4, r5, r6, r8, sp, lr}^
    5b80:	45525f20 	ldrbmi	r5, [r2, #-3872]	; 0xfffff0e0
    5b84:	5f544e45 	svcpl	0x00544e45
    5b88:	43454843 	movtmi	r4, #22595	; 0x5843
    5b8c:	6176284b 	cmnvs	r6, fp, asr #16
    5b90:	5f202c72 	svcpl	0x00202c72
    5b94:	202c706d 	eorcs	r7, ip, sp, rrx
    5b98:	75727473 	ldrbvc	r7, [r2, #-1139]!	; 0xfffffb8d
    5b9c:	5f207463 	svcpl	0x00207463
    5ba0:	6572706d 	ldrbvs	r7, [r2, #-109]!	; 0xffffff93
    5ba4:	2c2a2063 	stccs	0, cr2, [sl], #-396	; 0xfffffe74
    5ba8:	7a697320 	bvc	1a62830 <_Min_Stack_Size+0x1a62430>
    5bac:	20666f65 	rsbcs	r6, r6, r5, ror #30
    5bb0:	7628282a 	strtvc	r2, [r8], -sl, lsr #16
    5bb4:	2d297261 	sfmcs	f7, 4, [r9, #-388]!	; 0xfffffe7c
    5bb8:	706d5f3e 	rsbvc	r5, sp, lr, lsr pc
    5bbc:	5f202c29 	svcpl	0x00202c29
    5bc0:	4e454552 	mcrmi	5, 2, r4, cr5, cr2, {2}
    5bc4:	4e495f54 	mcrmi	15, 2, r5, cr9, cr4, {2}
    5bc8:	4d5f5449 	cfldrdmi	mvd5, [pc, #-292]	; 5aac <_Min_Stack_Size+0x56ac>
    5bcc:	61762850 	cmnvs	r6, r0, asr r8
    5bd0:	00292972 	eoreq	r2, r9, r2, ror r9
    5bd4:	49545845 	ldmdbmi	r4, {r0, r2, r6, fp, ip, lr}^
    5bd8:	32435032 	subcc	r5, r3, #50	; 0x32
    5bdc:	58452820 	stmdapl	r5, {r5, fp, sp}^
    5be0:	475f4954 			; <UNDEFINED> instruction: 0x475f4954
    5be4:	5f4f4950 	svcpl	0x004f4950
    5be8:	6970614d 	ldmdbvs	r0!, {r0, r2, r3, r6, r8, sp, lr}^
    5bec:	745f676e 	ldrbvc	r6, [pc], #-1902	; 5bf4 <_Min_Stack_Size+0x57f4>
    5bf0:	58457b29 	stmdapl	r5, {r0, r3, r5, r8, r9, fp, ip, sp, lr}^
    5bf4:	2c324954 			; <UNDEFINED> instruction: 0x2c324954
    5bf8:	49504720 	ldmdbmi	r0, {r5, r8, r9, sl, lr}^
    5bfc:	202c434f 	eorcs	r4, ip, pc, asr #6
    5c00:	4f495047 	svcmi	0x00495047
    5c04:	4e49505f 	mcrmi	0, 2, r5, cr9, cr15, {2}
    5c08:	202c325f 	eorcs	r3, ip, pc, asr r2
    5c0c:	49545845 	ldmdbmi	r4, {r0, r2, r6, fp, ip, lr}^
    5c10:	52495f32 	subpl	r5, r9, #50, 30	; 0xc8
    5c14:	49007d51 	stmdbmi	r0, {r0, r4, r6, r8, sl, fp, ip, sp, lr}
    5c18:	435f4332 	cmpmi	pc, #-939524096	; 0xc8000000
    5c1c:	505f3152 	subspl	r3, pc, r2, asr r1	; <UNPREDICTABLE>
    5c20:	505f534f 	subspl	r5, pc, pc, asr #6
    5c24:	2820736f 	stmdacs	r0!, {r0, r1, r2, r3, r5, r6, r8, r9, ip, sp, lr}
    5c28:	29553131 	ldmdbcs	r5, {r0, r4, r5, r8, ip, sp}^
    5c2c:	535f5f00 	cmppl	pc, #0, 30
    5c30:	43415246 	movtmi	r5, #4678	; 0x1246
    5c34:	42495f54 	submi	r5, r9, #84, 30	; 0x150
    5c38:	5f5f5449 	svcpl	0x005f5449
    5c3c:	5f003020 	svcpl	0x00003020
    5c40:	49465441 	stmdbmi	r6, {r0, r6, sl, ip, lr}^
    5c44:	535f454c 	cmppl	pc, #76, 10	; 0x13000000
    5c48:	4352554f 	cmpmi	r2, #331350016	; 0x13c00000
    5c4c:	00312045 	eorseq	r2, r1, r5, asr #32
    5c50:	54535f5f 	ldrbpl	r5, [r3], #-3935	; 0xfffff0a1
    5c54:	544e4944 	strbpl	r4, [lr], #-2372	; 0xfffff6bc
    5c58:	5058455f 	subspl	r4, r8, pc, asr r5
    5c5c:	20297828 	eorcs	r7, r9, r8, lsr #16
    5c60:	23205f5f 			; <UNDEFINED> instruction: 0x23205f5f
    5c64:	23207823 			; <UNDEFINED> instruction: 0x23207823
    5c68:	005f5f23 	subseq	r5, pc, r3, lsr #30
    5c6c:	58455f5f 	stmdapl	r5, {r0, r1, r2, r3, r4, r6, r8, r9, sl, fp, ip, lr}^
    5c70:	29782850 	ldmdbcs	r8!, {r4, r6, fp, sp}^
    5c74:	205f5f20 	subscs	r5, pc, r0, lsr #30
    5c78:	20782323 	rsbscs	r2, r8, r3, lsr #6
    5c7c:	5f5f2323 	svcpl	0x005f2323
    5c80:	43324900 	teqmi	r2, #0, 18
    5c84:	3152535f 	cmpcc	r2, pc, asr r3
    5c88:	4654425f 			; <UNDEFINED> instruction: 0x4654425f
    5c8c:	6b734d5f 	blvs	1cd9210 <_Min_Stack_Size+0x1cd8e10>
    5c90:	78302820 	ldmdavc	r0!, {r5, fp, sp}
    5c94:	204c5531 	subcs	r5, ip, r1, lsr r5
    5c98:	49203c3c 	stmdbmi	r0!, {r2, r3, r4, r5, sl, fp, ip, sp}
    5c9c:	535f4332 	cmppl	pc, #-939524096	; 0xc8000000
    5ca0:	425f3152 	subsmi	r3, pc, #-2147483628	; 0x80000014
    5ca4:	505f4654 	subspl	r4, pc, r4, asr r6	; <UNPREDICTABLE>
    5ca8:	0029736f 	eoreq	r7, r9, pc, ror #6
    5cac:	59425f5f 	stmdbpl	r2, {r0, r1, r2, r3, r4, r6, r8, r9, sl, fp, ip, lr}^
    5cb0:	4f5f4554 	svcmi	0x005f4554
    5cb4:	52454452 	subpl	r4, r5, #1375731712	; 0x52000000
    5cb8:	5f205f5f 	svcpl	0x00205f5f
    5cbc:	44524f5f 	ldrbmi	r4, [r2], #-3935	; 0xfffff0a1
    5cc0:	4c5f5245 	lfmmi	f5, 2, [pc], {69}	; 0x45
    5cc4:	4c545449 	cfldrdmi	mvd5, [r4], {73}	; 0x49
    5cc8:	4e455f45 	cdpmi	15, 4, cr5, cr5, cr5, {2}
    5ccc:	4e414944 	vmlsmi.f16	s9, s2, s8	; <UNPREDICTABLE>
    5cd0:	5f005f5f 	svcpl	0x00005f5f
    5cd4:	544c465f 	strbpl	r4, [ip], #-1631	; 0xfffff9a1
    5cd8:	455f3233 	ldrbmi	r3, [pc, #-563]	; 5aad <_Min_Stack_Size+0x56ad>
    5cdc:	4c495350 	mcrrmi	3, 5, r5, r9, cr0
    5ce0:	5f5f4e4f 	svcpl	0x005f4e4f
    5ce4:	312e3120 			; <UNDEFINED> instruction: 0x312e3120
    5ce8:	39303239 	ldmdbcc	r0!, {r0, r3, r4, r5, r9, ip, sp}
    5cec:	35393832 	ldrcc	r3, [r9, #-2098]!	; 0xfffff7ce
    5cf0:	38373035 	ldmdacc	r7!, {r0, r2, r4, r5, ip, sp}
    5cf4:	65353231 	ldrvs	r3, [r5, #-561]!	; 0xfffffdcf
    5cf8:	3346372d 	movtcc	r3, #26413	; 0x672d
    5cfc:	5f5f0032 	svcpl	0x005f0032
    5d00:	5f4d5241 	svcpl	0x004d5241
    5d04:	4e4f454e 	cdpmi	5, 4, cr4, cr15, cr14, {2}
    5d08:	0050465f 	subseq	r4, r0, pc, asr r6
    5d0c:	49545845 	ldmdbmi	r4, {r0, r2, r6, fp, ip, lr}^
    5d10:	33435033 	movtcc	r5, #12339	; 0x3033
    5d14:	58452820 	stmdapl	r5, {r5, fp, sp}^
    5d18:	475f4954 			; <UNDEFINED> instruction: 0x475f4954
    5d1c:	5f4f4950 	svcpl	0x004f4950
    5d20:	6970614d 	ldmdbvs	r0!, {r0, r2, r3, r6, r8, sp, lr}^
    5d24:	745f676e 	ldrbvc	r6, [pc], #-1902	; 5d2c <_Min_Stack_Size+0x592c>
    5d28:	58457b29 	stmdapl	r5, {r0, r3, r5, r8, r9, fp, ip, sp, lr}^
    5d2c:	2c334954 			; <UNDEFINED> instruction: 0x2c334954
    5d30:	49504720 	ldmdbmi	r0, {r5, r8, r9, sl, lr}^
    5d34:	202c434f 	eorcs	r4, ip, pc, asr #6
    5d38:	4f495047 	svcmi	0x00495047
    5d3c:	4e49505f 	mcrmi	0, 2, r5, cr9, cr15, {2}
    5d40:	202c335f 	eorcs	r3, ip, pc, asr r3
    5d44:	49545845 	ldmdbmi	r4, {r0, r2, r6, fp, ip, lr}^
    5d48:	52495f33 	subpl	r5, r9, #51, 30	; 0xcc
    5d4c:	5f007d51 	svcpl	0x00007d51
    5d50:	48544f4e 	ldmdami	r4, {r1, r2, r3, r6, r8, r9, sl, fp, lr}^
    5d54:	20574f52 	subscs	r4, r7, r2, asr pc
    5d58:	4e415f00 	cdpmi	15, 4, cr5, cr1, cr0, {0}
    5d5c:	45444953 	strbmi	r4, [r4, #-2387]	; 0xfffff6ad
    5d60:	485f4c43 	ldmdami	pc, {r0, r1, r6, sl, fp, lr}^	; <UNPREDICTABLE>
    5d64:	4500205f 	strmi	r2, [r0, #-95]	; 0xffffffa1
    5d68:	31495458 	cmpcc	r9, r8, asr r4
    5d6c:	52495f30 	subpl	r5, r9, #48, 30	; 0xc0
    5d70:	30342051 	eorscc	r2, r4, r1, asr r0
    5d74:	43324900 	teqmi	r2, #0, 18
    5d78:	3152535f 	cmpcc	r2, pc, asr r3
    5d7c:	4f54535f 	svcmi	0x0054535f
    5d80:	49204650 	stmdbmi	r0!, {r4, r6, r9, sl, lr}
    5d84:	535f4332 	cmppl	pc, #-939524096	; 0xc8000000
    5d88:	535f3152 	cmppl	pc, #-2147483628	; 0x80000014
    5d8c:	46504f54 	usaxmi	r4, r0, r4
    5d90:	6b734d5f 	blvs	1cd9314 <_Min_Stack_Size+0x1cd8f14>
    5d94:	54584500 	ldrbpl	r4, [r8], #-1280	; 0xfffffb00
    5d98:	41503649 	cmpmi	r0, r9, asr #12
    5d9c:	45282036 	strmi	r2, [r8, #-54]!	; 0xffffffca
    5da0:	5f495458 	svcpl	0x00495458
    5da4:	4f495047 	svcmi	0x00495047
    5da8:	70614d5f 	rsbvc	r4, r1, pc, asr sp
    5dac:	5f676e69 	svcpl	0x00676e69
    5db0:	457b2974 	ldrbmi	r2, [fp, #-2420]!	; 0xfffff68c
    5db4:	36495458 			; <UNDEFINED> instruction: 0x36495458
    5db8:	5047202c 	subpl	r2, r7, ip, lsr #32
    5dbc:	2c414f49 	mcrrcs	15, 4, r4, r1, cr9
    5dc0:	49504720 	ldmdbmi	r0, {r5, r8, r9, sl, lr}^
    5dc4:	49505f4f 	ldmdbmi	r0, {r0, r1, r2, r3, r6, r8, r9, sl, fp, ip, lr}^
    5dc8:	2c365f4e 	ldccs	15, cr5, [r6], #-312	; 0xfffffec8
    5dcc:	54584520 	ldrbpl	r4, [r8], #-1312	; 0xfffffae0
    5dd0:	495f3649 	ldmdbmi	pc, {r0, r3, r6, r9, sl, ip, sp}^	; <UNPREDICTABLE>
    5dd4:	007d5152 	rsbseq	r5, sp, r2, asr r1
    5dd8:	544e4955 	strbpl	r4, [lr], #-2389	; 0xfffff6ab
    5ddc:	41454c5f 	cmpmi	r5, pc, asr ip
    5de0:	34365453 	ldrtcc	r5, [r6], #-1107	; 0xfffffbad
    5de4:	58414d5f 	stmdapl	r1, {r0, r1, r2, r3, r4, r6, r8, sl, fp, lr}^
    5de8:	5f5f2820 	svcpl	0x005f2820
    5dec:	544e4955 	strbpl	r4, [lr], #-2389	; 0xfffff6ab
    5df0:	41454c5f 	cmpmi	r5, pc, asr ip
    5df4:	34365453 	ldrtcc	r5, [r6], #-1107	; 0xfffffbad
    5df8:	58414d5f 	stmdapl	r1, {r0, r1, r2, r3, r4, r6, r8, sl, fp, lr}^
    5dfc:	00295f5f 	eoreq	r5, r9, pc, asr pc
    5e00:	74705f5f 	ldrbtvc	r5, [r0], #-3935	; 0xfffff0a1
    5e04:	20745f72 	rsbscs	r5, r4, r2, ror pc
    5e08:	64696f76 	strbtvs	r6, [r9], #-3958	; 0xfffff08a
    5e0c:	45002a20 	strmi	r2, [r0, #-2592]	; 0xfffff5e0
    5e10:	31495458 	cmpcc	r9, r8, asr r4
    5e14:	52495f34 	subpl	r5, r9, #52, 30	; 0xd0
    5e18:	30342051 	eorscc	r2, r4, r1, asr r0
    5e1c:	45525f00 	ldrbmi	r5, [r2, #-3840]	; 0xfffff100
    5e20:	5f544e45 	svcpl	0x00544e45
    5e24:	54494e49 	strbpl	r4, [r9], #-3657	; 0xfffff1b7
    5e28:	5254505f 	subspl	r5, r4, #95	; 0x5f
    5e2c:	52455a5f 	subpl	r5, r5, #389120	; 0x5f000
    5e30:	2844454f 	stmdacs	r4, {r0, r1, r2, r3, r6, r8, sl, lr}^
    5e34:	29726176 	ldmdbcs	r2!, {r1, r2, r4, r5, r6, r8, sp, lr}^
    5e38:	28207b20 	stmdacs	r0!, {r5, r8, r9, fp, ip, sp, lr}
    5e3c:	29726176 	ldmdbcs	r2!, {r1, r2, r4, r5, r6, r8, sp, lr}^
    5e40:	735f3e2d 	cmpvc	pc, #720	; 0x2d0
    5e44:	6e696474 	mcrvs	4, 3, r6, cr9, cr4, {3}
    5e48:	26203d20 	strtcs	r3, [r0], -r0, lsr #26
    5e4c:	66735f5f 	uhsaxvs	r5, r3, pc	; <UNPREDICTABLE>
    5e50:	3b5d305b 	blcc	1751fc4 <_Min_Stack_Size+0x1751bc4>
    5e54:	61762820 	cmnvs	r6, r0, lsr #16
    5e58:	3e2d2972 			; <UNDEFINED> instruction: 0x3e2d2972
    5e5c:	6474735f 	ldrbtvs	r7, [r4], #-863	; 0xfffffca1
    5e60:	2074756f 	rsbscs	r7, r4, pc, ror #10
    5e64:	5f26203d 	svcpl	0x0026203d
    5e68:	5b66735f 	blpl	19a2bec <_Min_Stack_Size+0x19a27ec>
    5e6c:	203b5d31 	eorscs	r5, fp, r1, lsr sp
    5e70:	72617628 	rsbvc	r7, r1, #40, 12	; 0x2800000
    5e74:	5f3e2d29 	svcpl	0x003e2d29
    5e78:	65647473 	strbvs	r7, [r4, #-1139]!	; 0xfffffb8d
    5e7c:	3d207272 	sfmcc	f7, 4, [r0, #-456]!	; 0xfffffe38
    5e80:	5f5f2620 	svcpl	0x005f2620
    5e84:	325b6673 	subscc	r6, fp, #120586240	; 0x7300000
    5e88:	7d203b5d 	fstmdbxvc	r0!, {d3-d48}	;@ Deprecated
    5e8c:	555f5f00 	ldrbpl	r5, [pc, #-3840]	; 4f94 <_Min_Stack_Size+0x4b94>
    5e90:	43415246 	movtmi	r5, #4678	; 0x1246
    5e94:	42465f54 	submi	r5, r6, #84, 30	; 0x150
    5e98:	5f5f5449 	svcpl	0x005f5449
    5e9c:	00363120 	eorseq	r3, r6, r0, lsr #2
    5ea0:	44555f5f 	ldrbmi	r5, [r5], #-3935	; 0xfffff0a1
    5ea4:	42465f51 	submi	r5, r6, #324	; 0x144
    5ea8:	5f5f5449 	svcpl	0x005f5449
    5eac:	00343620 	eorseq	r3, r4, r0, lsr #12
    5eb0:	42445f5f 	submi	r5, r4, #380	; 0x17c
    5eb4:	4f4e5f4c 	svcmi	0x004e5f4c
    5eb8:	4d5f4d52 	ldclmi	13, cr4, [pc, #-328]	; 5d78 <_Min_Stack_Size+0x5978>
    5ebc:	5f5f5841 	svcpl	0x005f5841
    5ec0:	64282820 	strtvs	r2, [r8], #-2080	; 0xfffff7e0
    5ec4:	6c62756f 	cfstr64vs	mvdx7, [r2], #-444	; 0xfffffe44
    5ec8:	2e312965 	vsubcs.f16	s4, s2, s11	; <UNPREDICTABLE>
    5ecc:	36373937 			; <UNDEFINED> instruction: 0x36373937
    5ed0:	33313339 	teqcc	r1, #-469762048	; 0xe4000000
    5ed4:	32363834 	eorscc	r3, r6, #52, 16	; 0x340000
    5ed8:	37353133 			; <UNDEFINED> instruction: 0x37353133
    5edc:	30332b65 	eorscc	r2, r3, r5, ror #22
    5ee0:	00294c38 	eoreq	r4, r9, r8, lsr ip
    5ee4:	4e475f5f 	mcrmi	15, 2, r5, cr7, cr15, {2}
    5ee8:	494c4355 	stmdbmi	ip, {r0, r2, r4, r6, r8, r9, lr}^
    5eec:	425f454b 	subsmi	r4, pc, #314572800	; 0x12c00000
    5ef0:	544c4955 	strbpl	r4, [ip], #-2389	; 0xfffff6ab
    5ef4:	4d5f4e49 	ldclmi	14, cr4, [pc, #-292]	; 5dd8 <_Min_Stack_Size+0x59d8>
    5ef8:	50434d45 	subpl	r4, r3, r5, asr #26
    5efc:	00312059 	eorseq	r2, r1, r9, asr r0
    5f00:	4c465f5f 	mcrrmi	15, 5, r5, r6, cr15
    5f04:	5f54414f 	svcpl	0x0054414f
    5f08:	45505954 	ldrbmi	r5, [r0, #-2388]	; 0xfffff6ac
    5f0c:	6f6c6620 	svcvs	0x006c6620
    5f10:	5f007461 	svcpl	0x00007461
    5f14:	42444c5f 	submi	r4, r4, #24320	; 0x5f00
    5f18:	414d5f4c 	cmpmi	sp, ip, asr #30
    5f1c:	30315f58 	eorscc	r5, r1, r8, asr pc
    5f20:	5058455f 	subspl	r4, r8, pc, asr r5
    5f24:	33205f5f 			; <UNDEFINED> instruction: 0x33205f5f
    5f28:	45003830 	strmi	r3, [r0, #-2096]	; 0xfffff7d0
    5f2c:	37495458 	smlsldcc	r5, r9, r8, r4
    5f30:	20374450 	eorscs	r4, r7, r0, asr r4
    5f34:	54584528 	ldrbpl	r4, [r8], #-1320	; 0xfffffad8
    5f38:	50475f49 	subpl	r5, r7, r9, asr #30
    5f3c:	4d5f4f49 	ldclmi	15, cr4, [pc, #-292]	; 5e20 <_Min_Stack_Size+0x5a20>
    5f40:	6e697061 	cdpvs	0, 6, cr7, cr9, cr1, {3}
    5f44:	29745f67 	ldmdbcs	r4!, {r0, r1, r2, r5, r6, r8, r9, sl, fp, ip, lr}^
    5f48:	5458457b 	ldrbpl	r4, [r8], #-1403	; 0xfffffa85
    5f4c:	202c3749 	eorcs	r3, ip, r9, asr #14
    5f50:	4f495047 	svcmi	0x00495047
    5f54:	47202c44 	strmi	r2, [r0, -r4, asr #24]!
    5f58:	5f4f4950 	svcpl	0x004f4950
    5f5c:	5f4e4950 	svcpl	0x004e4950
    5f60:	45202c37 	strmi	r2, [r0, #-3127]!	; 0xfffff3c9
    5f64:	37495458 	smlsldcc	r5, r9, r8, r4
    5f68:	5152495f 	cmppl	r2, pc, asr r9
    5f6c:	525f007d 	subspl	r0, pc, #125	; 0x7d
    5f70:	544e4545 	strbpl	r4, [lr], #-1349	; 0xfffffabb
    5f74:	52424d5f 	subpl	r4, r2, #6080	; 0x17c0
    5f78:	5f4e454c 	svcpl	0x004e454c
    5f7c:	54415453 	strbpl	r5, [r1], #-1107	; 0xfffffbad
    5f80:	74702845 	ldrbtvc	r2, [r0], #-2117	; 0xfffff7bb
    5f84:	28202972 	stmdacs	r0!, {r1, r4, r5, r6, r8, fp, sp}
    5f88:	72747028 	rsbsvc	r7, r4, #40	; 0x28
    5f8c:	5f3e2d29 	svcpl	0x003e2d29
    5f90:	6373696d 	cmnvs	r3, #1785856	; 0x1b4000
    5f94:	6d5f3e2d 	ldclvs	14, cr3, [pc, #-180]	; 5ee8 <_Min_Stack_Size+0x5ae8>
    5f98:	656c7262 	strbvs	r7, [ip, #-610]!	; 0xfffffd9e
    5f9c:	74735f6e 	ldrbtvc	r5, [r3], #-3950	; 0xfffff092
    5fa0:	29657461 	stmdbcs	r5!, {r0, r5, r6, sl, ip, sp, lr}^
    5fa4:	434e4900 	movtmi	r4, #59648	; 0xe900
    5fa8:	4d54535f 	ldclmi	3, cr5, [r4, #-380]	; 0xfffffe84
    5fac:	31463233 	cmpcc	r6, r3, lsr r2
    5fb0:	38433330 	stmdacc	r3, {r4, r5, r8, r9, ip, sp}^
    5fb4:	5458455f 	ldrbpl	r4, [r8], #-1375	; 0xfffffaa1
    5fb8:	5f485f49 	svcpl	0x00485f49
    5fbc:	32490020 	subcc	r0, r9, #32
    5fc0:	52535f43 	subspl	r5, r3, #268	; 0x10c
    5fc4:	4d535f32 	ldclmi	15, cr5, [r3, #-200]	; 0xffffff38
    5fc8:	534f4842 	movtpl	r4, #63554	; 0xf842
    5fcc:	32492054 	subcc	r2, r9, #84	; 0x54
    5fd0:	52535f43 	subspl	r5, r3, #268	; 0x10c
    5fd4:	4d535f32 	ldclmi	15, cr5, [r3, #-200]	; 0xffffff38
    5fd8:	534f4842 	movtpl	r4, #63554	; 0xf842
    5fdc:	734d5f54 	movtvc	r5, #57172	; 0xdf54
    5fe0:	475f006b 	ldrbmi	r0, [pc, -fp, rrx]
    5fe4:	41424f4c 	cmpmi	r2, ip, asr #30
    5fe8:	45525f4c 	ldrbmi	r5, [r2, #-3916]	; 0xfffff0b4
    5fec:	20544e45 	subscs	r4, r4, r5, asr #28
    5ff0:	695f2628 	ldmdbvs	pc, {r3, r5, r9, sl, sp}^	; <UNPREDICTABLE>
    5ff4:	7275706d 	rsbsvc	r7, r5, #109	; 0x6d
    5ff8:	61645f65 	cmnvs	r4, r5, ror #30
    5ffc:	00296174 	eoreq	r6, r9, r4, ror r1
    6000:	4e495f5f 	mcrmi	15, 2, r5, cr9, cr15, {2}
    6004:	41465f54 	cmpmi	r6, r4, asr pc
    6008:	32335453 	eorscc	r5, r3, #1392508928	; 0x53000000
    600c:	5059545f 	subspl	r5, r9, pc, asr r4
    6010:	205f5f45 	subscs	r5, pc, r5, asr #30
    6014:	00746e69 	rsbseq	r6, r4, r9, ror #28
    6018:	4e49555f 	mcrmi	5, 2, r5, cr9, cr15, {2}
    601c:	5f343654 	svcpl	0x00343654
    6020:	45445f54 	strbmi	r5, [r4, #-3924]	; 0xfffff0ac
    6024:	52414c43 	subpl	r4, r1, #17152	; 0x4300
    6028:	00204445 	eoreq	r4, r0, r5, asr #8
    602c:	544e4955 	strbpl	r4, [lr], #-2389	; 0xfffff6ab
    6030:	4d5f3436 	cfldrdmi	mvd3, [pc, #-216]	; 5f60 <_Min_Stack_Size+0x5b60>
    6034:	28205841 	stmdacs	r0!, {r0, r6, fp, ip, lr}
    6038:	49555f5f 	ldmdbmi	r5, {r0, r1, r2, r3, r4, r6, r8, r9, sl, fp, ip, lr}^
    603c:	3436544e 	ldrtcc	r5, [r6], #-1102	; 0xfffffbb2
    6040:	58414d5f 	stmdapl	r1, {r0, r1, r2, r3, r4, r6, r8, sl, fp, lr}^
    6044:	00295f5f 	eoreq	r5, r9, pc, asr pc
    6048:	49545845 	ldmdbmi	r4, {r0, r2, r6, fp, ip, lr}^
    604c:	00362036 	eorseq	r2, r6, r6, lsr r0
    6050:	5f433249 	svcpl	0x00433249
    6054:	5f325243 	svcpl	0x00325243
    6058:	45414d44 	strbmi	r4, [r1, #-3396]	; 0xfffff2bc
    605c:	734d5f4e 	movtvc	r5, #57166	; 0xdf4e
    6060:	3028206b 	eorcc	r2, r8, fp, rrx
    6064:	4c553178 	ldfmie	f3, [r5], {120}	; 0x78
    6068:	203c3c20 	eorscs	r3, ip, r0, lsr #24
    606c:	5f433249 	svcpl	0x00433249
    6070:	5f325243 	svcpl	0x00325243
    6074:	45414d44 	strbmi	r4, [r1, #-3396]	; 0xfffff2bc
    6078:	6f505f4e 	svcvs	0x00505f4e
    607c:	5f002973 	svcpl	0x00002973
    6080:	5454415f 	ldrbpl	r4, [r4], #-351	; 0xfffffea1
    6084:	55424952 	strbpl	r4, [r2, #-2386]	; 0xfffff6ae
    6088:	495f4554 	ldmdbmi	pc, {r2, r4, r6, r8, sl, lr}^	; <UNPREDICTABLE>
    608c:	5255504d 	subspl	r5, r5, #77	; 0x4d
    6090:	41445f45 	cmpmi	r4, r5, asr #30
    6094:	5f5f4154 	svcpl	0x005f4154
    6098:	5f5f0020 	svcpl	0x005f0020
    609c:	4c57454e 	cfldr64mi	mvdx4, [r7], {78}	; 0x4e
    60a0:	4d5f4249 	lfmmi	f4, 2, [pc, #-292]	; 5f84 <_Min_Stack_Size+0x5b84>
    60a4:	524f4e49 	subpl	r4, pc, #1168	; 0x490
    60a8:	32205f5f 	eorcc	r5, r0, #380	; 0x17c
    60ac:	54584500 	ldrbpl	r4, [r8], #-1280	; 0xfffffb00
    60b0:	495f3549 	ldmdbmi	pc, {r0, r3, r6, r8, sl, ip, sp}^	; <UNPREDICTABLE>
    60b4:	32205152 	eorcc	r5, r0, #-2147483628	; 0x80000014
    60b8:	5f5f0033 	svcpl	0x005f0033
    60bc:	5f544c46 	svcpl	0x00544c46
    60c0:	5f4e494d 	svcpl	0x004e494d
    60c4:	5f505845 	svcpl	0x00505845
    60c8:	2d28205f 	stccs	0, cr2, [r8, #-380]!	; 0xfffffe84
    60cc:	29353231 	ldmdbcs	r5!, {r0, r4, r5, r9, ip, sp}
    60d0:	465f5f00 	ldrbmi	r5, [pc], -r0, lsl #30
    60d4:	3436544c 	ldrtcc	r5, [r6], #-1100	; 0xfffffbb4
    60d8:	5341485f 	movtpl	r4, #6239	; 0x185f
    60dc:	4955515f 	ldmdbmi	r5, {r0, r1, r2, r3, r4, r6, r8, ip, lr}^
    60e0:	4e5f5445 	cdpmi	4, 5, cr5, cr15, cr5, {2}
    60e4:	5f5f4e41 	svcpl	0x005f4e41
    60e8:	55003120 	strpl	r3, [r0, #-288]	; 0xfffffee0
    60ec:	33544e49 	cmpcc	r4, #1168	; 0x490
    60f0:	28435f32 	stmdacs	r3, {r1, r4, r5, r8, r9, sl, fp, ip, lr}^
    60f4:	5f202978 	svcpl	0x00202978
    60f8:	4e49555f 	mcrmi	5, 2, r5, cr9, cr15, {2}
    60fc:	5f323354 	svcpl	0x00323354
    6100:	29782843 	ldmdbcs	r8!, {r0, r1, r6, fp, sp}^
    6104:	555f5f00 	ldrbpl	r5, [pc, #-3840]	; 520c <_Min_Stack_Size+0x4e0c>
    6108:	43414c4c 	movtmi	r4, #7244	; 0x1c4c
    610c:	5f4d5543 	svcpl	0x004d5543
    6110:	5f58414d 	svcpl	0x0058414d
    6114:	5830205f 	ldmdapl	r0!, {r0, r1, r2, r3, r4, r6, sp}
    6118:	46464646 	strbmi	r4, [r6], -r6, asr #12
    611c:	46464646 	strbmi	r4, [r6], -r6, asr #12
    6120:	46464646 	strbmi	r4, [r6], -r6, asr #12
    6124:	46464646 	strbmi	r4, [r6], -r6, asr #12
    6128:	32332d50 	eorscc	r2, r3, #80, 26	; 0x1400
    612c:	4b4c4c55 	blmi	1319288 <_Min_Stack_Size+0x1318e88>
    6130:	49564e00 	ldmdbmi	r6, {r9, sl, fp, lr}^
    6134:	32495f43 	subcc	r5, r9, #268	; 0x10c
    6138:	455f3143 	ldrbmi	r3, [pc, #-323]	; 5ffd <_Min_Stack_Size+0x5bfd>
    613c:	52495f52 	subpl	r5, r9, #328	; 0x148
    6140:	5f323351 	svcpl	0x00323351
    6144:	41534944 	cmpmi	r3, r4, asr #18
    6148:	20454c42 	subcs	r4, r5, r2, asr #24
    614c:	49564e28 	ldmdbmi	r6, {r3, r5, r9, sl, fp, lr}^
    6150:	43495f43 	movtmi	r5, #40771	; 0x9f43
    6154:	20315245 	eorscs	r5, r1, r5, asr #4
    6158:	31203d7c 			; <UNDEFINED> instruction: 0x31203d7c
    615c:	203c3c20 	eorscs	r3, ip, r0, lsr #24
    6160:	43324928 	teqmi	r2, #40, 18	; 0xa0000
    6164:	52455f31 	subpl	r5, r5, #49, 30	; 0xc4
    6168:	5152495f 	cmppl	r2, pc, asr r9
    616c:	2932332d 	ldmdbcs	r2!, {r0, r2, r3, r5, r8, r9, ip, sp}
    6170:	5f003b29 	svcpl	0x00003b29
    6174:	4153555f 	cmpmi	r3, pc, asr r5
    6178:	4d554343 	ldclmi	3, cr4, [r5, #-268]	; 0xfffffef4
    617c:	4942495f 	stmdbmi	r2, {r0, r1, r2, r3, r4, r6, r8, fp, lr}^
    6180:	205f5f54 	subscs	r5, pc, r4, asr pc	; <UNPREDICTABLE>
    6184:	5f5f0038 	svcpl	0x005f0038
    6188:	5f585847 	svcpl	0x00585847
    618c:	45505954 	ldrbmi	r5, [r0, #-2388]	; 0xfffff6ac
    6190:	4f464e49 	svcmi	0x00464e49
    6194:	5551455f 	ldrbpl	r4, [r1, #-1375]	; 0xfffffaa1
    6198:	54494c41 	strbpl	r4, [r9], #-3137	; 0xfffff3bf
    619c:	4e495f59 	mcrmi	15, 2, r5, cr9, cr9, {2}
    61a0:	454e494c 	strbmi	r4, [lr, #-2380]	; 0xfffff6b4
    61a4:	49003020 	stmdbmi	r0, {r5, ip, sp}
    61a8:	435f4332 	cmpmi	pc, #-939524096	; 0xc8000000
    61ac:	495f3252 	ldmdbmi	pc, {r1, r4, r6, r9, ip, sp}^	; <UNPREDICTABLE>
    61b0:	54564554 	ldrbpl	r4, [r6], #-1364	; 0xfffffaac
    61b4:	49204e45 	stmdbmi	r0!, {r0, r2, r6, r9, sl, fp, lr}
    61b8:	435f4332 	cmpmi	pc, #-939524096	; 0xc8000000
    61bc:	495f3252 	ldmdbmi	pc, {r1, r4, r6, r9, ip, sp}^	; <UNPREDICTABLE>
    61c0:	54564554 	ldrbpl	r4, [r6], #-1364	; 0xfffffaac
    61c4:	4d5f4e45 	ldclmi	14, cr4, [pc, #-276]	; 60b8 <_Min_Stack_Size+0x5cb8>
    61c8:	49006b73 	stmdbmi	r0, {r0, r1, r4, r5, r6, r8, r9, fp, sp, lr}
    61cc:	465f544e 	ldrbmi	r5, [pc], -lr, asr #8
    61d0:	38545341 	ldmdacc	r4, {r0, r6, r8, r9, ip, lr}^
    61d4:	4e494d5f 	mcrmi	13, 2, r4, cr9, cr15, {2}
    61d8:	5f2d2820 	svcpl	0x002d2820
    61dc:	544e495f 	strbpl	r4, [lr], #-2399	; 0xfffff6a1
    61e0:	5341465f 	movtpl	r4, #5727	; 0x165f
    61e4:	4d5f3854 	ldclmi	8, cr3, [pc, #-336]	; 609c <_Min_Stack_Size+0x5c9c>
    61e8:	5f5f5841 	svcpl	0x005f5841
    61ec:	31202d20 			; <UNDEFINED> instruction: 0x31202d20
    61f0:	5f5f0029 	svcpl	0x005f0029
    61f4:	64657270 	strbtvs	r7, [r5], #-624	; 0xfffffd90
    61f8:	5f746369 	svcpl	0x00746369
    61fc:	736c6166 	cmnvc	ip, #-2147483623	; 0x80000019
    6200:	78652865 	stmdavc	r5!, {r0, r2, r5, r6, fp, sp}^
    6204:	5f202970 	svcpl	0x00202970
    6208:	6975625f 	ldmdbvs	r5!, {r0, r1, r2, r3, r4, r6, r9, sp, lr}^
    620c:	6e69746c 	cdpvs	4, 6, cr7, cr9, cr12, {3}
    6210:	7078655f 	rsbsvc	r6, r8, pc, asr r5
    6214:	28746365 	ldmdacs	r4!, {r0, r2, r5, r6, r8, r9, sp, lr}^
    6218:	70786528 	rsbsvc	r6, r8, r8, lsr #10
    621c:	30202c29 	eorcc	r2, r0, r9, lsr #24
    6220:	5f5f0029 	svcpl	0x005f0029
    6224:	36544c46 	ldrbcc	r4, [r4], -r6, asr #24
    6228:	41485f34 	cmpmi	r8, r4, lsr pc
    622c:	45445f53 	strbmi	r5, [r4, #-3923]	; 0xfffff0ad
    6230:	4d524f4e 	ldclmi	15, cr4, [r2, #-312]	; 0xfffffec8
    6234:	31205f5f 			; <UNDEFINED> instruction: 0x31205f5f
    6238:	465f5f00 	ldrbmi	r5, [pc], -r0, lsl #30
    623c:	445f544c 	ldrbmi	r5, [pc], #-1100	; 6244 <_Min_Stack_Size+0x5e44>
    6240:	5f5f4749 	svcpl	0x005f4749
    6244:	5f003620 	svcpl	0x00003620
    6248:	4341555f 	movtmi	r5, #5471	; 0x155f
    624c:	5f4d5543 	svcpl	0x004d5543
    6250:	49535045 	ldmdbmi	r3, {r0, r2, r6, ip, lr}^
    6254:	5f4e4f4c 	svcpl	0x004e4f4c
    6258:	7830205f 	ldmdavc	r0!, {r0, r1, r2, r3, r4, r6, sp}
    625c:	312d5031 			; <UNDEFINED> instruction: 0x312d5031
    6260:	004b5536 	subeq	r5, fp, r6, lsr r5
    6264:	4843575f 	stmdami	r3, {r0, r1, r2, r3, r4, r6, r8, r9, sl, ip, lr}^
    6268:	545f5241 	ldrbpl	r5, [pc], #-577	; 6270 <_Min_Stack_Size+0x5e70>
    626c:	4345445f 	movtmi	r4, #21599	; 0x545f
    6270:	4552414c 	ldrbmi	r4, [r2, #-332]	; 0xfffffeb4
    6274:	49002044 	stmdbmi	r0, {r2, r6, sp}
    6278:	465f544e 	ldrbmi	r5, [pc], -lr, asr #8
    627c:	31545341 	cmpcc	r4, r1, asr #6
    6280:	414d5f36 	cmpmi	sp, r6, lsr pc
    6284:	5f282058 	svcpl	0x00282058
    6288:	544e495f 	strbpl	r4, [lr], #-2399	; 0xfffff6a1
    628c:	5341465f 	movtpl	r4, #5727	; 0x165f
    6290:	5f363154 	svcpl	0x00363154
    6294:	5f58414d 	svcpl	0x0058414d
    6298:	4e00295f 			; <UNDEFINED> instruction: 0x4e00295f
    629c:	5f434956 	svcpl	0x00434956
    62a0:	39515249 	ldmdbcc	r1, {r0, r3, r6, r9, ip, lr}^
    62a4:	5458455f 	ldrbpl	r4, [r8], #-1375	; 0xfffffaa1
    62a8:	455f3349 	ldrbmi	r3, [pc, #-841]	; 5f67 <_Min_Stack_Size+0x5b67>
    62ac:	6c62616e 	stfvse	f6, [r2], #-440	; 0xfffffe48
    62b0:	4e282065 	cdpmi	0, 2, cr2, cr8, cr5, {3}
    62b4:	5f434956 	svcpl	0x00434956
    62b8:	52455349 	subpl	r5, r5, #603979777	; 0x24000001
    62bc:	3d7c2030 	ldclcc	0, cr2, [ip, #-192]!	; 0xffffff40
    62c0:	3c3c3120 	ldfccs	f3, [ip], #-128	; 0xffffff80
    62c4:	5f002939 	svcpl	0x00002939
    62c8:	5f535953 	svcpl	0x00535953
    62cc:	4e454552 	mcrmi	5, 2, r4, cr5, cr2, {2}
    62d0:	5f485f54 	svcpl	0x00485f54
    62d4:	5f5f0020 	svcpl	0x005f0020
    62d8:	5f544c46 	svcpl	0x00544c46
    62dc:	4c415645 	mcrrmi	6, 4, r5, r1, cr5
    62e0:	54454d5f 	strbpl	r4, [r5], #-3423	; 0xfffff2a1
    62e4:	5f444f48 	svcpl	0x00444f48
    62e8:	0030205f 	eorseq	r2, r0, pc, asr r0
    62ec:	6e695f5f 	mcrvs	15, 3, r5, cr9, cr15, {2}
    62f0:	61665f74 	smcvs	26100	; 0x65f4
    62f4:	36317473 			; <UNDEFINED> instruction: 0x36317473
    62f8:	645f745f 	ldrbvs	r7, [pc], #-1119	; 6300 <_Min_Stack_Size+0x5f00>
    62fc:	6e696665 	cdpvs	6, 6, cr6, cr9, cr5, {3}
    6300:	31206465 			; <UNDEFINED> instruction: 0x31206465
    6304:	535f5f00 	cmppl	pc, #0, 30
    6308:	52414843 	subpl	r4, r1, #4390912	; 0x430000
    630c:	58414d5f 	stmdapl	r1, {r0, r1, r2, r3, r4, r6, r8, sl, fp, lr}^
    6310:	30205f5f 	eorcc	r5, r0, pc, asr pc
    6314:	00663778 	rsbeq	r3, r6, r8, ror r7
    6318:	49545845 	ldmdbmi	r4, {r0, r2, r6, fp, ip, lr}^
    631c:	30435030 	subcc	r5, r3, r0, lsr r0
    6320:	58452820 	stmdapl	r5, {r5, fp, sp}^
    6324:	475f4954 			; <UNDEFINED> instruction: 0x475f4954
    6328:	5f4f4950 	svcpl	0x004f4950
    632c:	6970614d 	ldmdbvs	r0!, {r0, r2, r3, r6, r8, sp, lr}^
    6330:	745f676e 	ldrbvc	r6, [pc], #-1902	; 6338 <_Min_Stack_Size+0x5f38>
    6334:	58457b29 	stmdapl	r5, {r0, r3, r5, r8, r9, fp, ip, sp, lr}^
    6338:	2c304954 			; <UNDEFINED> instruction: 0x2c304954
    633c:	49504720 	ldmdbmi	r0, {r5, r8, r9, sl, lr}^
    6340:	202c434f 	eorcs	r4, ip, pc, asr #6
    6344:	4f495047 	svcmi	0x00495047
    6348:	4e49505f 	mcrmi	0, 2, r5, cr9, cr15, {2}
    634c:	202c305f 	eorcs	r3, ip, pc, asr r0
    6350:	49545845 	ldmdbmi	r4, {r0, r2, r6, fp, ip, lr}^
    6354:	52495f30 	subpl	r5, r9, #48, 30	; 0xc0
    6358:	5f007d51 	svcpl	0x00007d51
    635c:	544e495f 	strbpl	r4, [lr], #-2399	; 0xfffff6a1
    6360:	5341465f 	movtpl	r4, #5727	; 0x165f
    6364:	575f3854 			; <UNDEFINED> instruction: 0x575f3854
    6368:	48544449 	ldmdami	r4, {r0, r3, r6, sl, lr}^
    636c:	33205f5f 			; <UNDEFINED> instruction: 0x33205f5f
    6370:	5f5f0032 	svcpl	0x005f0032
    6374:	43445453 	movtmi	r5, #17491	; 0x4453
    6378:	4654555f 			; <UNDEFINED> instruction: 0x4654555f
    637c:	5f36315f 	svcpl	0x0036315f
    6380:	0031205f 	eorseq	r2, r1, pc, asr r0
    6384:	4e41525f 	mcrmi	2, 2, r5, cr1, cr15, {2}
    6388:	5f383444 	svcpl	0x00383444
    638c:	544c554d 	strbpl	r5, [ip], #-1357	; 0xfffffab3
    6390:	2820325f 	stmdacs	r0!, {r0, r1, r2, r3, r4, r6, r9, ip, sp}
    6394:	30307830 	eorscc	r7, r0, r0, lsr r8
    6398:	00293530 	eoreq	r3, r9, r0, lsr r5
    639c:	52415f5f 	subpl	r5, r1, #380	; 0x17c
    63a0:	45465f4d 	strbmi	r5, [r6, #-3917]	; 0xfffff0b3
    63a4:	52555441 	subspl	r5, r5, #1090519040	; 0x41000000
    63a8:	444c5f45 	strbmi	r5, [ip], #-3909	; 0xfffff0bb
    63ac:	00584552 	subseq	r4, r8, r2, asr r5
    63b0:	4545525f 	strbmi	r5, [r5, #-607]	; 0xfffffda1
    63b4:	435f544e 	cmpmi	pc, #1308622848	; 0x4e000000
    63b8:	4b434548 	blmi	10d78e0 <_Min_Stack_Size+0x10d74e0>
    63bc:	53494d5f 	movtpl	r4, #40287	; 0x9d5f
    63c0:	61762843 	cmnvs	r6, r3, asr #16
    63c4:	5f202972 	svcpl	0x00202972
    63c8:	4e454552 	mcrmi	5, 2, r4, cr5, cr2, {2}
    63cc:	48435f54 	stmdami	r3, {r2, r4, r6, r8, r9, sl, fp, ip, lr}^
    63d0:	284b4345 	stmdacs	fp, {r0, r2, r6, r8, r9, lr}^
    63d4:	2c726176 	ldfcse	f6, [r2], #-472	; 0xfffffe28
    63d8:	696d5f20 	stmdbvs	sp!, {r5, r8, r9, sl, fp, ip, lr}^
    63dc:	202c6373 	eorcs	r6, ip, r3, ror r3
    63e0:	75727473 	ldrbvc	r7, [r2, #-1139]!	; 0xfffffb8d
    63e4:	5f207463 	svcpl	0x00207463
    63e8:	6373696d 	cmnvs	r3, #1785856	; 0x1b4000
    63ec:	6565725f 	strbvs	r7, [r5, #-607]!	; 0xfffffda1
    63f0:	2a20746e 	bcs	8235b0 <_Min_Stack_Size+0x8231b0>
    63f4:	6973202c 	ldmdbvs	r3!, {r2, r3, r5, sp}^
    63f8:	666f657a 			; <UNDEFINED> instruction: 0x666f657a
    63fc:	28282a20 	stmdacs	r8!, {r5, r9, fp, sp}
    6400:	29726176 	ldmdbcs	r2!, {r1, r2, r4, r5, r6, r8, sp, lr}^
    6404:	6d5f3e2d 	ldclvs	14, cr3, [pc, #-180]	; 6358 <_Min_Stack_Size+0x5f58>
    6408:	29637369 	stmdbcs	r3!, {r0, r3, r5, r6, r8, r9, ip, sp, lr}^
    640c:	525f202c 	subspl	r2, pc, #44	; 0x2c
    6410:	544e4545 	strbpl	r4, [lr], #-1349	; 0xfffffabb
    6414:	494e495f 	stmdbmi	lr, {r0, r1, r2, r3, r4, r6, r8, fp, lr}^
    6418:	494d5f54 	stmdbmi	sp, {r2, r4, r6, r8, r9, sl, fp, ip, lr}^
    641c:	76284353 			; <UNDEFINED> instruction: 0x76284353
    6420:	29297261 	stmdbcs	r9!, {r0, r5, r6, r9, ip, sp, lr}
    6424:	5f545f00 	svcpl	0x00545f00
    6428:	44525450 	ldrbmi	r5, [r2], #-1104	; 0xfffffbb0
    642c:	20464649 	subcs	r4, r6, r9, asr #12
    6430:	54584500 	ldrbpl	r4, [r8], #-1280	; 0xfffffb00
    6434:	42503449 	subsmi	r3, r0, #1224736768	; 0x49000000
    6438:	45282034 	strmi	r2, [r8, #-52]!	; 0xffffffcc
    643c:	5f495458 	svcpl	0x00495458
    6440:	4f495047 	svcmi	0x00495047
    6444:	70614d5f 	rsbvc	r4, r1, pc, asr sp
    6448:	5f676e69 	svcpl	0x00676e69
    644c:	457b2974 	ldrbmi	r2, [fp, #-2420]!	; 0xfffff68c
    6450:	34495458 	strbcc	r5, [r9], #-1112	; 0xfffffba8
    6454:	5047202c 	subpl	r2, r7, ip, lsr #32
    6458:	2c424f49 	mcrrcs	15, 4, r4, r2, cr9
    645c:	49504720 	ldmdbmi	r0, {r5, r8, r9, sl, lr}^
    6460:	49505f4f 	ldmdbmi	r0, {r0, r1, r2, r3, r6, r8, r9, sl, fp, ip, lr}^
    6464:	2c345f4e 	ldccs	15, cr5, [r4], #-312	; 0xfffffec8
    6468:	54584520 	ldrbpl	r4, [r8], #-1312	; 0xfffffae0
    646c:	495f3449 	ldmdbmi	pc, {r0, r3, r6, sl, ip, sp}^	; <UNPREDICTABLE>
    6470:	007d5152 	rsbseq	r5, sp, r2, asr r1
    6474:	5f433249 	svcpl	0x00433249
    6478:	5f315243 	svcpl	0x00315243
    647c:	55424d53 	strbpl	r4, [r2, #-3411]	; 0xfffff2ad
    6480:	734d5f53 	movtvc	r5, #57171	; 0xdf53
    6484:	3028206b 	eorcc	r2, r8, fp, rrx
    6488:	4c553178 	ldfmie	f3, [r5], {120}	; 0x78
    648c:	203c3c20 	eorscs	r3, ip, r0, lsr #24
    6490:	5f433249 	svcpl	0x00433249
    6494:	5f315243 	svcpl	0x00315243
    6498:	55424d53 	strbpl	r4, [r2, #-3411]	; 0xfffff2ad
    649c:	6f505f53 	svcvs	0x00505f53
    64a0:	5f002973 	svcpl	0x00002973
    64a4:	4d52415f 	ldfmie	f4, [r2, #-380]	; 0xfffffe84
    64a8:	3150465f 	cmpcc	r0, pc, asr r6
    64ac:	52415f36 	subpl	r5, r1, #54, 30	; 0xd8
    64b0:	5f005347 	svcpl	0x00005347
    64b4:	4343475f 	movtmi	r4, #14175	; 0x375f
    64b8:	4345495f 	movtmi	r4, #22879	; 0x595f
    64bc:	3935355f 	ldmdbcc	r5!, {r0, r1, r2, r3, r4, r6, r8, sl, ip, sp}
    64c0:	5f003020 	svcpl	0x00003020
    64c4:	6c756e5f 	ldclvs	14, cr6, [r5], #-380	; 0xfffffe84
    64c8:	65735f6c 	ldrbvs	r5, [r3, #-3948]!	; 0xfffff094
    64cc:	6e69746e 	cdpvs	4, 6, cr7, cr9, cr14, {3}
    64d0:	5f206c65 	svcpl	0x00206c65
    64d4:	7474615f 	ldrbtvc	r6, [r4], #-351	; 0xfffffea1
    64d8:	75626972 	strbvc	r6, [r2, #-2418]!	; 0xfffff68e
    64dc:	5f5f6574 	svcpl	0x005f6574
    64e0:	5f5f2828 	svcpl	0x005f2828
    64e4:	746e6573 	strbtvc	r6, [lr], #-1395	; 0xfffffa8d
    64e8:	6c656e69 	stclvs	14, cr6, [r5], #-420	; 0xfffffe5c
    64ec:	29295f5f 	stmdbcs	r9!, {r0, r1, r2, r3, r4, r6, r8, r9, sl, fp, ip, lr}
    64f0:	725f5f00 	subsvc	r5, pc, #0, 30
    64f4:	69757165 	ldmdbvs	r5!, {r0, r2, r5, r6, r8, ip, sp, lr}^
    64f8:	5f736572 	svcpl	0x00736572
    64fc:	6f6c6e75 	svcvs	0x006c6e75
    6500:	64656b63 	strbtvs	r6, [r5], #-2915	; 0xfffff49d
    6504:	2e2e2e28 	cdpcs	14, 2, cr2, cr14, cr8, {1}
    6508:	5f5f2029 	svcpl	0x005f2029
    650c:	6b636f6c 	blvs	18e22c4 <_Min_Stack_Size+0x18e1ec4>
    6510:	6e6e615f 	mcrvs	1, 3, r6, cr14, cr15, {2}
    6514:	7461746f 	strbtvc	r7, [r1], #-1135	; 0xfffffb91
    6518:	6f6c2865 	svcvs	0x006c2865
    651c:	5f736b63 	svcpl	0x00736b63
    6520:	6c637865 	stclvs	8, cr7, [r3], #-404	; 0xfffffe6c
    6524:	64656475 	strbtvs	r6, [r5], #-1141	; 0xfffffb8b
    6528:	565f5f28 	ldrbpl	r5, [pc], -r8, lsr #30
    652c:	52415f41 	subpl	r5, r1, #260	; 0x104
    6530:	5f5f5347 	svcpl	0x005f5347
    6534:	63002929 	movwvs	r2, #2345	; 0x929
    6538:	20726168 	rsbscs	r6, r2, r8, ror #2
    653c:	6100302b 	tstvs	r0, fp, lsr #32
    6540:	636f6c6c 	cmnvs	pc, #108, 24	; 0x6c00
    6544:	5f5f0061 	svcpl	0x005f0061
    6548:	4152464c 	cmpmi	r2, ip, asr #12
    654c:	4d5f5443 	cfldrdmi	mvd5, [pc, #-268]	; 6448 <_Min_Stack_Size+0x6048>
    6550:	5f5f5841 	svcpl	0x005f5841
    6554:	37583020 	ldrbcc	r3, [r8, -r0, lsr #32]
    6558:	46464646 	strbmi	r4, [r6], -r6, asr #12
    655c:	50464646 	subpl	r4, r6, r6, asr #12
    6560:	4c31332d 	ldcmi	3, cr3, [r1], #-180	; 0xffffff4c
    6564:	5f5f0052 	svcpl	0x005f0052
    6568:	455a4953 	ldrbmi	r4, [sl, #-2387]	; 0xfffff6ad
    656c:	505f464f 	subspl	r4, pc, pc, asr #12
    6570:	49445254 	stmdbmi	r4, {r2, r4, r6, r9, ip, lr}^
    6574:	545f4646 	ldrbpl	r4, [pc], #-1606	; 657c <_Min_Stack_Size+0x617c>
    6578:	34205f5f 	strtcc	r5, [r0], #-3935	; 0xfffff0a1
    657c:	54584500 	ldrbpl	r4, [r8], #-1280	; 0xfffffb00
    6580:	20313149 	eorscs	r3, r1, r9, asr #2
    6584:	5f003131 	svcpl	0x00003131
    6588:	4843575f 	stmdami	r3, {r0, r1, r2, r3, r4, r6, r8, r9, sl, ip, lr}^
    658c:	545f5241 	ldrbpl	r5, [pc], #-577	; 6594 <_Min_Stack_Size+0x6194>
    6590:	00205f5f 	eoreq	r5, r0, pc, asr pc
    6594:	5f433249 	svcpl	0x00433249
    6598:	5f315253 	svcpl	0x00315253
    659c:	45434550 	strbmi	r4, [r3, #-1360]	; 0xfffffab0
    65a0:	49205252 	stmdbmi	r0!, {r1, r4, r6, r9, ip, lr}
    65a4:	535f4332 	cmppl	pc, #-939524096	; 0xc8000000
    65a8:	505f3152 	subspl	r3, pc, r2, asr r1	; <UNPREDICTABLE>
    65ac:	52454345 	subpl	r4, r5, #335544321	; 0x14000001
    65b0:	734d5f52 	movtvc	r5, #57170	; 0xdf52
    65b4:	5f5f006b 	svcpl	0x005f006b
    65b8:	746e695f 	strbtvc	r6, [lr], #-2399	; 0xfffff6a1
    65bc:	61656c5f 	cmnvs	r5, pc, asr ip
    65c0:	5f387473 	svcpl	0x00387473
    65c4:	65645f74 	strbvs	r5, [r4, #-3956]!	; 0xfffff08c
    65c8:	656e6966 	strbvs	r6, [lr, #-2406]!	; 0xfffff69a
    65cc:	00312064 	eorseq	r2, r1, r4, rrx
    65d0:	52415f5f 	subpl	r5, r1, #380	; 0x17c
    65d4:	45465f4d 	strbmi	r5, [r6, #-3917]	; 0xfffff0b3
    65d8:	52555441 	subspl	r5, r5, #1090519040	; 0x41000000
    65dc:	44495f45 	strbmi	r5, [r9], #-3909	; 0xfffff0bb
    65e0:	31205649 			; <UNDEFINED> instruction: 0x31205649
    65e4:	465f5f00 	ldrbmi	r5, [pc], -r0, lsl #30
    65e8:	54414f4c 	strbpl	r4, [r1], #-3916	; 0xfffff0b4
    65ec:	524f575f 	subpl	r5, pc, #24903680	; 0x17c0000
    65f0:	524f5f44 	subpl	r5, pc, #68, 30	; 0x110
    65f4:	5f524544 	svcpl	0x00524544
    65f8:	5f5f205f 	svcpl	0x005f205f
    65fc:	4544524f 	strbmi	r5, [r4, #-591]	; 0xfffffdb1
    6600:	494c5f52 	stmdbmi	ip, {r1, r4, r6, r8, r9, sl, fp, ip, lr}^
    6604:	454c5454 	strbmi	r5, [ip, #-1108]	; 0xfffffbac
    6608:	444e455f 	strbmi	r4, [lr], #-1375	; 0xfffffaa1
    660c:	5f4e4149 	svcpl	0x004e4149
    6610:	564e005f 			; <UNDEFINED> instruction: 0x564e005f
    6614:	495f4349 	ldmdbmi	pc, {r0, r3, r6, r8, r9, lr}^	; <UNPREDICTABLE>
    6618:	5f385152 	svcpl	0x00385152
    661c:	49545845 	ldmdbmi	r4, {r0, r2, r6, fp, ip, lr}^
    6620:	69445f32 	stmdbvs	r4, {r1, r4, r5, r8, r9, sl, fp, ip, lr}^
    6624:	6c626173 	stfvse	f6, [r2], #-460	; 0xfffffe34
    6628:	4e282065 	cdpmi	0, 2, cr2, cr8, cr5, {3}
    662c:	5f434956 	svcpl	0x00434956
    6630:	52454349 	subpl	r4, r5, #603979777	; 0x24000001
    6634:	3d7c2030 	ldclcc	0, cr2, [ip, #-192]!	; 0xffffff40
    6638:	3c3c3120 	ldfccs	f3, [ip], #-128	; 0xffffff80
    663c:	5f002938 	svcpl	0x00002938
    6640:	5f434347 	svcpl	0x00434347
    6644:	41484357 	cmpmi	r8, r7, asr r3
    6648:	20545f52 	subscs	r5, r4, r2, asr pc
    664c:	755f5f00 	ldrbvc	r5, [pc, #-3840]	; 5754 <_Min_Stack_Size+0x5354>
    6650:	636f6c6e 	cmnvs	pc, #28160	; 0x6e00
    6654:	2e28736b 	cdpcs	3, 2, cr7, cr8, cr11, {3}
    6658:	20292e2e 	eorcs	r2, r9, lr, lsr #28
    665c:	6f6c5f5f 	svcvs	0x006c5f5f
    6660:	615f6b63 	cmpvs	pc, r3, ror #22
    6664:	746f6e6e 	strbtvc	r6, [pc], #-3694	; 666c <_Min_Stack_Size+0x626c>
    6668:	28657461 	stmdacs	r5!, {r0, r5, r6, sl, ip, sp, lr}^
    666c:	6f6c6e75 	svcvs	0x006c6e75
    6670:	665f6b63 	ldrbvs	r6, [pc], -r3, ror #22
    6674:	74636e75 	strbtvc	r6, [r3], #-3701	; 0xfffff18b
    6678:	286e6f69 	stmdacs	lr!, {r0, r3, r5, r6, r8, r9, sl, fp, sp, lr}^
    667c:	41565f5f 	cmpmi	r6, pc, asr pc
    6680:	4752415f 			; <UNDEFINED> instruction: 0x4752415f
    6684:	295f5f53 	ldmdbcs	pc, {r0, r1, r4, r6, r8, r9, sl, fp, ip, lr}^	; <UNPREDICTABLE>
    6688:	5f5f0029 	svcpl	0x005f0029
    668c:	4f505845 	svcmi	0x00505845
    6690:	00205452 	eoreq	r5, r0, r2, asr r4
    6694:	52415f5f 	subpl	r5, r1, #380	; 0x17c
    6698:	45465f4d 	strbmi	r5, [r6, #-3917]	; 0xfffff0b3
    669c:	52555441 	subspl	r5, r5, #1090519040	; 0x41000000
    66a0:	4f435f45 	svcmi	0x00435f45
    66a4:	434f5250 	movtmi	r5, #62032	; 0xf250
    66a8:	00353120 	eorseq	r3, r5, r0, lsr #2
    66ac:	424f5f5f 	submi	r5, pc, #380	; 0x17c
    66b0:	454c4f53 	strbmi	r4, [ip, #-3923]	; 0xfffff0ad
    66b4:	4d5f4554 	cfldr64mi	mvdx4, [pc, #-336]	; 656c <_Min_Stack_Size+0x616c>
    66b8:	5f485441 	svcpl	0x00485441
    66bc:	41464544 	cmpmi	r6, r4, asr #10
    66c0:	20544c55 	subscs	r4, r4, r5, asr ip
    66c4:	5f5f0031 	svcpl	0x005f0031
    66c8:	54524853 	ldrbpl	r4, [r2], #-2131	; 0xfffff7ad
    66cc:	4449575f 	strbmi	r5, [r9], #-1887	; 0xfffff8a1
    66d0:	5f5f4854 	svcpl	0x005f4854
    66d4:	00363120 	eorseq	r3, r6, r0, lsr #2
    66d8:	4145525f 	cmpmi	r5, pc, asr r2
    66dc:	52575f44 	subspl	r5, r7, #68, 30	; 0x110
    66e0:	5f455449 	svcpl	0x00455449
    66e4:	53465542 	movtpl	r5, #25922	; 0x6542
    66e8:	5f455a49 	svcpl	0x00455a49
    66ec:	45505954 	ldrbmi	r5, [r0, #-2388]	; 0xfffff6ac
    66f0:	746e6920 	strbtvc	r6, [lr], #-2336	; 0xfffff6e0
    66f4:	49564e00 	ldmdbmi	r6, {r9, sl, fp, lr}^
    66f8:	32495f43 	subcc	r5, r9, #268	; 0x10c
    66fc:	455f3243 	ldrbmi	r3, [pc, #-579]	; 64c1 <_Min_Stack_Size+0x60c1>
    6700:	52495f52 	subpl	r5, r9, #328	; 0x148
    6704:	5f343351 	svcpl	0x00343351
    6708:	41534944 	cmpmi	r3, r4, asr #18
    670c:	20454c42 	subcs	r4, r5, r2, asr #24
    6710:	49564e28 	ldmdbmi	r6, {r3, r5, r9, sl, fp, lr}^
    6714:	43495f43 	movtmi	r5, #40771	; 0x9f43
    6718:	20315245 	eorscs	r5, r1, r5, asr #4
    671c:	31203d7c 			; <UNDEFINED> instruction: 0x31203d7c
    6720:	203c3c20 	eorscs	r3, ip, r0, lsr #24
    6724:	43324928 	teqmi	r2, #40, 18	; 0xa0000
    6728:	52455f32 	subpl	r5, r5, #50, 30	; 0xc8
    672c:	5152495f 	cmppl	r2, pc, asr r9
    6730:	2932332d 	ldmdbcs	r2!, {r0, r2, r3, r5, r8, r9, ip, sp}
    6734:	45003b29 	strmi	r3, [r0, #-2857]	; 0xfffff4d7
    6738:	31495458 	cmpcc	r9, r8, asr r4
    673c:	31435030 	cmpcc	r3, r0, lsr r0
    6740:	45282030 	strmi	r2, [r8, #-48]!	; 0xffffffd0
    6744:	5f495458 	svcpl	0x00495458
    6748:	4f495047 	svcmi	0x00495047
    674c:	70614d5f 	rsbvc	r4, r1, pc, asr sp
    6750:	5f676e69 	svcpl	0x00676e69
    6754:	457b2974 	ldrbmi	r2, [fp, #-2420]!	; 0xfffff68c
    6758:	31495458 	cmpcc	r9, r8, asr r4
    675c:	47202c30 			; <UNDEFINED> instruction: 0x47202c30
    6760:	434f4950 	movtmi	r4, #63824	; 0xf950
    6764:	5047202c 	subpl	r2, r7, ip, lsr #32
    6768:	505f4f49 	subspl	r4, pc, r9, asr #30
    676c:	315f4e49 	cmpcc	pc, r9, asr #28
    6770:	45202c30 	strmi	r2, [r0, #-3120]!	; 0xfffff3d0
    6774:	31495458 	cmpcc	r9, r8, asr r4
    6778:	52495f30 	subpl	r5, r9, #48, 30	; 0xc0
    677c:	49007d51 	stmdbmi	r0, {r0, r4, r6, r8, sl, fp, ip, sp, lr}
    6780:	535f4332 	cmppl	pc, #-939524096	; 0xc8000000
    6784:	535f3152 	cmppl	pc, #-2147483628	; 0x80000014
    6788:	46504f54 	usaxmi	r4, r0, r4
    678c:	736f505f 	cmnvc	pc, #95	; 0x5f
    6790:	55342820 	ldrpl	r2, [r4, #-2080]!	; 0xfffff7e0
    6794:	4e490029 	cdpmi	0, 4, cr0, cr9, cr9, {1}
    6798:	52545054 	subspl	r5, r4, #84	; 0x54
    679c:	58414d5f 	stmdapl	r1, {r0, r1, r2, r3, r4, r6, r8, sl, fp, lr}^
    67a0:	5f5f2820 	svcpl	0x005f2820
    67a4:	50544e49 	subspl	r4, r4, r9, asr #28
    67a8:	4d5f5254 	lfmmi	f5, 2, [pc, #-336]	; 6660 <_Min_Stack_Size+0x6260>
    67ac:	5f5f5841 	svcpl	0x005f5841
    67b0:	5f5f0029 	svcpl	0x005f0029
    67b4:	4f504d49 	svcmi	0x00504d49
    67b8:	00205452 	eoreq	r5, r0, r2, asr r4
    67bc:	4e41525f 	mcrmi	2, 2, r5, cr1, cr15, {2}
    67c0:	5f383444 	svcpl	0x00383444
    67c4:	44454553 	strbmi	r4, [r5], #-1363	; 0xfffffaad
    67c8:	2820325f 	stmdacs	r0!, {r0, r1, r2, r3, r4, r6, r9, ip, sp}
    67cc:	32317830 	eorscc	r7, r1, #48, 16	; 0x300000
    67d0:	00293433 	eoreq	r3, r9, r3, lsr r4
    67d4:	5254505f 	subspl	r5, r4, #95	; 0x5f
    67d8:	46464944 	strbmi	r4, [r6], -r4, asr #18
    67dc:	445f545f 	ldrbmi	r5, [pc], #-1119	; 67e4 <_Min_Stack_Size+0x63e4>
    67e0:	414c4345 	cmpmi	ip, r5, asr #6
    67e4:	20444552 	subcs	r4, r4, r2, asr r5
    67e8:	555f5f00 	ldrbpl	r5, [pc, #-3840]	; 58f0 <_Min_Stack_Size+0x54f0>
    67ec:	465f4153 			; <UNDEFINED> instruction: 0x465f4153
    67f0:	5f544942 	svcpl	0x00544942
    67f4:	3631205f 			; <UNDEFINED> instruction: 0x3631205f
    67f8:	765f5f00 	ldrbvc	r5, [pc], -r0, lsl #30
    67fc:	74616c6f 	strbtvc	r6, [r1], #-3183	; 0xfffff391
    6800:	20656c69 	rsbcs	r6, r5, r9, ror #24
    6804:	616c6f76 	smcvs	50934	; 0xc6f6
    6808:	656c6974 	strbvs	r6, [ip, #-2420]!	; 0xfffff68c
    680c:	414d5f00 	cmpmi	sp, r0, lsl #30
    6810:	4e494843 	cdpmi	8, 4, cr4, cr9, cr3, {2}
    6814:	545f5f45 	ldrbpl	r5, [pc], #-3909	; 681c <_Min_Stack_Size+0x641c>
    6818:	53455059 	movtpl	r5, #20569	; 0x5059
    681c:	0020485f 	eoreq	r4, r0, pc, asr r8
    6820:	45495f5f 	strbmi	r5, [r9, #-3935]	; 0xfffff0a1
    6824:	4c5f4545 	cfldr64mi	mvdx4, [pc], {69}	; 0x45
    6828:	4c545449 	cfldrdmi	mvd5, [r4], {73}	; 0x49
    682c:	4e455f45 	cdpmi	15, 4, cr5, cr5, cr5, {2}
    6830:	4e414944 	vmlsmi.f16	s9, s2, s8	; <UNPREDICTABLE>
    6834:	5f5f0020 	svcpl	0x005f0020
    6838:	464c4c55 			; <UNDEFINED> instruction: 0x464c4c55
    683c:	54434152 	strbpl	r4, [r3], #-338	; 0xfffffeae
    6840:	4e494d5f 	mcrmi	13, 2, r4, cr9, cr15, {2}
    6844:	30205f5f 	eorcc	r5, r0, pc, asr pc
    6848:	4c55302e 	mrrcmi	0, 2, r3, r5, cr14
    684c:	5f00524c 	svcpl	0x0000524c
    6850:	42444c5f 	submi	r4, r4, #24320	; 0x5f00
    6854:	494d5f4c 	stmdbmi	sp, {r2, r3, r6, r8, r9, sl, fp, ip, lr}^
    6858:	30315f4e 	eorscc	r5, r1, lr, asr #30
    685c:	5058455f 	subspl	r4, r8, pc, asr r5
    6860:	28205f5f 	stmdacs	r0!, {r0, r1, r2, r3, r4, r6, r8, r9, sl, fp, ip, lr}
    6864:	3730332d 	ldrcc	r3, [r0, -sp, lsr #6]!
    6868:	50470029 	subpl	r0, r7, r9, lsr #32
    686c:	20424f49 	subcs	r4, r2, r9, asr #30
    6870:	50472828 	subpl	r2, r7, r8, lsr #16
    6874:	545f4f49 	ldrbpl	r4, [pc], #-3913	; 687c <_Min_Stack_Size+0x647c>
    6878:	64657079 	strbtvs	r7, [r5], #-121	; 0xffffff87
    687c:	2a206665 	bcs	820218 <_Min_Stack_Size+0x81fe18>
    6880:	49504729 	ldmdbmi	r0, {r0, r3, r5, r8, r9, sl, lr}^
    6884:	425f424f 	subsmi	r4, pc, #-268435452	; 0xf0000004
    6888:	29455341 	stmdbcs	r5, {r0, r6, r8, r9, ip, lr}^
    688c:	465f5f00 	ldrbmi	r5, [pc], -r0, lsl #30
    6890:	485f544c 	ldmdami	pc, {r2, r3, r6, sl, ip, lr}^	; <UNPREDICTABLE>
    6894:	515f5341 	cmppl	pc, r1, asr #6
    6898:	54454955 	strbpl	r4, [r5], #-2389	; 0xfffff6ab
    689c:	4e414e5f 	mcrmi	14, 2, r4, cr1, cr15, {2}
    68a0:	31205f5f 			; <UNDEFINED> instruction: 0x31205f5f
    68a4:	45525f00 	ldrbmi	r5, [r2, #-3840]	; 0xfffff100
    68a8:	5f544e45 	svcpl	0x00544e45
    68ac:	52454d45 	subpl	r4, r5, #4416	; 0x1140
    68b0:	434e4547 	movtmi	r4, #58695	; 0xe547
    68b4:	705f2859 	subsvc	r2, pc, r9, asr r8	; <UNPREDICTABLE>
    68b8:	20297274 	eorcs	r7, r9, r4, ror r2
    68bc:	705f2828 	subsvc	r2, pc, r8, lsr #16
    68c0:	2d297274 	sfmcs	f7, 4, [r9, #-464]!	; 0xfffffe30
    68c4:	6d655f3e 	stclvs	15, cr5, [r5, #-248]!	; 0xffffff08
    68c8:	65677265 	strbvs	r7, [r7, #-613]!	; 0xfffffd9b
    68cc:	2979636e 	ldmdbcs	r9!, {r1, r2, r3, r5, r6, r8, r9, sp, lr}^
    68d0:	415f5f00 	cmpmi	pc, r0, lsl #30
    68d4:	4c494654 	mcrrmi	6, 5, r4, r9, cr4
    68d8:	49565f45 	ldmdbmi	r6, {r0, r2, r6, r8, r9, sl, fp, ip, lr}^
    68dc:	4c424953 	mcrrmi	9, 5, r4, r2, cr3	; <UNPREDICTABLE>
    68e0:	00312045 	eorseq	r2, r1, r5, asr #32
    68e4:	5f433249 	svcpl	0x00433249
    68e8:	5f315253 	svcpl	0x00315253
    68ec:	31444441 	cmpcc	r4, r1, asr #8
    68f0:	32492030 	subcc	r2, r9, #48	; 0x30
    68f4:	52535f43 	subspl	r5, r3, #268	; 0x10c
    68f8:	44415f31 	strbmi	r5, [r1], #-3889	; 0xfffff0cf
    68fc:	5f303144 	svcpl	0x00303144
    6900:	006b734d 	rsbeq	r7, fp, sp, asr #6
    6904:	49545845 	ldmdbmi	r4, {r0, r2, r6, fp, ip, lr}^
    6908:	31203531 			; <UNDEFINED> instruction: 0x31203531
    690c:	5f5f0035 	svcpl	0x005f0035
    6910:	4152464c 	cmpmi	r2, ip, asr #12
    6914:	455f5443 	ldrbmi	r5, [pc, #-1091]	; 64d9 <_Min_Stack_Size+0x60d9>
    6918:	4c495350 	mcrrmi	3, 5, r5, r9, cr0
    691c:	5f5f4e4f 	svcpl	0x005f4e4f
    6920:	31783020 	cmncc	r8, r0, lsr #32
    6924:	31332d50 	teqcc	r3, r0, asr sp
    6928:	5f00524c 	svcpl	0x0000524c
    692c:	49474542 	stmdbmi	r7, {r1, r6, r8, sl, lr}^
    6930:	54535f4e 	ldrbpl	r5, [r3], #-3918	; 0xfffff0b2
    6934:	20435f44 	subcs	r5, r3, r4, asr #30
    6938:	6d5f5f00 	ldclvs	15, cr5, [pc, #-0]	; 6940 <_Min_Stack_Size+0x6540>
    693c:	6f6c6c61 	svcvs	0x006c6c61
    6940:	696c5f63 	stmdbvs	ip!, {r0, r1, r5, r6, r8, r9, sl, fp, ip, lr}^
    6944:	5f20656b 	svcpl	0x0020656b
    6948:	7474615f 	ldrbtvc	r6, [r4], #-351	; 0xfffffea1
    694c:	75626972 	strbvc	r6, [r2, #-2418]!	; 0xfffff68e
    6950:	5f5f6574 	svcpl	0x005f6574
    6954:	5f5f2828 	svcpl	0x005f2828
    6958:	6c6c616d 	stfvse	f6, [ip], #-436	; 0xfffffe4c
    695c:	5f5f636f 	svcpl	0x005f636f
    6960:	55002929 	strpl	r2, [r0, #-2345]	; 0xfffff6d7
    6964:	4d544e49 	ldclmi	14, cr4, [r4, #-292]	; 0xfffffedc
    6968:	435f5841 	cmpmi	pc, #4259840	; 0x410000
    696c:	20297828 	eorcs	r7, r9, r8, lsr #16
    6970:	49555f5f 	ldmdbmi	r5, {r0, r1, r2, r3, r4, r6, r8, r9, sl, fp, ip, lr}^
    6974:	414d544e 	cmpmi	sp, lr, asr #8
    6978:	28435f58 	stmdacs	r3, {r3, r4, r6, r8, r9, sl, fp, ip, lr}^
    697c:	5f002978 	svcpl	0x00002978
    6980:	4d52415f 	ldfmie	f4, [r2, #-380]	; 0xfffffe84
    6984:	5a49535f 	bpl	125b708 <_Min_Stack_Size+0x125b308>
    6988:	5f464f45 	svcpl	0x00464f45
    698c:	494e494d 	stmdbmi	lr, {r0, r2, r3, r6, r8, fp, lr}^
    6990:	5f4c414d 	svcpl	0x004c414d
    6994:	4d554e45 	ldclmi	14, cr4, [r5, #-276]	; 0xfffffeec
    6998:	5f003120 	svcpl	0x00003120
    699c:	4e494f50 	mcrmi	15, 2, r4, cr9, cr0, {2}
    69a0:	5f524554 	svcpl	0x00524554
    69a4:	20544e49 	subscs	r4, r4, r9, asr #28
    69a8:	676e6f6c 	strbvs	r6, [lr, -ip, ror #30]!
    69ac:	465f5f00 	ldrbmi	r5, [pc], -r0, lsl #30
    69b0:	3233544c 	eorscc	r5, r3, #76, 8	; 0x4c000000
    69b4:	4f4e5f58 	svcmi	0x004e5f58
    69b8:	4d5f4d52 	ldclmi	13, cr4, [pc, #-328]	; 6878 <_Min_Stack_Size+0x6478>
    69bc:	5f5f5841 	svcpl	0x005f5841
    69c0:	372e3120 	strcc	r3, [lr, -r0, lsr #2]!
    69c4:	39363739 	ldmdbcc	r6!, {r0, r3, r4, r5, r8, r9, sl, ip, sp}
    69c8:	34333133 	ldrtcc	r3, [r3], #-307	; 0xfffffecd
    69cc:	33323638 	teqcc	r2, #56, 12	; 0x3800000
    69d0:	65373531 	ldrvs	r3, [r7, #-1329]!	; 0xfffffacf
    69d4:	3830332b 	ldmdacc	r0!, {r0, r1, r3, r5, r8, r9, ip, sp}
    69d8:	78323346 	ldmdavc	r2!, {r1, r2, r6, r8, r9, ip, sp}
    69dc:	615f5f00 	cmpvs	pc, r0, lsl #30
    69e0:	5f5f6d72 	svcpl	0x005f6d72
    69e4:	47003120 	strmi	r3, [r0, -r0, lsr #2]
    69e8:	52495f50 	subpl	r5, r9, #80, 30	; 0x140
    69ec:	61435f51 	cmpvs	r3, r1, asr pc
    69f0:	61426c6c 	cmpvs	r2, ip, ror #24
    69f4:	5f006b63 	svcpl	0x00006b63
    69f8:	4152465f 	cmpmi	r2, pc, asr r6
    69fc:	455f5443 	ldrbmi	r5, [pc, #-1091]	; 65c1 <_Min_Stack_Size+0x61c1>
    6a00:	4c495350 	mcrrmi	3, 5, r5, r9, cr0
    6a04:	5f5f4e4f 	svcpl	0x005f4e4f
    6a08:	31783020 	cmncc	r8, r0, lsr #32
    6a0c:	35312d50 	ldrcc	r2, [r1, #-3408]!	; 0xfffff2b0
    6a10:	5f5f0052 	svcpl	0x005f0052
    6a14:	33544c46 	cmpcc	r4, #17920	; 0x4600
    6a18:	494d5f32 	stmdbmi	sp, {r1, r4, r5, r8, r9, sl, fp, ip, lr}^
    6a1c:	30315f4e 	eorscc	r5, r1, lr, asr #30
    6a20:	5058455f 	subspl	r4, r8, pc, asr r5
    6a24:	28205f5f 	stmdacs	r0!, {r0, r1, r2, r3, r4, r6, r8, r9, sl, fp, ip, lr}
    6a28:	2937332d 	ldmdbcs	r7!, {r0, r2, r3, r5, r8, r9, ip, sp}
    6a2c:	45525f00 	ldrbmi	r5, [r2, #-3840]	; 0xfffff100
    6a30:	5f544e45 	svcpl	0x00544e45
    6a34:	4f544357 	svcmi	0x00544357
    6a38:	535f424d 	cmppl	pc, #-805306364	; 0xd0000004
    6a3c:	45544154 	ldrbmi	r4, [r4, #-340]	; 0xfffffeac
    6a40:	72747028 	rsbsvc	r7, r4, #40	; 0x28
    6a44:	28282029 	stmdacs	r8!, {r0, r3, r5, sp}
    6a48:	29727470 	ldmdbcs	r2!, {r4, r5, r6, sl, ip, sp, lr}^
    6a4c:	6d5f3e2d 	ldclvs	14, cr3, [pc, #-180]	; 69a0 <_Min_Stack_Size+0x65a0>
    6a50:	2d637369 	stclcs	3, cr7, [r3, #-420]!	; 0xfffffe5c
    6a54:	63775f3e 	cmnvs	r7, #62, 30	; 0xf8
    6a58:	626d6f74 	rsbvs	r6, sp, #116, 30	; 0x1d0
    6a5c:	6174735f 	cmnvs	r4, pc, asr r3
    6a60:	00296574 	eoreq	r6, r9, r4, ror r5
    6a64:	53495f5f 	movtpl	r5, #40799	; 0x9f5f
    6a68:	5f435f4f 	svcpl	0x00435f4f
    6a6c:	49534956 	ldmdbmi	r3, {r1, r2, r4, r6, r8, fp, lr}^
    6a70:	20454c42 	subcs	r4, r5, r2, asr #24
    6a74:	31313032 	teqcc	r1, r2, lsr r0
    6a78:	54584500 	ldrbpl	r4, [r8], #-1280	; 0xfffffb00
    6a7c:	79545f49 	ldmdbvc	r4, {r0, r3, r6, r8, r9, sl, fp, ip, lr}^
    6a80:	65646570 	strbvs	r6, [r4, #-1392]!	; 0xfffffa90
    6a84:	5f5f0066 	svcpl	0x005f0066
    6a88:	5f4d5241 	svcpl	0x004d5241
    6a8c:	36315046 	ldrtcc	r5, [r1], -r6, asr #32
    6a90:	524f465f 	subpl	r4, pc, #99614720	; 0x5f00000
    6a94:	5f54414d 	svcpl	0x0054414d
    6a98:	45544c41 	ldrbmi	r4, [r4, #-3137]	; 0xfffff3bf
    6a9c:	54414e52 	strbpl	r4, [r1], #-3666	; 0xfffff1ae
    6aa0:	00455649 	subeq	r5, r5, r9, asr #12
    6aa4:	42465f5f 	submi	r5, r6, #380	; 0x17c
    6aa8:	44494453 	strbmi	r4, [r9], #-1107	; 0xfffffbad
    6aac:	20297328 	eorcs	r7, r9, r8, lsr #6
    6ab0:	75727473 	ldrbvc	r7, [r2, #-1139]!	; 0xfffffb8d
    6ab4:	5f207463 	svcpl	0x00207463
    6ab8:	6361685f 	cmnvs	r1, #6225920	; 0x5f0000
    6abc:	5f5f006b 	svcpl	0x005f006b
    6ac0:	4c42444c 	cfstrdmi	mvd4, [r2], {76}	; 0x4c
    6ac4:	524f4e5f 	subpl	r4, pc, #1520	; 0x5f0
    6ac8:	414d5f4d 	cmpmi	sp, sp, asr #30
    6acc:	205f5f58 	subscs	r5, pc, r8, asr pc	; <UNPREDICTABLE>
    6ad0:	39372e31 	ldmdbcc	r7!, {r0, r4, r5, r9, sl, fp, sp}
    6ad4:	33393637 	teqcc	r9, #57671680	; 0x3700000
    6ad8:	38343331 	ldmdacc	r4!, {r0, r4, r5, r8, r9, ip, sp}
    6adc:	31333236 	teqcc	r3, r6, lsr r2
    6ae0:	2b653735 	blcs	19547bc <_Min_Stack_Size+0x19543bc>
    6ae4:	4c383033 	ldcmi	0, cr3, [r8], #-204	; 0xffffff34
    6ae8:	544e4900 	strbpl	r4, [lr], #-2304	; 0xfffff700
    6aec:	5341465f 	movtpl	r4, #5727	; 0x165f
    6af0:	5f343654 	svcpl	0x00343654
    6af4:	204e494d 	subcs	r4, lr, sp, asr #18
    6af8:	5f5f2d28 	svcpl	0x005f2d28
    6afc:	5f544e49 	svcpl	0x00544e49
    6b00:	54534146 	ldrbpl	r4, [r3], #-326	; 0xfffffeba
    6b04:	4d5f3436 	cfldrdmi	mvd3, [pc, #-216]	; 6a34 <_Min_Stack_Size+0x6634>
    6b08:	5f5f5841 	svcpl	0x005f5841
    6b0c:	31202d20 			; <UNDEFINED> instruction: 0x31202d20
    6b10:	4d5f0029 	ldclmi	0, cr0, [pc, #-164]	; 6a74 <_Min_Stack_Size+0x6674>
    6b14:	49484341 	stmdbmi	r8, {r0, r6, r8, r9, lr}^
    6b18:	5f5f454e 	svcpl	0x005f454e
    6b1c:	41464544 	cmpmi	r6, r4, asr #10
    6b20:	5f544c55 	svcpl	0x00544c55
    6b24:	45505954 	ldrbmi	r5, [r0, #-2388]	; 0xfffff6ac
    6b28:	20485f53 	subcs	r5, r8, r3, asr pc
    6b2c:	425f5f00 	subsmi	r5, pc, #0, 30
    6b30:	45474749 	strbmi	r4, [r7, #-1865]	; 0xfffff8b7
    6b34:	415f5453 	cmpmi	pc, r3, asr r4	; <UNPREDICTABLE>
    6b38:	4e47494c 	vmlsmi.f16	s9, s14, s24	; <UNPREDICTABLE>
    6b3c:	544e454d 	strbpl	r4, [lr], #-1357	; 0xfffffab3
    6b40:	38205f5f 	stmdacc	r0!, {r0, r1, r2, r3, r4, r6, r8, r9, sl, fp, ip, lr}
    6b44:	685f5f00 	ldmdavs	pc, {r8, r9, sl, fp, ip, lr}^	; <UNPREDICTABLE>
    6b48:	665f7361 	ldrbvs	r7, [pc], -r1, ror #6
    6b4c:	75746165 	ldrbvc	r6, [r4, #-357]!	; 0xfffffe9b
    6b50:	78286572 	stmdavc	r8!, {r1, r4, r5, r6, r8, sl, sp, lr}
    6b54:	00302029 	eorseq	r2, r0, r9, lsr #32
    6b58:	4343475f 	movtmi	r4, #14175	; 0x375f
    6b5c:	5254505f 	subspl	r5, r4, #95	; 0x5f
    6b60:	46464944 	strbmi	r4, [r6], -r4, asr #18
    6b64:	0020545f 	eoreq	r5, r0, pc, asr r4
    6b68:	4e475f5f 	mcrmi	15, 2, r5, cr7, cr15, {2}
    6b6c:	494c4355 	stmdbmi	ip, {r0, r2, r4, r6, r8, r9, lr}^
    6b70:	425f454b 	subsmi	r4, pc, #314572800	; 0x12c00000
    6b74:	544c4955 	strbpl	r4, [ip], #-2389	; 0xfffff6ab
    6b78:	4e5f4e49 	cdpmi	14, 5, cr4, cr15, cr9, {2}
    6b7c:	5f545845 	svcpl	0x00545845
    6b80:	20475241 	subcs	r5, r7, r1, asr #4
    6b84:	58450031 	stmdapl	r5, {r0, r4, r5}^
    6b88:	50344954 	eorspl	r4, r4, r4, asr r9
    6b8c:	28203441 	stmdacs	r0!, {r0, r6, sl, ip, sp}
    6b90:	49545845 	ldmdbmi	r4, {r0, r2, r6, fp, ip, lr}^
    6b94:	4950475f 	ldmdbmi	r0, {r0, r1, r2, r3, r4, r6, r8, r9, sl, lr}^
    6b98:	614d5f4f 	cmpvs	sp, pc, asr #30
    6b9c:	676e6970 			; <UNDEFINED> instruction: 0x676e6970
    6ba0:	7b29745f 	blvc	a63d24 <_Min_Stack_Size+0xa63924>
    6ba4:	49545845 	ldmdbmi	r4, {r0, r2, r6, fp, ip, lr}^
    6ba8:	47202c34 			; <UNDEFINED> instruction: 0x47202c34
    6bac:	414f4950 	cmpmi	pc, r0, asr r9	; <UNPREDICTABLE>
    6bb0:	5047202c 	subpl	r2, r7, ip, lsr #32
    6bb4:	505f4f49 	subspl	r4, pc, r9, asr #30
    6bb8:	345f4e49 	ldrbcc	r4, [pc], #-3657	; 6bc0 <_Min_Stack_Size+0x67c0>
    6bbc:	5845202c 	stmdapl	r5, {r2, r3, r5, sp}^
    6bc0:	5f344954 	svcpl	0x00344954
    6bc4:	7d515249 	lfmvc	f5, 2, [r1, #-292]	; 0xfffffedc
    6bc8:	545f5f00 	ldrbpl	r5, [pc], #-3840	; 6bd0 <_Min_Stack_Size+0x67d0>
    6bcc:	42495f41 	submi	r5, r9, #260	; 0x104
    6bd0:	5f5f5449 	svcpl	0x005f5449
    6bd4:	00343620 	eorseq	r3, r4, r0, lsr #12
    6bd8:	4f495047 	svcmi	0x00495047
    6bdc:	41425f44 	cmpmi	r2, r4, asr #30
    6be0:	30204553 	eorcc	r4, r0, r3, asr r5
    6be4:	30303478 	eorscc	r3, r0, r8, ror r4
    6be8:	30343131 	eorscc	r3, r4, r1, lsr r1
    6bec:	004c5530 	subeq	r5, ip, r0, lsr r5
    6bf0:	334d5453 	movtcc	r5, #54355	; 0xd453
    6bf4:	00312032 	eorseq	r2, r1, r2, lsr r0
    6bf8:	454c5f5f 	strbmi	r5, [ip, #-3935]	; 0xfffff0a1
    6bfc:	36545341 	ldrbcc	r5, [r4], -r1, asr #6
    6c00:	6c222034 	stcvs	0, cr2, [r2], #-208	; 0xffffff30
    6c04:	2e00226c 	cdpcs	2, 0, cr2, cr0, cr12, {3}
    6c08:	6e492f2e 	cdpvs	15, 4, cr2, cr9, cr14, {1}
    6c0c:	6e492f63 	cdpvs	15, 4, cr2, cr9, cr3, {3}
    6c10:	74732f63 	ldrbtvc	r2, [r3], #-3939	; 0xfffff09d
    6c14:	6632336d 	ldrtvs	r3, [r2], -sp, ror #6
    6c18:	63333031 	teqvs	r3, #49	; 0x31
    6c1c:	58455f38 	stmdapl	r5, {r3, r4, r5, r8, r9, sl, fp, ip, lr}^
    6c20:	632e4954 			; <UNDEFINED> instruction: 0x632e4954
    6c24:	725f5f00 	subsvc	r5, pc, #0, 30
    6c28:	746e6565 	strbtvc	r6, [lr], #-1381	; 0xfffffa9b
    6c2c:	7373615f 	cmnvc	r3, #-1073741801	; 0xc0000017
    6c30:	28747265 	ldmdacs	r4!, {r0, r2, r5, r6, r9, ip, sp, lr}^
    6c34:	28202978 	stmdacs	r0!, {r3, r4, r5, r6, r8, fp, sp}
    6c38:	20297828 	eorcs	r7, r9, r8, lsr #16
    6c3c:	7628203f 			; <UNDEFINED> instruction: 0x7628203f
    6c40:	2964696f 	stmdbcs	r4!, {r0, r1, r2, r3, r5, r6, r8, fp, sp, lr}^
    6c44:	203a2030 	eorscs	r2, sl, r0, lsr r0
    6c48:	73615f5f 	cmnvc	r1, #380	; 0x17c
    6c4c:	74726573 	ldrbtvc	r6, [r2], #-1395	; 0xfffffa8d
    6c50:	6e75665f 	mrcvs	6, 3, r6, cr5, cr15, {2}
    6c54:	5f5f2863 	svcpl	0x005f2863
    6c58:	454c4946 	strbmi	r4, [ip, #-2374]	; 0xfffff6ba
    6c5c:	202c5f5f 	eorcs	r5, ip, pc, asr pc
    6c60:	494c5f5f 	stmdbmi	ip, {r0, r1, r2, r3, r4, r6, r8, r9, sl, fp, ip, lr}^
    6c64:	5f5f454e 	svcpl	0x005f454e
    6c68:	6328202c 			; <UNDEFINED> instruction: 0x6328202c
    6c6c:	20726168 	rsbscs	r6, r2, r8, ror #2
    6c70:	2c30292a 			; <UNDEFINED> instruction: 0x2c30292a
    6c74:	45522220 	ldrbmi	r2, [r2, #-544]	; 0xfffffde0
    6c78:	20544e45 	subscs	r4, r4, r5, asr #28
    6c7c:	6c6c616d 	stfvse	f6, [ip], #-436	; 0xfffffe4c
    6c80:	7320636f 			; <UNDEFINED> instruction: 0x7320636f
    6c84:	65636375 	strbvs	r6, [r3, #-885]!	; 0xfffffc8b
    6c88:	64656465 	strbtvs	r6, [r5], #-1125	; 0xfffffb9b
    6c8c:	00292922 	eoreq	r2, r9, r2, lsr #18
    6c90:	52415f5f 	subpl	r5, r1, #380	; 0x17c
    6c94:	45465f4d 	strbmi	r5, [r6, #-3917]	; 0xfffff0b3
    6c98:	52555441 	subspl	r5, r5, #1090519040	; 0x41000000
    6c9c:	52515f45 	subspl	r5, r1, #276	; 0x114
    6ca0:	00584d44 	subseq	r4, r8, r4, asr #26
    6ca4:	4f494641 	svcmi	0x00494641
    6ca8:	4950475f 	ldmdbmi	r0, {r0, r1, r2, r3, r4, r6, r8, r9, sl, lr}^
    6cac:	58455f4f 	stmdapl	r5, {r0, r1, r2, r3, r6, r8, r9, sl, fp, ip, lr}^
    6cb0:	4d5f4954 	vldrmi.16	s9, [pc, #-168]	; 6c10 <_Min_Stack_Size+0x6810>	; <UNPREDICTABLE>
    6cb4:	69707061 	ldmdbvs	r0!, {r0, r5, r6, ip, sp, lr}^
    6cb8:	7828676e 	stmdavc	r8!, {r1, r2, r3, r5, r6, r8, r9, sl, sp, lr}
    6cbc:	28282029 	stmdacs	r8!, {r0, r3, r5, sp}
    6cc0:	473d3d78 			; <UNDEFINED> instruction: 0x473d3d78
    6cc4:	414f4950 	cmpmi	pc, r0, asr r9	; <UNPREDICTABLE>
    6cc8:	3a303f29 	bcc	c16974 <_Min_Stack_Size+0xc16574>
    6ccc:	3d782820 	ldclcc	8, cr2, [r8, #-128]!	; 0xffffff80
    6cd0:	4950473d 	ldmdbmi	r0, {r0, r2, r3, r4, r5, r8, r9, sl, lr}^
    6cd4:	3f29424f 	svccc	0x0029424f
    6cd8:	28203a31 	stmdacs	r0!, {r0, r4, r5, r9, fp, ip, sp}
    6cdc:	473d3d78 			; <UNDEFINED> instruction: 0x473d3d78
    6ce0:	434f4950 	movtmi	r4, #63824	; 0xf950
    6ce4:	3a323f29 	bcc	c96990 <_Min_Stack_Size+0xc96590>
    6ce8:	3d782820 	ldclcc	8, cr2, [r8, #-128]!	; 0xffffff80
    6cec:	4950473d 	ldmdbmi	r0, {r0, r2, r3, r4, r5, r8, r9, sl, lr}^
    6cf0:	3f29444f 	svccc	0x0029444f
    6cf4:	29303a33 	ldmdbcs	r0!, {r0, r1, r4, r5, r9, fp, ip, sp}
    6cf8:	54584500 	ldrbpl	r4, [r8], #-1280	; 0xfffffb00
    6cfc:	41503849 	cmpmi	r0, r9, asr #16
    6d00:	45282038 	strmi	r2, [r8, #-56]!	; 0xffffffc8
    6d04:	5f495458 	svcpl	0x00495458
    6d08:	4f495047 	svcmi	0x00495047
    6d0c:	70614d5f 	rsbvc	r4, r1, pc, asr sp
    6d10:	5f676e69 	svcpl	0x00676e69
    6d14:	457b2974 	ldrbmi	r2, [fp, #-2420]!	; 0xfffff68c
    6d18:	38495458 	stmdacc	r9, {r3, r4, r6, sl, ip, lr}^
    6d1c:	5047202c 	subpl	r2, r7, ip, lsr #32
    6d20:	2c414f49 	mcrrcs	15, 4, r4, r1, cr9
    6d24:	49504720 	ldmdbmi	r0, {r5, r8, r9, sl, lr}^
    6d28:	49505f4f 	ldmdbmi	r0, {r0, r1, r2, r3, r6, r8, r9, sl, fp, ip, lr}^
    6d2c:	2c385f4e 	ldccs	15, cr5, [r8], #-312	; 0xfffffec8
    6d30:	54584520 	ldrbpl	r4, [r8], #-1312	; 0xfffffae0
    6d34:	495f3849 	ldmdbmi	pc, {r0, r3, r6, fp, ip, sp}^	; <UNPREDICTABLE>
    6d38:	007d5152 	rsbseq	r5, sp, r2, asr r1
    6d3c:	52415f5f 	subpl	r5, r1, #380	; 0x17c
    6d40:	52415f4d 	subpl	r5, r1, #308	; 0x134
    6d44:	495f4843 	ldmdbmi	pc, {r0, r1, r6, fp, lr}^	; <UNPREDICTABLE>
    6d48:	545f4153 	ldrbpl	r4, [pc], #-339	; 6d50 <_Min_Stack_Size+0x6950>
    6d4c:	424d5548 	submi	r5, sp, #72, 10	; 0x12000000
    6d50:	5f003220 	svcpl	0x00003220
    6d54:	4e4f4c5f 	mcrmi	12, 2, r4, cr15, cr15, {2}
    6d58:	4f4c5f47 	svcmi	0x004c5f47
    6d5c:	4d5f474e 	ldclmi	7, cr4, [pc, #-312]	; 6c2c <_Min_Stack_Size+0x682c>
    6d60:	5f5f5841 	svcpl	0x005f5841
    6d64:	37783020 	ldrbcc	r3, [r8, -r0, lsr #32]!
    6d68:	66666666 	strbtvs	r6, [r6], -r6, ror #12
    6d6c:	66666666 	strbtvs	r6, [r6], -r6, ror #12
    6d70:	66666666 	strbtvs	r6, [r6], -r6, ror #12
    6d74:	4c666666 	stclmi	6, cr6, [r6], #-408	; 0xfffffe68
    6d78:	5f5f004c 	svcpl	0x005f004c
    6d7c:	5f677261 	svcpl	0x00677261
    6d80:	65707974 	ldrbvs	r7, [r0, #-2420]!	; 0xfffff68c
    6d84:	6761745f 			; <UNDEFINED> instruction: 0x6761745f
    6d88:	67726128 	ldrbvs	r6, [r2, -r8, lsr #2]!
    6d8c:	6e696b5f 	vmovvs.8	d9[6], r6
    6d90:	72612c64 	rsbvc	r2, r1, #100, 24	; 0x6400
    6d94:	64695f67 	strbtvs	r5, [r9], #-3943	; 0xfffff099
    6d98:	79742c78 	ldmdbvc	r4!, {r3, r4, r5, r6, sl, fp, sp}^
    6d9c:	745f6570 	ldrbvc	r6, [pc], #-1392	; 6da4 <_Min_Stack_Size+0x69a4>
    6da0:	695f6761 	ldmdbvs	pc, {r0, r5, r6, r8, r9, sl, sp, lr}^	; <UNPREDICTABLE>
    6da4:	20297864 	eorcs	r7, r9, r4, ror #16
    6da8:	535f5f00 	cmppl	pc, #0, 30
    6dac:	4e495254 	mcrmi	2, 2, r5, cr9, cr4, {2}
    6db0:	29782847 	ldmdbcs	r8!, {r0, r1, r2, r6, fp, sp}^
    6db4:	00782320 	rsbseq	r2, r8, r0, lsr #6
    6db8:	31433249 	cmpcc	r3, r9, asr #4
    6dbc:	5341425f 	movtpl	r4, #4703	; 0x125f
    6dc0:	78302045 	ldmdavc	r0!, {r0, r2, r6, sp}
    6dc4:	30303034 	eorscc	r3, r0, r4, lsr r0
    6dc8:	30303435 	eorscc	r3, r0, r5, lsr r4
    6dcc:	73004c55 	movwvc	r4, #3157	; 0xc55
    6dd0:	74726f68 	ldrbtvc	r6, [r2], #-3944	; 0xfffff098
    6dd4:	45525f00 	ldrbmi	r5, [r2, #-3840]	; 0xfffff100
    6dd8:	5f544e45 	svcpl	0x00544e45
    6ddc:	54494e49 	strbpl	r4, [r9], #-3657	; 0xfffff1b7
    6de0:	5254505f 	subspl	r5, r4, #95	; 0x5f
    6de4:	72617628 	rsbvc	r7, r1, #40, 12	; 0x2800000
    6de8:	207b2029 	rsbscs	r2, fp, r9, lsr #32
    6dec:	736d656d 	cmnvc	sp, #457179136	; 0x1b400000
    6df0:	28287465 	stmdacs	r8!, {r0, r2, r5, r6, sl, ip, sp, lr}
    6df4:	29726176 	ldmdbcs	r2!, {r1, r2, r4, r5, r6, r8, sp, lr}^
    6df8:	2c30202c 	ldccs	0, cr2, [r0], #-176	; 0xffffff50
    6dfc:	7a697320 	bvc	1a63a84 <_Min_Stack_Size+0x1a63684>
    6e00:	28666f65 	stmdacs	r6!, {r0, r2, r5, r6, r8, r9, sl, fp, sp, lr}^
    6e04:	6176282a 	cmnvs	r6, sl, lsr #16
    6e08:	29292972 	stmdbcs	r9!, {r1, r4, r5, r6, r8, fp, sp}
    6e0c:	525f203b 	subspl	r2, pc, #59	; 0x3b
    6e10:	544e4545 	strbpl	r4, [lr], #-1349	; 0xfffffabb
    6e14:	494e495f 	stmdbmi	lr, {r0, r1, r2, r3, r4, r6, r8, fp, lr}^
    6e18:	54505f54 	ldrbpl	r5, [r0], #-3924	; 0xfffff0ac
    6e1c:	455a5f52 	ldrbmi	r5, [sl, #-3922]	; 0xfffff0ae
    6e20:	44454f52 	strbmi	r4, [r5], #-3922	; 0xfffff0ae
    6e24:	72617628 	rsbvc	r7, r1, #40, 12	; 0x2800000
    6e28:	7d203b29 	fstmdbxvc	r0!, {d3-d22}	;@ Deprecated
    6e2c:	49504700 	ldmdbmi	r0, {r8, r9, sl, lr}^
    6e30:	2820414f 	stmdacs	r0!, {r0, r1, r2, r3, r6, r8, lr}
    6e34:	49504728 	ldmdbmi	r0, {r3, r5, r8, r9, sl, lr}^
    6e38:	79545f4f 	ldmdbvc	r4, {r0, r1, r2, r3, r6, r8, r9, sl, fp, ip, lr}^
    6e3c:	65646570 	strbvs	r6, [r4, #-1392]!	; 0xfffffa90
    6e40:	292a2066 	stmdbcs	sl!, {r1, r2, r5, r6, sp}
    6e44:	4f495047 	svcmi	0x00495047
    6e48:	41425f41 	cmpmi	r2, r1, asr #30
    6e4c:	00294553 	eoreq	r4, r9, r3, asr r5
    6e50:	4f435f5f 	svcmi	0x00435f5f
    6e54:	49525950 	ldmdbmi	r2, {r4, r6, r8, fp, ip, lr}^
    6e58:	28544847 	ldmdacs	r4, {r0, r1, r2, r6, fp, lr}^
    6e5c:	73202973 			; <UNDEFINED> instruction: 0x73202973
    6e60:	63757274 	cmnvs	r5, #116, 4	; 0x40000007
    6e64:	5f5f2074 	svcpl	0x005f2074
    6e68:	6b636168 	blvs	18df410 <_Min_Stack_Size+0x18df010>
    6e6c:	555f5f00 	ldrbpl	r5, [pc, #-3840]	; 5f74 <_Min_Stack_Size+0x5b74>
    6e70:	43415246 	movtmi	r5, #4678	; 0x1246
    6e74:	42495f54 	submi	r5, r9, #84, 30	; 0x150
    6e78:	5f5f5449 	svcpl	0x005f5449
    6e7c:	5f003020 	svcpl	0x00003020
    6e80:	4d52415f 	ldfmie	f4, [r2, #-380]	; 0xfffffe84
    6e84:	4232335f 	eorsmi	r3, r2, #2080374785	; 0x7c000001
    6e88:	535f5449 	cmppl	pc, #1224736768	; 0x49000000
    6e8c:	45544154 	ldrbmi	r4, [r4, #-340]	; 0xfffffeac
    6e90:	49003120 	stmdbmi	r0, {r5, r8, ip, sp}
    6e94:	435f4332 	cmpmi	pc, #-939524096	; 0xc8000000
    6e98:	4c5f3252 	lfmmi	f3, 2, [pc], {82}	; 0x52
    6e9c:	20545341 	subscs	r5, r4, r1, asr #6
    6ea0:	5f433249 	svcpl	0x00433249
    6ea4:	5f325243 	svcpl	0x00325243
    6ea8:	5453414c 	ldrbpl	r4, [r3], #-332	; 0xfffffeb4
    6eac:	6b734d5f 	blvs	1cda430 <_Min_Stack_Size+0x1cda030>
    6eb0:	495f5f00 	ldmdbmi	pc, {r8, r9, sl, fp, ip, lr}^	; <UNPREDICTABLE>
    6eb4:	5f38544e 	svcpl	0x0038544e
    6eb8:	29632843 	stmdbcs	r3!, {r0, r1, r6, fp, sp}^
    6ebc:	5f006320 	svcpl	0x00006320
    6ec0:	52464c5f 	subpl	r4, r6, #24320	; 0x5f00
    6ec4:	5f544341 	svcpl	0x00544341
    6ec8:	54494249 	strbpl	r4, [r9], #-585	; 0xfffffdb7
    6ecc:	30205f5f 	eorcc	r5, r0, pc, asr pc
    6ed0:	54535f00 	ldrbpl	r5, [r3], #-3840	; 0xfffff100
    6ed4:	46454444 	strbmi	r4, [r5], -r4, asr #8
    6ed8:	205f485f 	subscs	r4, pc, pc, asr r8	; <UNPREDICTABLE>
    6edc:	445f5f00 	ldrbmi	r5, [pc], #-3840	; 6ee4 <_Min_Stack_Size+0x6ae4>
    6ee0:	4d5f4c42 	ldclmi	12, cr4, [pc, #-264]	; 6de0 <_Min_Stack_Size+0x69e0>
    6ee4:	455f4e49 	ldrbmi	r4, [pc, #-3657]	; 60a3 <_Min_Stack_Size+0x5ca3>
    6ee8:	5f5f5058 	svcpl	0x005f5058
    6eec:	312d2820 			; <UNDEFINED> instruction: 0x312d2820
    6ef0:	29313230 	ldmdbcs	r1!, {r4, r5, r9, ip, sp}
    6ef4:	535f5f00 	cmppl	pc, #0, 30
    6ef8:	5f455a49 	svcpl	0x00455a49
    6efc:	5f002054 	svcpl	0x00002054
    6f00:	42444c5f 	submi	r4, r4, #24320	; 0x5f00
    6f04:	41485f4c 	cmpmi	r8, ip, asr #30
    6f08:	45445f53 	strbmi	r5, [r4, #-3923]	; 0xfffff0ad
    6f0c:	4d524f4e 	ldclmi	15, cr4, [r2, #-312]	; 0xfffffec8
    6f10:	31205f5f 			; <UNDEFINED> instruction: 0x31205f5f
    6f14:	43324900 	teqmi	r2, #0, 18
    6f18:	3152435f 	cmpcc	r2, pc, asr r3
    6f1c:	5257535f 	subspl	r5, r7, #2080374785	; 0x7c000001
    6f20:	4d5f5453 	cfldrdmi	mvd5, [pc, #-332]	; 6ddc <_Min_Stack_Size+0x69dc>
    6f24:	28206b73 	stmdacs	r0!, {r0, r1, r4, r5, r6, r8, r9, fp, sp, lr}
    6f28:	55317830 	ldrpl	r7, [r1, #-2096]!	; 0xfffff7d0
    6f2c:	3c3c204c 	ldccc	0, cr2, [ip], #-304	; 0xfffffed0
    6f30:	43324920 	teqmi	r2, #32, 18	; 0x80000
    6f34:	3152435f 	cmpcc	r2, pc, asr r3
    6f38:	5257535f 	subspl	r5, r7, #2080374785	; 0x7c000001
    6f3c:	505f5453 	subspl	r5, pc, r3, asr r4	; <UNPREDICTABLE>
    6f40:	0029736f 	eoreq	r7, r9, pc, ror #6
    6f44:	72705f5f 	rsbsvc	r5, r0, #380	; 0x17c
    6f48:	66746e69 	ldrbtvs	r6, [r4], -r9, ror #28
    6f4c:	6b696c30 	blvs	1a62014 <_Min_Stack_Size+0x1a61c14>
    6f50:	6d662865 	stclvs	8, cr2, [r6, #-404]!	; 0xfffffe6c
    6f54:	67726174 			; <UNDEFINED> instruction: 0x67726174
    6f58:	7269662c 	rsbvc	r6, r9, #44, 12	; 0x2c00000
    6f5c:	61767473 	cmnvs	r6, r3, ror r4
    6f60:	67726172 			; <UNDEFINED> instruction: 0x67726172
    6f64:	49002029 	stmdbmi	r0, {r0, r3, r5, sp}
    6f68:	435f4332 	cmpmi	pc, #-939524096	; 0xc8000000
    6f6c:	535f3152 	cmppl	pc, #-2147483628	; 0x80000014
    6f70:	5f504f54 	svcpl	0x00504f54
    6f74:	20736f50 	rsbscs	r6, r3, r0, asr pc
    6f78:	29553928 	ldmdbcs	r5, {r3, r5, r8, fp, ip, sp}^
    6f7c:	45525f00 	ldrbmi	r5, [r2, #-3840]	; 0xfffff100
    6f80:	5f544e45 	svcpl	0x00544e45
    6f84:	4e525245 	cdpmi	2, 5, cr5, cr2, cr5, {2}
    6f88:	705f284f 	subsvc	r2, pc, pc, asr #16
    6f8c:	20297274 	eorcs	r7, r9, r4, ror r2
    6f90:	705f2828 	subsvc	r2, pc, r8, lsr #16
    6f94:	2d297274 	sfmcs	f7, 4, [r9, #-464]!	; 0xfffffe30
    6f98:	72655f3e 	rsbvc	r5, r5, #62, 30	; 0xf8
    6f9c:	296f6e72 	stmdbcs	pc!, {r1, r4, r5, r6, r9, sl, fp, sp, lr}^	; <UNPREDICTABLE>
    6fa0:	43324900 	teqmi	r2, #0, 18
    6fa4:	3252535f 	subscc	r5, r2, #2080374785	; 0x7c000001
    6fa8:	4c534d5f 	mrrcmi	13, 5, r4, r3, cr15
    6fac:	43324920 	teqmi	r2, #32, 18	; 0x80000
    6fb0:	3252535f 	subscc	r5, r2, #2080374785	; 0x7c000001
    6fb4:	4c534d5f 	mrrcmi	13, 5, r4, r3, cr15
    6fb8:	6b734d5f 	blvs	1cda53c <_Min_Stack_Size+0x1cda13c>
    6fbc:	645f5f00 	ldrbvs	r5, [pc], #-3840	; 6fc4 <_Min_Stack_Size+0x6bc4>
    6fc0:	32646165 	rsbcc	r6, r4, #1073741849	; 0x40000019
    6fc4:	615f5f20 	cmpvs	pc, r0, lsr #30
    6fc8:	69727474 	ldmdbvs	r2!, {r2, r4, r5, r6, sl, ip, sp, lr}^
    6fcc:	65747562 	ldrbvs	r7, [r4, #-1378]!	; 0xfffffa9e
    6fd0:	28285f5f 	stmdacs	r8!, {r0, r1, r2, r3, r4, r6, r8, r9, sl, fp, ip, lr}
    6fd4:	6f6e5f5f 	svcvs	0x006e5f5f
    6fd8:	75746572 	ldrbvc	r6, [r4, #-1394]!	; 0xfffffa8e
    6fdc:	5f5f6e72 	svcpl	0x005f6e72
    6fe0:	45002929 	strmi	r2, [r0, #-2345]	; 0xfffff6d7
    6fe4:	30495458 	subcc	r5, r9, r8, asr r4
    6fe8:	20304250 	eorscs	r4, r0, r0, asr r2
    6fec:	54584528 	ldrbpl	r4, [r8], #-1320	; 0xfffffad8
    6ff0:	50475f49 	subpl	r5, r7, r9, asr #30
    6ff4:	4d5f4f49 	ldclmi	15, cr4, [pc, #-292]	; 6ed8 <_Min_Stack_Size+0x6ad8>
    6ff8:	6e697061 	cdpvs	0, 6, cr7, cr9, cr1, {3}
    6ffc:	29745f67 	ldmdbcs	r4!, {r0, r1, r2, r5, r6, r8, r9, sl, fp, ip, lr}^
    7000:	5458457b 	ldrbpl	r4, [r8], #-1403	; 0xfffffa85
    7004:	202c3049 	eorcs	r3, ip, r9, asr #32
    7008:	4f495047 	svcmi	0x00495047
    700c:	47202c42 	strmi	r2, [r0, -r2, asr #24]!
    7010:	5f4f4950 	svcpl	0x004f4950
    7014:	5f4e4950 	svcpl	0x004e4950
    7018:	45202c30 	strmi	r2, [r0, #-3120]!	; 0xfffff3d0
    701c:	30495458 	subcc	r5, r9, r8, asr r4
    7020:	5152495f 	cmppl	r2, pc, asr r9
    7024:	5f5f007d 	svcpl	0x005f007d
    7028:	706d6f63 	rsbvc	r6, sp, r3, ror #30
    702c:	665f7261 	ldrbvs	r7, [pc], -r1, ror #4
    7030:	5f745f6e 	svcpl	0x00745f6e
    7034:	69666564 	stmdbvs	r6!, {r2, r5, r6, r8, sl, sp, lr}^
    7038:	2064656e 	rsbcs	r6, r4, lr, ror #10
    703c:	435f5f00 	cmpmi	pc, #0, 30
    7040:	55535f43 	ldrbpl	r5, [r3, #-3907]	; 0xfffff0bd
    7044:	524f5050 	subpl	r5, pc, #80	; 0x50
    7048:	495f5354 	ldmdbmi	pc, {r2, r4, r6, r8, r9, ip, lr}^	; <UNPREDICTABLE>
    704c:	4e494c4e 	cdpmi	12, 4, cr4, cr9, cr14, {2}
    7050:	00312045 	eorseq	r2, r1, r5, asr #32
    7054:	58455f5f 	stmdapl	r5, {r0, r1, r2, r3, r4, r6, r8, r9, sl, fp, ip, lr}^
    7058:	5f5f0050 	svcpl	0x005f0050
    705c:	746e695f 	strbtvc	r6, [lr], #-2399	; 0xfffff6a1
    7060:	745f3436 	ldrbvc	r3, [pc], #-1078	; 7068 <_Min_Stack_Size+0x6c68>
    7064:	6665645f 			; <UNDEFINED> instruction: 0x6665645f
    7068:	64656e69 	strbtvs	r6, [r5], #-3689	; 0xfffff197
    706c:	53003120 	movwpl	r3, #288	; 0x120
    7070:	52454957 	subpl	r4, r5, #1425408	; 0x15c000
    7074:	485f5f00 	ldmdami	pc, {r8, r9, sl, fp, ip, lr}^	; <UNPREDICTABLE>
    7078:	5f455641 	svcpl	0x00455641
    707c:	43455053 	movtmi	r5, #20563	; 0x5053
    7080:	54414c55 	strbpl	r4, [r1], #-3157	; 0xfffff3ab
    7084:	5f4e4f49 	svcpl	0x004e4f49
    7088:	45464153 	strbmi	r4, [r6, #-339]	; 0xfffffead
    708c:	4c41565f 	mcrrmi	6, 5, r5, r1, cr15
    7090:	31204555 			; <UNDEFINED> instruction: 0x31204555
    7094:	535f5f00 	cmppl	pc, #0, 30
    7098:	55434341 	strbpl	r4, [r3, #-833]	; 0xfffffcbf
    709c:	42465f4d 	submi	r5, r6, #308	; 0x134
    70a0:	5f5f5449 	svcpl	0x005f5449
    70a4:	5f003720 	svcpl	0x00003720
    70a8:	4343475f 	movtmi	r4, #14175	; 0x375f
    70ac:	5641485f 			; <UNDEFINED> instruction: 0x5641485f
    70b0:	59535f45 	ldmdbpl	r3, {r0, r2, r6, r8, r9, sl, fp, ip, lr}^
    70b4:	435f434e 	cmpmi	pc, #939524097	; 0x38000001
    70b8:	41504d4f 	cmpmi	r0, pc, asr #26
    70bc:	415f4552 	cmpmi	pc, r2, asr r5	; <UNPREDICTABLE>
    70c0:	535f444e 	cmppl	pc, #1308622848	; 0x4e000000
    70c4:	5f504157 	svcpl	0x00504157
    70c8:	00312034 	eorseq	r2, r1, r4, lsr r0
    70cc:	5f433249 	svcpl	0x00433249
    70d0:	5f325253 	svcpl	0x00325253
    70d4:	44424d53 	strbmi	r4, [r2], #-3411	; 0xfffff2ad
    70d8:	55414645 	strbpl	r4, [r1, #-1605]	; 0xfffff9bb
    70dc:	4d5f544c 	cfldrdmi	mvd5, [pc, #-304]	; 6fb4 <_Min_Stack_Size+0x6bb4>
    70e0:	28206b73 	stmdacs	r0!, {r0, r1, r4, r5, r6, r8, r9, fp, sp, lr}
    70e4:	55317830 	ldrpl	r7, [r1, #-2096]!	; 0xfffff7d0
    70e8:	3c3c204c 	ldccc	0, cr2, [ip], #-304	; 0xfffffed0
    70ec:	43324920 	teqmi	r2, #32, 18	; 0x80000
    70f0:	3252535f 	subscc	r5, r2, #2080374785	; 0x7c000001
    70f4:	424d535f 	submi	r5, sp, #2080374785	; 0x7c000001
    70f8:	41464544 	cmpmi	r6, r4, asr #10
    70fc:	5f544c55 	svcpl	0x00544c55
    7100:	29736f50 	ldmdbcs	r3!, {r4, r6, r8, r9, sl, fp, sp, lr}^
    7104:	43324900 	teqmi	r2, #0, 18
    7108:	3252435f 	subscc	r4, r2, #2080374785	; 0x7c000001
    710c:	4254495f 	subsmi	r4, r4, #1556480	; 0x17c000
    7110:	4e454655 	mcrmi	6, 2, r4, cr5, cr5, {2}
    7114:	6b734d5f 	blvs	1cda698 <_Min_Stack_Size+0x1cda298>
    7118:	78302820 	ldmdavc	r0!, {r5, fp, sp}
    711c:	204c5531 	subcs	r5, ip, r1, lsr r5
    7120:	49203c3c 	stmdbmi	r0!, {r2, r3, r4, r5, sl, fp, ip, sp}
    7124:	435f4332 	cmpmi	pc, #-939524096	; 0xc8000000
    7128:	495f3252 	ldmdbmi	pc, {r1, r4, r6, r9, ip, sp}^	; <UNPREDICTABLE>
    712c:	46554254 			; <UNDEFINED> instruction: 0x46554254
    7130:	505f4e45 	subspl	r4, pc, r5, asr #28
    7134:	0029736f 	eoreq	r7, r9, pc, ror #6
    7138:	45425f5f 	strbmi	r5, [r2, #-3935]	; 0xfffff0a1
    713c:	5f4e4947 	svcpl	0x004e4947
    7140:	4c434544 	cfstr64mi	mvdx4, [r3], {68}	; 0x44
    7144:	5f002053 	svcpl	0x00002053
    7148:	4343415f 	movtmi	r4, #12639	; 0x315f
    714c:	4d5f4d55 	ldclmi	13, cr4, [pc, #-340]	; 7000 <_Min_Stack_Size+0x6c00>
    7150:	5f5f4e49 	svcpl	0x005f4e49
    7154:	302d2820 	eorcc	r2, sp, r0, lsr #16
    7158:	31503158 	cmpcc	r0, r8, asr r1
    715c:	302d4b35 	eorcc	r4, sp, r5, lsr fp
    7160:	31503158 	cmpcc	r0, r8, asr r1
    7164:	00294b35 	eoreq	r4, r9, r5, lsr fp
    7168:	4e475f5f 	mcrmi	15, 2, r5, cr7, cr15, {2}
    716c:	565f4355 			; <UNDEFINED> instruction: 0x565f4355
    7170:	494c5f41 	stmdbmi	ip, {r0, r6, r8, r9, sl, fp, ip, lr}^
    7174:	435f5453 	cmpmi	pc, #1392508928	; 0x53000000
    7178:	41504d4f 	cmpmi	r0, pc, asr #26
    717c:	49424954 	stmdbmi	r2, {r2, r4, r6, r8, fp, lr}^
    7180:	5954494c 	ldmdbpl	r4, {r2, r3, r6, r8, fp, lr}^
    7184:	5f003120 	svcpl	0x00003120
    7188:	4d52415f 	ldfmie	f4, [r2, #-380]	; 0xfffffe84
    718c:	4145465f 	cmpmi	r5, pc, asr r6
    7190:	45525554 	ldrbmi	r5, [r2, #-1364]	; 0xfffffaac
    7194:	5952435f 	ldmdbpl	r2, {r0, r1, r2, r3, r4, r6, r8, r9, lr}^
    7198:	004f5450 	subeq	r5, pc, r0, asr r4	; <UNPREDICTABLE>
    719c:	49545845 	ldmdbmi	r4, {r0, r2, r6, fp, ip, lr}^
    71a0:	35425035 	strbcc	r5, [r2, #-53]	; 0xffffffcb
    71a4:	58452820 	stmdapl	r5, {r5, fp, sp}^
    71a8:	475f4954 			; <UNDEFINED> instruction: 0x475f4954
    71ac:	5f4f4950 	svcpl	0x004f4950
    71b0:	6970614d 	ldmdbvs	r0!, {r0, r2, r3, r6, r8, sp, lr}^
    71b4:	745f676e 	ldrbvc	r6, [pc], #-1902	; 71bc <_Min_Stack_Size+0x6dbc>
    71b8:	58457b29 	stmdapl	r5, {r0, r3, r5, r8, r9, fp, ip, sp, lr}^
    71bc:	2c354954 			; <UNDEFINED> instruction: 0x2c354954
    71c0:	49504720 	ldmdbmi	r0, {r5, r8, r9, sl, lr}^
    71c4:	202c424f 	eorcs	r4, ip, pc, asr #4
    71c8:	4f495047 	svcmi	0x00495047
    71cc:	4e49505f 	mcrmi	0, 2, r5, cr9, cr15, {2}
    71d0:	202c355f 	eorcs	r3, ip, pc, asr r5
    71d4:	49545845 	ldmdbmi	r4, {r0, r2, r6, fp, ip, lr}^
    71d8:	52495f35 	subpl	r5, r9, #53, 30	; 0xd4
    71dc:	5f007d51 	svcpl	0x00007d51
    71e0:	544e495f 	strbpl	r4, [lr], #-2399	; 0xfffff6a1
    71e4:	41454c5f 	cmpmi	r5, pc, asr ip
    71e8:	32335453 	eorscc	r5, r3, #1392508928	; 0x53000000
    71ec:	5059545f 	subspl	r5, r9, pc, asr r4
    71f0:	205f5f45 	subscs	r5, pc, r5, asr #30
    71f4:	676e6f6c 	strbvs	r6, [lr, -ip, ror #30]!
    71f8:	746e6920 	strbtvc	r6, [lr], #-2336	; 0xfffff6e0
    71fc:	49564e00 	ldmdbmi	r6, {r9, sl, fp, lr}^
    7200:	32495f43 	subcc	r5, r9, #268	; 0x10c
    7204:	455f3243 	ldrbmi	r3, [pc, #-579]	; 6fc9 <_Min_Stack_Size+0x6bc9>
    7208:	52495f56 	subpl	r5, r9, #344	; 0x158
    720c:	5f333351 	svcpl	0x00333351
    7210:	42414e45 	submi	r4, r1, #1104	; 0x450
    7214:	2820454c 	stmdacs	r0!, {r2, r3, r6, r8, sl, lr}
    7218:	4349564e 	movtmi	r5, #38478	; 0x964e
    721c:	4553495f 	ldrbmi	r4, [r3, #-2399]	; 0xfffff6a1
    7220:	7c203152 	stfvcs	f3, [r0], #-328	; 0xfffffeb8
    7224:	2031203d 	eorscs	r2, r1, sp, lsr r0
    7228:	28203c3c 	stmdacs	r0!, {r2, r3, r4, r5, sl, fp, ip, sp}
    722c:	32433249 	subcc	r3, r3, #-1879048188	; 0x90000004
    7230:	5f56455f 	svcpl	0x0056455f
    7234:	2d515249 	lfmcs	f5, 2, [r1, #-292]	; 0xfffffedc
    7238:	29293233 	stmdbcs	r9!, {r0, r1, r4, r5, r9, ip, sp}
    723c:	5845003b 	stmdapl	r5, {r0, r1, r3, r4, r5}^
    7240:	5f344954 	svcpl	0x00344954
    7244:	20515249 	subscs	r5, r1, r9, asr #4
    7248:	45003031 	strmi	r3, [r0, #-49]	; 0xffffffcf
    724c:	31495458 	cmpcc	r9, r8, asr r4
    7250:	31425034 	cmpcc	r2, r4, lsr r0
    7254:	45282034 	strmi	r2, [r8, #-52]!	; 0xffffffcc
    7258:	5f495458 	svcpl	0x00495458
    725c:	4f495047 	svcmi	0x00495047
    7260:	70614d5f 	rsbvc	r4, r1, pc, asr sp
    7264:	5f676e69 	svcpl	0x00676e69
    7268:	457b2974 	ldrbmi	r2, [fp, #-2420]!	; 0xfffff68c
    726c:	31495458 	cmpcc	r9, r8, asr r4
    7270:	47202c34 			; <UNDEFINED> instruction: 0x47202c34
    7274:	424f4950 	submi	r4, pc, #80, 18	; 0x140000
    7278:	5047202c 	subpl	r2, r7, ip, lsr #32
    727c:	505f4f49 	subspl	r4, pc, r9, asr #30
    7280:	315f4e49 	cmpcc	pc, r9, asr #28
    7284:	45202c34 	strmi	r2, [r0, #-3124]!	; 0xfffff3cc
    7288:	31495458 	cmpcc	r9, r8, asr r4
    728c:	52495f34 	subpl	r5, r9, #52, 30	; 0xd0
    7290:	49007d51 	stmdbmi	r0, {r0, r4, r6, r8, sl, fp, ip, sp, lr}
    7294:	435f4332 	cmpmi	pc, #-939524096	; 0xc8000000
    7298:	535f3152 	cmppl	pc, #-2147483628	; 0x80000014
    729c:	54535257 	ldrbpl	r5, [r3], #-599	; 0xfffffda9
    72a0:	736f505f 	cmnvc	pc, #95	; 0x5f
    72a4:	35312820 	ldrcc	r2, [r1, #-2080]!	; 0xfffff7e0
    72a8:	5f002955 	svcpl	0x00002955
    72ac:	4e49555f 	mcrmi	5, 2, r5, cr9, cr15, {2}
    72b0:	454c5f54 	strbmi	r5, [ip, #-3924]	; 0xfffff0ac
    72b4:	36545341 	ldrbcc	r5, [r4], -r1, asr #6
    72b8:	414d5f34 	cmpmi	sp, r4, lsr pc
    72bc:	205f5f58 	subscs	r5, pc, r8, asr pc	; <UNPREDICTABLE>
    72c0:	66667830 			; <UNDEFINED> instruction: 0x66667830
    72c4:	66666666 	strbtvs	r6, [r6], -r6, ror #12
    72c8:	66666666 	strbtvs	r6, [r6], -r6, ror #12
    72cc:	66666666 	strbtvs	r6, [r6], -r6, ror #12
    72d0:	4c556666 	mrrcmi	6, 6, r6, r5, cr6
    72d4:	5f5f004c 	svcpl	0x005f004c
    72d8:	43415246 	movtmi	r5, #4678	; 0x1246
    72dc:	42495f54 	submi	r5, r9, #84, 30	; 0x150
    72e0:	5f5f5449 	svcpl	0x005f5449
    72e4:	5f003020 	svcpl	0x00003020
    72e8:	544e4157 	strbpl	r4, [lr], #-343	; 0xfffffea9
    72ec:	4553555f 	ldrbmi	r5, [r3, #-1375]	; 0xfffffaa1
    72f0:	5444475f 	strbpl	r4, [r4], #-1887	; 0xfffff8a1
    72f4:	3120414f 			; <UNDEFINED> instruction: 0x3120414f
    72f8:	465f5f00 	ldrbmi	r5, [pc], -r0, lsl #30
    72fc:	3436544c 	ldrtcc	r5, [r6], #-1100	; 0xfffffbb4
    7300:	5f53495f 	svcpl	0x0053495f
    7304:	5f434549 	svcpl	0x00434549
    7308:	35353036 	ldrcc	r3, [r5, #-54]!	; 0xffffffca
    730c:	205f5f39 	subscs	r5, pc, r9, lsr pc	; <UNPREDICTABLE>
    7310:	5f5f0032 	svcpl	0x005f0032
    7314:	4c57454e 	cfldr64mi	mvdx4, [r7], {78}	; 0x4e
    7318:	505f4249 	subspl	r4, pc, r9, asr #4
    731c:	48435441 	stmdami	r3, {r0, r6, sl, ip, lr}^
    7320:	4556454c 	ldrbmi	r4, [r6, #-1356]	; 0xfffffab4
    7324:	205f5f4c 	subscs	r5, pc, ip, asr #30
    7328:	5f5f0030 	svcpl	0x005f0030
    732c:	6b636f6c 	blvs	18e30e4 <_Min_Stack_Size+0x18e2ce4>
    7330:	7163615f 	cmnvc	r3, pc, asr r1
    7334:	65726975 	ldrbvs	r6, [r2, #-2421]!	; 0xfffff68b
    7338:	636f6c28 	cmnvs	pc, #40, 24	; 0x2800
    733c:	5f20296b 	svcpl	0x0020296b
    7340:	7465725f 	strbtvc	r7, [r5], #-607	; 0xfffffda1
    7344:	65677261 	strbvs	r7, [r7, #-609]!	; 0xfffffd9f
    7348:	6f6c5f74 	svcvs	0x006c5f74
    734c:	615f6b63 	cmpvs	pc, r3, ror #22
    7350:	69757163 	ldmdbvs	r5!, {r0, r1, r5, r6, r8, ip, sp, lr}^
    7354:	6c286572 	cfstr32vs	mvfx6, [r8], #-456	; 0xfffffe38
    7358:	296b636f 	stmdbcs	fp!, {r0, r1, r2, r3, r5, r6, r8, r9, sp, lr}^
    735c:	4f5f5f00 	svcmi	0x005f5f00
    7360:	52454452 	subpl	r4, r5, #1375731712	; 0x52000000
    7364:	54494c5f 	strbpl	r4, [r9], #-3167	; 0xfffff3a1
    7368:	5f454c54 	svcpl	0x00454c54
    736c:	49444e45 	stmdbmi	r4, {r0, r2, r6, r9, sl, fp, lr}^
    7370:	5f5f4e41 	svcpl	0x005f4e41
    7374:	33323120 	teqcc	r2, #32, 2
    7378:	5f5f0034 	svcpl	0x005f0034
    737c:	657a6973 	ldrbvs	r6, [sl, #-2419]!	; 0xfffff68d
    7380:	5200745f 	andpl	r7, r0, #1593835520	; 0x5f000000
    7384:	475f4343 	ldrbmi	r4, [pc, -r3, asr #6]
    7388:	444f4950 	strbmi	r4, [pc], #-2384	; 7390 <_Min_Stack_Size+0x6f90>
    738c:	4b4c435f 	blmi	1318110 <_Min_Stack_Size+0x1317d10>
    7390:	284e455f 	stmdacs	lr, {r0, r1, r2, r3, r4, r6, r8, sl, lr}^
    7394:	52282029 	eorpl	r2, r8, #41	; 0x29
    7398:	3e2d4343 	cdpcc	3, 2, cr4, cr13, cr3, {2}
    739c:	32425041 	subcc	r5, r2, #65	; 0x41
    73a0:	20524e45 	subscs	r4, r2, r5, asr #28
    73a4:	31203d7c 			; <UNDEFINED> instruction: 0x31203d7c
    73a8:	29353c3c 	ldmdbcs	r5!, {r2, r3, r4, r5, sl, fp, ip, sp}
    73ac:	5f5f003b 	svcpl	0x005f003b
    73b0:	5f544c46 	svcpl	0x00544c46
    73b4:	4d524f4e 	ldclmi	15, cr4, [r2, #-312]	; 0xfffffec8
    73b8:	58414d5f 	stmdapl	r1, {r0, r1, r2, r3, r4, r6, r8, sl, fp, lr}^
    73bc:	33205f5f 			; <UNDEFINED> instruction: 0x33205f5f
    73c0:	3230342e 	eorscc	r3, r0, #771751936	; 0x2e000000
    73c4:	34333238 	ldrtcc	r3, [r3], #-568	; 0xfffffdc8
    73c8:	38333636 	ldmdacc	r3!, {r1, r2, r4, r5, r9, sl, ip, sp}
    73cc:	38383235 	ldmdacc	r8!, {r0, r2, r4, r5, r9, ip, sp}
    73d0:	332b6536 			; <UNDEFINED> instruction: 0x332b6536
    73d4:	5f004638 	svcpl	0x00004638
    73d8:	544f445f 	strbpl	r4, [pc], #-1119	; 73e0 <_Min_Stack_Size+0x6fe0>
    73dc:	202c2053 	eorcs	r2, ip, r3, asr r0
    73e0:	002e2e2e 	eoreq	r2, lr, lr, lsr #28
    73e4:	4545525f 	strbmi	r5, [r5, #-607]	; 0xfffffda1
    73e8:	475f544e 	ldrbmi	r5, [pc, -lr, asr #8]
    73ec:	41445445 	cmpmi	r4, r5, asr #8
    73f0:	455f4554 	ldrbmi	r4, [pc, #-1364]	; 6ea4 <_Min_Stack_Size+0x6aa4>
    73f4:	505f5252 	subspl	r5, pc, r2, asr r2	; <UNPREDICTABLE>
    73f8:	72747028 	rsbsvc	r7, r4, #40	; 0x28
    73fc:	26282029 	strtcs	r2, [r8], -r9, lsr #32
    7400:	74702828 	ldrbtvc	r2, [r0], #-2088	; 0xfffff7d8
    7404:	3e2d2972 			; <UNDEFINED> instruction: 0x3e2d2972
    7408:	73696d5f 	cmnvc	r9, #6080	; 0x17c0
    740c:	5f3e2d63 	svcpl	0x003e2d63
    7410:	64746567 	ldrbtvs	r6, [r4], #-1383	; 0xfffffa99
    7414:	5f657461 	svcpl	0x00657461
    7418:	29727265 	ldmdbcs	r2!, {r0, r2, r5, r6, r9, ip, sp, lr}^
    741c:	5f5f0029 	svcpl	0x005f0029
    7420:	5f544c46 	svcpl	0x00544c46
    7424:	5f4e494d 	svcpl	0x004e494d
    7428:	455f3031 	ldrbmi	r3, [pc, #-49]	; 73ff <_Min_Stack_Size+0x6fff>
    742c:	5f5f5058 	svcpl	0x005f5058
    7430:	332d2820 			; <UNDEFINED> instruction: 0x332d2820
    7434:	49002937 	stmdbmi	r0, {r0, r1, r2, r4, r5, r8, fp, sp}
    7438:	435f4332 	cmpmi	pc, #-939524096	; 0xc8000000
    743c:	415f3152 	cmpmi	pc, r2, asr r1	; <UNPREDICTABLE>
    7440:	5452454c 	ldrbpl	r4, [r2], #-1356	; 0xfffffab4
    7444:	6b734d5f 	blvs	1cda9c8 <_Min_Stack_Size+0x1cda5c8>
    7448:	78302820 	ldmdavc	r0!, {r5, fp, sp}
    744c:	204c5531 	subcs	r5, ip, r1, lsr r5
    7450:	49203c3c 	stmdbmi	r0!, {r2, r3, r4, r5, sl, fp, ip, sp}
    7454:	435f4332 	cmpmi	pc, #-939524096	; 0xc8000000
    7458:	415f3152 	cmpmi	pc, r2, asr r1	; <UNPREDICTABLE>
    745c:	5452454c 	ldrbpl	r4, [r2], #-1356	; 0xfffffab4
    7460:	736f505f 	cmnvc	pc, #95	; 0x5f
    7464:	5f5f0029 	svcpl	0x005f0029
    7468:	43414c55 	movtmi	r4, #7253	; 0x1c55
    746c:	5f4d5543 	svcpl	0x004d5543
    7470:	54494249 	strbpl	r4, [r9], #-585	; 0xfffffdb7
    7474:	33205f5f 			; <UNDEFINED> instruction: 0x33205f5f
    7478:	5f5f0032 	svcpl	0x005f0032
    747c:	54524853 	ldrbpl	r4, [r2], #-2131	; 0xfffff7ad
    7480:	58414d5f 	stmdapl	r1, {r0, r1, r2, r3, r4, r6, r8, sl, fp, lr}^
    7484:	30205f5f 	eorcc	r5, r0, pc, asr pc
    7488:	66663778 			; <UNDEFINED> instruction: 0x66663778
    748c:	5f5f0066 	svcpl	0x005f0066
    7490:	4c42444c 	cfstrdmi	mvd4, [r2], {76}	; 0x4c
    7494:	5f53495f 	svcpl	0x0053495f
    7498:	5f434549 	svcpl	0x00434549
    749c:	35353036 	ldrcc	r3, [r5, #-54]!	; 0xffffffca
    74a0:	205f5f39 	subscs	r5, pc, r9, lsr pc	; <UNPREDICTABLE>
    74a4:	5f5f0032 	svcpl	0x005f0032
    74a8:	615f7369 	cmpvs	pc, r9, ror #6
    74ac:	6e67696c 	vnmulvs.f16	s13, s14, s25	; <UNPREDICTABLE>
    74b0:	78286465 	stmdavc	r8!, {r0, r2, r5, r6, sl, sp, lr}
    74b4:	2029792c 	eorcs	r7, r9, ip, lsr #18
    74b8:	75625f5f 	strbvc	r5, [r2, #-3935]!	; 0xfffff0a1
    74bc:	69746c69 	ldmdbvs	r4!, {r0, r3, r5, r6, sl, fp, sp, lr}^
    74c0:	73695f6e 	cmnvc	r9, #440	; 0x1b8
    74c4:	696c615f 	stmdbvs	ip!, {r0, r1, r2, r3, r4, r6, r8, sp, lr}^
    74c8:	64656e67 	strbtvs	r6, [r5], #-3687	; 0xfffff199
    74cc:	202c7828 	eorcs	r7, ip, r8, lsr #16
    74d0:	5f002979 	svcpl	0x00002979
    74d4:	4c4c555f 	cfstr64mi	mvdx5, [ip], {95}	; 0x5f
    74d8:	55434341 	strbpl	r4, [r3, #-833]	; 0xfffffcbf
    74dc:	50455f4d 	subpl	r5, r5, sp, asr #30
    74e0:	4f4c4953 	svcmi	0x004c4953
    74e4:	205f5f4e 	subscs	r5, pc, lr, asr #30
    74e8:	50317830 	eorspl	r7, r1, r0, lsr r8
    74ec:	5532332d 	ldrpl	r3, [r2, #-813]!	; 0xfffffcd3
    74f0:	004b4c4c 	subeq	r4, fp, ip, asr #24
    74f4:	5a49535f 	bpl	125c278 <_Min_Stack_Size+0x125be78>
    74f8:	5f545f45 	svcpl	0x00545f45
    74fc:	49464544 	stmdbmi	r6, {r2, r6, r8, sl, lr}^
    7500:	2044454e 	subcs	r4, r4, lr, asr #10
    7504:	445f5f00 	ldrbmi	r5, [pc], #-3840	; 750c <_Min_Stack_Size+0x710c>
    7508:	42465f51 	submi	r5, r6, #324	; 0x144
    750c:	5f5f5449 	svcpl	0x005f5449
    7510:	00333620 	eorseq	r3, r3, r0, lsr #12
    7514:	5f433249 	svcpl	0x00433249
    7518:	5f325253 	svcpl	0x00325253
    751c:	4c415544 	cfstr64mi	mvdx5, [r1], {68}	; 0x44
    7520:	734d5f46 	movtvc	r5, #57158	; 0xdf46
    7524:	3028206b 	eorcc	r2, r8, fp, rrx
    7528:	4c553178 	ldfmie	f3, [r5], {120}	; 0x78
    752c:	203c3c20 	eorscs	r3, ip, r0, lsr #24
    7530:	5f433249 	svcpl	0x00433249
    7534:	5f325253 	svcpl	0x00325253
    7538:	4c415544 	cfstr64mi	mvdx5, [r1], {68}	; 0x44
    753c:	6f505f46 	svcvs	0x00505f46
    7540:	5f002973 	svcpl	0x00002973
    7544:	554e475f 	strbpl	r4, [lr, #-1887]	; 0xfffff8a1
    7548:	5349565f 	movtpl	r5, #38495	; 0x965f
    754c:	454c4249 	strbmi	r4, [ip, #-585]	; 0xfffffdb7
    7550:	5f003020 	svcpl	0x00003020
    7554:	4341535f 	movtmi	r5, #4959	; 0x135f
    7558:	5f4d5543 	svcpl	0x004d5543
    755c:	54494249 	strbpl	r4, [r9], #-585	; 0xfffffdb7
    7560:	38205f5f 	stmdacc	r0!, {r0, r1, r2, r3, r4, r6, r8, r9, sl, fp, ip, lr}
    7564:	505f5f00 	subspl	r5, pc, r0, lsl #30
    7568:	49445254 	stmdbmi	r4, {r2, r4, r6, r9, ip, lr}^
    756c:	545f4646 	ldrbpl	r4, [pc], #-1606	; 7574 <_Min_Stack_Size+0x7174>
    7570:	5f5f0020 	svcpl	0x005f0020
    7574:	5f514855 	svcpl	0x00514855
    7578:	54494249 	strbpl	r4, [r9], #-585	; 0xfffffdb7
    757c:	30205f5f 	eorcc	r5, r0, pc, asr pc
    7580:	49504700 	ldmdbmi	r0, {r8, r9, sl, lr}^
    7584:	2820434f 	stmdacs	r0!, {r0, r1, r2, r3, r6, r8, r9, lr}
    7588:	49504728 	ldmdbmi	r0, {r3, r5, r8, r9, sl, lr}^
    758c:	79545f4f 	ldmdbvc	r4, {r0, r1, r2, r3, r6, r8, r9, sl, fp, ip, lr}^
    7590:	65646570 	strbvs	r6, [r4, #-1392]!	; 0xfffffa90
    7594:	292a2066 	stmdbcs	sl!, {r1, r2, r5, r6, sp}
    7598:	4f495047 	svcmi	0x00495047
    759c:	41425f43 	cmpmi	r2, r3, asr #30
    75a0:	00294553 	eoreq	r4, r9, r3, asr r5
    75a4:	4f495047 	svcmi	0x00495047
    75a8:	4e49505f 	mcrmi	0, 2, r5, cr9, cr15, {2}
    75ac:	2820355f 	stmdacs	r0!, {r0, r1, r2, r3, r4, r6, r8, sl, ip, sp}
    75b0:	6e697528 	cdpvs	5, 6, cr7, cr9, cr8, {1}
    75b4:	5f363174 	svcpl	0x00363174
    75b8:	78302974 	ldmdavc	r0!, {r2, r4, r5, r6, r8, fp, sp}
    75bc:	30323030 	eorscc	r3, r2, r0, lsr r0
    75c0:	32490029 	subcc	r0, r9, #41	; 0x29
    75c4:	52535f43 	subspl	r5, r3, #268	; 0x10c
    75c8:	45475f32 	strbmi	r5, [r7, #-3890]	; 0xfffff0ce
    75cc:	4c41434e 	mcrrmi	3, 4, r4, r1, cr14
    75d0:	3249204c 	subcc	r2, r9, #76	; 0x4c
    75d4:	52535f43 	subspl	r5, r3, #268	; 0x10c
    75d8:	45475f32 	strbmi	r5, [r7, #-3890]	; 0xfffff0ce
    75dc:	4c41434e 	mcrrmi	3, 4, r4, r1, cr14
    75e0:	734d5f4c 	movtvc	r5, #57164	; 0xdf4c
    75e4:	5f5f006b 	svcpl	0x005f006b
    75e8:	5f544e49 	svcpl	0x00544e49
    75ec:	54534146 	ldrbpl	r4, [r3], #-326	; 0xfffffeba
    75f0:	545f3631 	ldrbpl	r3, [pc], #-1585	; 75f8 <_Min_Stack_Size+0x71f8>
    75f4:	5f455059 	svcpl	0x00455059
    75f8:	6e69205f 	mcrvs	0, 3, r2, cr9, cr15, {2}
    75fc:	555f0074 	ldrbpl	r0, [pc, #-116]	; 7590 <_Min_Stack_Size+0x7190>
    7600:	4d544e49 	ldclmi	14, cr4, [r4, #-292]	; 0xfffffedc
    7604:	545f5841 	ldrbpl	r5, [pc], #-2113	; 760c <_Min_Stack_Size+0x720c>
    7608:	4345445f 	movtmi	r4, #21599	; 0x545f
    760c:	4552414c 	ldrbmi	r4, [r2, #-332]	; 0xfffffeb4
    7610:	5f002044 	svcpl	0x00002044
    7614:	4341535f 	movtmi	r5, #4959	; 0x135f
    7618:	5f4d5543 	svcpl	0x004d5543
    761c:	5f4e494d 	svcpl	0x004e494d
    7620:	2d28205f 	stccs	0, cr2, [r8, #-380]!	; 0xfffffe84
    7624:	50315830 	eorspl	r5, r1, r0, lsr r8
    7628:	2d4b4837 	stclcs	8, cr4, [fp, #-220]	; 0xffffff24
    762c:	50315830 	eorspl	r5, r1, r0, lsr r8
    7630:	294b4837 	stmdbcs	fp, {r0, r1, r2, r4, r5, fp, lr}^
    7634:	555f5f00 	ldrbpl	r5, [pc, #-3840]	; 673c <_Min_Stack_Size+0x633c>
    7638:	4152464c 	cmpmi	r2, ip, asr #12
    763c:	4d5f5443 	cfldrdmi	mvd5, [pc, #-268]	; 7538 <_Min_Stack_Size+0x7138>
    7640:	5f5f5841 	svcpl	0x005f5841
    7644:	46583020 	ldrbmi	r3, [r8], -r0, lsr #32
    7648:	46464646 	strbmi	r4, [r6], -r6, asr #12
    764c:	50464646 	subpl	r4, r6, r6, asr #12
    7650:	5532332d 	ldrpl	r3, [r2, #-813]!	; 0xfffffcd3
    7654:	5f00524c 	svcpl	0x0000524c
    7658:	4e49555f 	mcrmi	5, 2, r5, cr9, cr15, {2}
    765c:	454c5f54 	strbmi	r5, [ip, #-3924]	; 0xfffff0ac
    7660:	31545341 	cmpcc	r4, r1, asr #6
    7664:	59545f36 	ldmdbpl	r4, {r1, r2, r4, r5, r8, r9, sl, fp, ip, lr}^
    7668:	5f5f4550 	svcpl	0x005f4550
    766c:	6f687320 	svcvs	0x00687320
    7670:	75207472 	strvc	r7, [r0, #-1138]!	; 0xfffffb8e
    7674:	6769736e 	strbvs	r7, [r9, -lr, ror #6]!
    7678:	2064656e 	rsbcs	r6, r4, lr, ror #10
    767c:	00746e69 	rsbseq	r6, r4, r9, ror #28
    7680:	52415f5f 	subpl	r5, r1, #380	; 0x17c
    7684:	45465f4d 	strbmi	r5, [r6, #-3917]	; 0xfffff0b3
    7688:	52555441 	subspl	r5, r5, #1090519040	; 0x41000000
    768c:	4d465f45 	stclmi	15, cr5, [r6, #-276]	; 0xfffffeec
    7690:	5f5f0041 	svcpl	0x005f0041
    7694:	4343414c 	movtmi	r4, #12620	; 0x314c
    7698:	4d5f4d55 	ldclmi	13, cr4, [pc, #-340]	; 754c <_Min_Stack_Size+0x714c>
    769c:	5f5f5841 	svcpl	0x005f5841
    76a0:	37583020 	ldrbcc	r3, [r8, -r0, lsr #32]
    76a4:	46464646 	strbmi	r4, [r6], -r6, asr #12
    76a8:	46464646 	strbmi	r4, [r6], -r6, asr #12
    76ac:	46464646 	strbmi	r4, [r6], -r6, asr #12
    76b0:	50464646 	subpl	r4, r6, r6, asr #12
    76b4:	4c31332d 	ldcmi	3, cr3, [r1], #-180	; 0xffffff4c
    76b8:	5f5f004b 	svcpl	0x005f004b
    76bc:	52414843 	subpl	r4, r1, #4390912	; 0x430000
    76c0:	545f3631 	ldrbpl	r3, [pc], #-1585	; 76c8 <_Min_Stack_Size+0x72c8>
    76c4:	5f455059 	svcpl	0x00455059
    76c8:	6873205f 	ldmdavs	r3!, {r0, r1, r2, r3, r4, r6, sp}^
    76cc:	2074726f 	rsbscs	r7, r4, pc, ror #4
    76d0:	69736e75 	ldmdbvs	r3!, {r0, r2, r4, r5, r6, r9, sl, fp, sp, lr}^
    76d4:	64656e67 	strbtvs	r6, [r5], #-3687	; 0xfffff199
    76d8:	746e6920 	strbtvc	r6, [lr], #-2336	; 0xfffff6e0
    76dc:	49504700 	ldmdbmi	r0, {r8, r9, sl, lr}^
    76e0:	49505f4f 	ldmdbmi	r0, {r0, r1, r2, r3, r6, r8, r9, sl, fp, ip, lr}^
    76e4:	20365f4e 	eorscs	r5, r6, lr, asr #30
    76e8:	69752828 	ldmdbvs	r5!, {r3, r5, fp, sp}^
    76ec:	3631746e 	ldrtcc	r7, [r1], -lr, ror #8
    76f0:	3029745f 	eorcc	r7, r9, pc, asr r4
    76f4:	34303078 	ldrtcc	r3, [r0], #-120	; 0xffffff88
    76f8:	5f002930 	svcpl	0x00002930
    76fc:	544c465f 	strbpl	r4, [ip], #-1631	; 0xfffff9a1
    7700:	5f583233 	svcpl	0x00583233
    7704:	5f474944 	svcpl	0x00474944
    7708:	3531205f 	ldrcc	r2, [r1, #-95]!	; 0xffffffa1
    770c:	735f5f00 	cmpvc	pc, #0, 30
    7710:	656e6769 	strbvs	r6, [lr, #-1897]!	; 0xfffff897
    7714:	69732064 	ldmdbvs	r3!, {r2, r5, r6, sp}^
    7718:	64656e67 	strbtvs	r6, [r5], #-3687	; 0xfffff199
    771c:	43324900 	teqmi	r2, #0, 18
    7720:	3152435f 	cmpcc	r2, pc, asr r3
    7724:	5257535f 	subspl	r5, r7, #2080374785	; 0x7c000001
    7728:	49205453 	stmdbmi	r0!, {r0, r1, r4, r6, sl, ip, lr}
    772c:	435f4332 	cmpmi	pc, #-939524096	; 0xc8000000
    7730:	535f3152 	cmppl	pc, #-2147483628	; 0x80000014
    7734:	54535257 	ldrbpl	r5, [r3], #-599	; 0xfffffda9
    7738:	6b734d5f 	blvs	1cdacbc <_Min_Stack_Size+0x1cda8bc>
    773c:	51524900 	cmppl	r2, r0, lsl #18
    7740:	004e455f 	subeq	r4, lr, pc, asr r5
    7744:	54555f5f 	ldrbpl	r5, [r5], #-3935	; 0xfffff0a1
    7748:	42465f51 	submi	r5, r6, #324	; 0x144
    774c:	5f5f5449 	svcpl	0x005f5449
    7750:	38323120 	ldmdacc	r2!, {r5, r8, ip, sp}
    7754:	43324900 	teqmi	r2, #0, 18
    7758:	3152435f 	cmpcc	r2, pc, asr r3
    775c:	534f4e5f 	movtpl	r4, #65119	; 0xfe5f
    7760:	54455254 	strbpl	r5, [r5], #-596	; 0xfffffdac
    7764:	4d5f4843 	ldclmi	8, cr4, [pc, #-268]	; 7660 <_Min_Stack_Size+0x7260>
    7768:	28206b73 	stmdacs	r0!, {r0, r1, r4, r5, r6, r8, r9, fp, sp, lr}
    776c:	55317830 	ldrpl	r7, [r1, #-2096]!	; 0xfffff7d0
    7770:	3c3c204c 	ldccc	0, cr2, [ip], #-304	; 0xfffffed0
    7774:	43324920 	teqmi	r2, #32, 18	; 0x80000
    7778:	3152435f 	cmpcc	r2, pc, asr r3
    777c:	534f4e5f 	movtpl	r4, #65119	; 0xfe5f
    7780:	54455254 	strbpl	r5, [r5], #-596	; 0xfffffdac
    7784:	505f4843 	subspl	r4, pc, r3, asr #16
    7788:	0029736f 	eoreq	r7, r9, pc, ror #6
    778c:	4545525f 	strbmi	r5, [r5, #-607]	; 0xfffffda1
    7790:	435f544e 	cmpmi	pc, #1308622848	; 0x4e000000
    7794:	454c5456 	strbmi	r5, [ip, #-1110]	; 0xfffffbaa
    7798:	705f284e 	subsvc	r2, pc, lr, asr #16
    779c:	20297274 	eorcs	r7, r9, r4, ror r2
    77a0:	705f2828 	subsvc	r2, pc, r8, lsr #16
    77a4:	2d297274 	sfmcs	f7, 4, [r9, #-464]!	; 0xfffffe30
    77a8:	76635f3e 	uqasxvc	r5, r3, lr
    77ac:	6e656c74 	mcrvs	12, 3, r6, cr5, cr4, {3}
    77b0:	58450029 	stmdapl	r5, {r0, r3, r5}^
    77b4:	50314954 	eorspl	r4, r1, r4, asr r9
    77b8:	28203144 	stmdacs	r0!, {r2, r6, r8, ip, sp}
    77bc:	49545845 	ldmdbmi	r4, {r0, r2, r6, fp, ip, lr}^
    77c0:	4950475f 	ldmdbmi	r0, {r0, r1, r2, r3, r4, r6, r8, r9, sl, lr}^
    77c4:	614d5f4f 	cmpvs	sp, pc, asr #30
    77c8:	676e6970 			; <UNDEFINED> instruction: 0x676e6970
    77cc:	7b29745f 	blvc	a64950 <_Min_Stack_Size+0xa64550>
    77d0:	49545845 	ldmdbmi	r4, {r0, r2, r6, fp, ip, lr}^
    77d4:	47202c31 			; <UNDEFINED> instruction: 0x47202c31
    77d8:	444f4950 	strbmi	r4, [pc], #-2384	; 77e0 <_Min_Stack_Size+0x73e0>
    77dc:	5047202c 	subpl	r2, r7, ip, lsr #32
    77e0:	505f4f49 	subspl	r4, pc, r9, asr #30
    77e4:	315f4e49 	cmpcc	pc, r9, asr #28
    77e8:	5845202c 	stmdapl	r5, {r2, r3, r5, sp}^
    77ec:	5f314954 	svcpl	0x00314954
    77f0:	7d515249 	lfmvc	f5, 2, [r1, #-292]	; 0xfffffedc
    77f4:	43324900 	teqmi	r2, #0, 18
    77f8:	3152535f 	cmpcc	r2, pc, asr r3
    77fc:	4e58525f 	mrcmi	2, 2, r5, cr8, cr15, {2}
    7800:	734d5f45 	movtvc	r5, #57157	; 0xdf45
    7804:	3028206b 	eorcc	r2, r8, fp, rrx
    7808:	4c553178 	ldfmie	f3, [r5], {120}	; 0x78
    780c:	203c3c20 	eorscs	r3, ip, r0, lsr #24
    7810:	5f433249 	svcpl	0x00433249
    7814:	5f315253 	svcpl	0x00315253
    7818:	454e5852 	strbmi	r5, [lr, #-2130]	; 0xfffff7ae
    781c:	736f505f 	cmnvc	pc, #95	; 0x5f
    7820:	5f5f0029 	svcpl	0x005f0029
    7824:	494e4946 	stmdbmi	lr, {r1, r2, r6, r8, fp, lr}^
    7828:	4d5f4554 	cfldr64mi	mvdx4, [pc, #-336]	; 76e0 <_Min_Stack_Size+0x72e0>
    782c:	5f485441 	svcpl	0x00485441
    7830:	594c4e4f 	stmdbpl	ip, {r0, r1, r2, r3, r6, r9, sl, fp, lr}^
    7834:	30205f5f 	eorcc	r5, r0, pc, asr pc
    7838:	495f5f00 	ldmdbmi	pc, {r8, r9, sl, fp, ip, lr}^	; <UNPREDICTABLE>
    783c:	465f544e 	ldrbmi	r5, [pc], -lr, asr #8
    7840:	31545341 	cmpcc	r4, r1, asr #6
    7844:	414d5f36 	cmpmi	sp, r6, lsr pc
    7848:	205f5f58 	subscs	r5, pc, r8, asr pc	; <UNPREDICTABLE>
    784c:	66377830 			; <UNDEFINED> instruction: 0x66377830
    7850:	66666666 	strbtvs	r6, [r6], -r6, ror #12
    7854:	5f006666 	svcpl	0x00006666
    7858:	7661685f 			; <UNDEFINED> instruction: 0x7661685f
    785c:	6f6c5f65 	svcvs	0x006c5f65
    7860:	6f6c676e 	svcvs	0x006c676e
    7864:	3436676e 	ldrtcc	r6, [r6], #-1902	; 0xfffff892
    7868:	4d003120 	stfmis	f3, [r0, #-128]	; 0xffffff80
    786c:	00525041 	subseq	r5, r2, r1, asr #32
    7870:	53414c46 	movtpl	r4, #7238	; 0x1c46
    7874:	454d5f48 	strbmi	r5, [sp, #-3912]	; 0xfffff0b8
    7878:	59524f4d 	ldmdbpl	r2, {r0, r2, r3, r6, r8, r9, sl, fp, lr}^
    787c:	5341425f 	movtpl	r4, #4703	; 0x125f
    7880:	78302045 	ldmdavc	r0!, {r0, r2, r6, sp}
    7884:	30303830 	eorscc	r3, r0, r0, lsr r8
    7888:	30303030 	eorscc	r3, r0, r0, lsr r0
    788c:	49004c55 	stmdbmi	r0, {r0, r2, r4, r6, sl, fp, lr}
    7890:	435f4332 	cmpmi	pc, #-939524096	; 0xc8000000
    7894:	455f3152 	ldrbmi	r3, [pc, #-338]	; 774a <_Min_Stack_Size+0x734a>
    7898:	5052414e 	subspl	r4, r2, lr, asr #2
    789c:	43324920 	teqmi	r2, #32, 18	; 0x80000
    78a0:	3152435f 	cmpcc	r2, pc, asr r3
    78a4:	414e455f 	cmpmi	lr, pc, asr r5
    78a8:	4d5f5052 	ldclmi	0, cr5, [pc, #-328]	; 7768 <_Min_Stack_Size+0x7368>
    78ac:	5f006b73 	svcpl	0x00006b73
    78b0:	544e4955 	strbpl	r4, [lr], #-2389	; 0xfffff6ab
    78b4:	5f545f38 	svcpl	0x00545f38
    78b8:	4c434544 	cfstr64mi	mvdx4, [r3], {68}	; 0x44
    78bc:	44455241 	strbmi	r5, [r5], #-577	; 0xfffffdbf
    78c0:	43520020 	cmpmi	r2, #32
    78c4:	50475f43 	subpl	r5, r7, r3, asr #30
    78c8:	5f454f49 	svcpl	0x00454f49
    78cc:	5f4b4c43 	svcpl	0x004b4c43
    78d0:	29284e45 	stmdbcs	r8!, {r0, r2, r6, r9, sl, fp, lr}
    78d4:	43522820 	cmpmi	r2, #32, 16	; 0x200000
    78d8:	413e2d43 	teqmi	lr, r3, asr #26
    78dc:	45324250 	ldrmi	r4, [r2, #-592]!	; 0xfffffdb0
    78e0:	7c20524e 	sfmvc	f5, 4, [r0], #-312	; 0xfffffec8
    78e4:	3c31203d 	ldccc	0, cr2, [r1], #-244	; 0xffffff0c
    78e8:	3b29363c 	blcc	a551e0 <_Min_Stack_Size+0xa54de0>
    78ec:	54584500 	ldrbpl	r4, [r8], #-1280	; 0xfffffb00
    78f0:	495f3249 	ldmdbmi	pc, {r0, r3, r6, r9, ip, sp}^	; <UNPREDICTABLE>
    78f4:	61485152 	cmpvs	r8, r2, asr r1
    78f8:	656c646e 	strbvs	r6, [ip, #-1134]!	; 0xfffffb92
    78fc:	5f5f0072 	svcpl	0x005f0072
    7900:	6b636f6c 	blvs	18e36b8 <_Min_Stack_Size+0x18e32b8>
    7904:	7972745f 	ldmdbvc	r2!, {r0, r1, r2, r3, r4, r6, sl, ip, sp, lr}^
    7908:	7163615f 	cmnvc	r3, pc, asr r1
    790c:	65726975 	ldrbvs	r6, [r2, #-2421]!	; 0xfffff68b
    7910:	636f6c28 	cmnvs	pc, #40, 24	; 0x2800
    7914:	5f20296b 	svcpl	0x0020296b
    7918:	7465725f 	strbtvc	r7, [r5], #-607	; 0xfffffda1
    791c:	65677261 	strbvs	r7, [r7, #-609]!	; 0xfffffd9f
    7920:	6f6c5f74 	svcvs	0x006c5f74
    7924:	745f6b63 	ldrbvc	r6, [pc], #-2915	; 792c <_Min_Stack_Size+0x752c>
    7928:	615f7972 	cmpvs	pc, r2, ror r9	; <UNPREDICTABLE>
    792c:	69757163 	ldmdbvs	r5!, {r0, r1, r5, r6, r8, ip, sp, lr}^
    7930:	6c286572 	cfstr32vs	mvfx6, [r8], #-456	; 0xfffffe38
    7934:	296b636f 	stmdbcs	fp!, {r0, r1, r2, r3, r5, r6, r8, r9, sp, lr}^
    7938:	49555f00 	ldmdbmi	r5, {r8, r9, sl, fp, ip, lr}^
    793c:	5450544e 	ldrbpl	r5, [r0], #-1102	; 0xfffffbb2
    7940:	5f545f52 	svcpl	0x00545f52
    7944:	4c434544 	cfstr64mi	mvdx4, [r3], {68}	; 0x44
    7948:	44455241 	strbmi	r5, [r5], #-577	; 0xfffffdbf
    794c:	58450020 	stmdapl	r5, {r5}^
    7950:	35314954 	ldrcc	r4, [r1, #-2388]!	; 0xfffff6ac
    7954:	5152495f 	cmppl	r2, pc, asr r9
    7958:	00303420 	eorseq	r3, r0, r0, lsr #8
    795c:	4843575f 	stmdami	r3, {r0, r1, r2, r3, r4, r6, r8, r9, sl, ip, lr}^
    7960:	545f5241 	ldrbpl	r5, [pc], #-577	; 7968 <_Min_Stack_Size+0x7568>
    7964:	4645445f 			; <UNDEFINED> instruction: 0x4645445f
    7968:	44454e49 	strbmi	r4, [r5], #-3657	; 0xfffff1b7
    796c:	5f5f0020 	svcpl	0x005f0020
    7970:	43414c55 	movtmi	r4, #7253	; 0x1c55
    7974:	5f4d5543 	svcpl	0x004d5543
    7978:	5f58414d 	svcpl	0x0058414d
    797c:	5830205f 	ldmdapl	r0!, {r0, r1, r2, r3, r4, r6, sp}
    7980:	46464646 	strbmi	r4, [r6], -r6, asr #12
    7984:	46464646 	strbmi	r4, [r6], -r6, asr #12
    7988:	46464646 	strbmi	r4, [r6], -r6, asr #12
    798c:	46464646 	strbmi	r4, [r6], -r6, asr #12
    7990:	32332d50 	eorscc	r2, r3, #80, 26	; 0x1400
    7994:	004b4c55 	subeq	r4, fp, r5, asr ip
    7998:	72745f5f 	rsbsvc	r5, r4, #380	; 0x17c
    799c:	636f6c79 	cmnvs	pc, #30976	; 0x7900
    79a0:	655f736b 	ldrbvs	r7, [pc, #-875]	; 763d <_Min_Stack_Size+0x723d>
    79a4:	756c6378 	strbvc	r6, [ip, #-888]!	; 0xfffffc88
    79a8:	65766973 	ldrbvs	r6, [r6, #-2419]!	; 0xfffff68d
    79ac:	2e2e2e28 	cdpcs	14, 2, cr2, cr14, cr8, {1}
    79b0:	5f5f2029 	svcpl	0x005f2029
    79b4:	6b636f6c 	blvs	18e376c <_Min_Stack_Size+0x18e336c>
    79b8:	6e6e615f 	mcrvs	1, 3, r6, cr14, cr15, {2}
    79bc:	7461746f 	strbtvc	r7, [r1], #-1135	; 0xfffffb91
    79c0:	78652865 	stmdavc	r5!, {r0, r2, r5, r6, fp, sp}^
    79c4:	73756c63 	cmnvc	r5, #25344	; 0x6300
    79c8:	5f657669 	svcpl	0x00657669
    79cc:	6c797274 	lfmvs	f7, 2, [r9], #-464	; 0xfffffe30
    79d0:	5f6b636f 	svcpl	0x006b636f
    79d4:	636e7566 	cmnvs	lr, #427819008	; 0x19800000
    79d8:	6e6f6974 			; <UNDEFINED> instruction: 0x6e6f6974
    79dc:	565f5f28 	ldrbpl	r5, [pc], -r8, lsr #30
    79e0:	52415f41 	subpl	r5, r1, #260	; 0x104
    79e4:	5f5f5347 	svcpl	0x005f5347
    79e8:	47002929 	strmi	r2, [r0, -r9, lsr #18]
    79ec:	5f4f4950 	svcpl	0x004f4950
    79f0:	65646f4d 	strbvs	r6, [r4, #-3917]!	; 0xfffff0b3
    79f4:	45525f00 	ldrbmi	r5, [r2, #-3840]	; 0xfffff100
    79f8:	5f544e45 	svcpl	0x00544e45
    79fc:	444e4152 	strbmi	r4, [lr], #-338	; 0xfffffeae
    7a00:	58454e5f 	stmdapl	r5, {r0, r1, r2, r3, r4, r6, r9, sl, fp, lr}^
    7a04:	74702854 	ldrbtvc	r2, [r0], #-2132	; 0xfffff7ac
    7a08:	28202972 	stmdacs	r0!, {r1, r4, r5, r6, r8, fp, sp}
    7a0c:	72747028 	rsbsvc	r7, r4, #40	; 0x28
    7a10:	5f3e2d29 	svcpl	0x003e2d29
    7a14:	2d383472 	cfldrscs	mvf3, [r8, #-456]!	; 0xfffffe38
    7a18:	61725f3e 	cmnvs	r2, lr, lsr pc
    7a1c:	6e5f646e 	cdpvs	4, 5, cr6, cr15, cr14, {3}
    7a20:	29747865 	ldmdbcs	r4!, {r0, r2, r5, r6, fp, ip, sp, lr}^
    7a24:	49564e00 	ldmdbmi	r6, {r9, sl, fp, lr}^
    7a28:	52495f43 	subpl	r5, r9, #268	; 0x10c
    7a2c:	455f3651 	ldrbmi	r3, [pc, #-1617]	; 73e3 <_Min_Stack_Size+0x6fe3>
    7a30:	30495458 	subcc	r5, r9, r8, asr r4
    7a34:	7369445f 	cmnvc	r9, #1593835520	; 0x5f000000
    7a38:	656c6261 	strbvs	r6, [ip, #-609]!	; 0xfffffd9f
    7a3c:	564e2820 	strbpl	r2, [lr], -r0, lsr #16
    7a40:	495f4349 	ldmdbmi	pc, {r0, r3, r6, r8, r9, lr}^	; <UNPREDICTABLE>
    7a44:	30524543 	subscc	r4, r2, r3, asr #10
    7a48:	203d7c20 	eorscs	r7, sp, r0, lsr #24
    7a4c:	363c3c31 			; <UNDEFINED> instruction: 0x363c3c31
    7a50:	58450029 	stmdapl	r5, {r0, r3, r5}^
    7a54:	5f304954 	svcpl	0x00304954
    7a58:	20515249 	subscs	r5, r1, r9, asr #4
    7a5c:	5f5f0036 	svcpl	0x005f0036
    7a60:	52464c55 	subpl	r4, r6, #21760	; 0x5500
    7a64:	5f544341 	svcpl	0x00544341
    7a68:	5f4e494d 	svcpl	0x004e494d
    7a6c:	2e30205f 	mrccs	0, 1, r2, cr0, cr15, {2}
    7a70:	524c5530 	subpl	r5, ip, #48, 10	; 0xc000000
    7a74:	54584500 	ldrbpl	r4, [r8], #-1280	; 0xfffffb00
    7a78:	50323149 	eorspl	r3, r2, r9, asr #2
    7a7c:	20323143 	eorscs	r3, r2, r3, asr #2
    7a80:	54584528 	ldrbpl	r4, [r8], #-1320	; 0xfffffad8
    7a84:	50475f49 	subpl	r5, r7, r9, asr #30
    7a88:	4d5f4f49 	ldclmi	15, cr4, [pc, #-292]	; 796c <_Min_Stack_Size+0x756c>
    7a8c:	6e697061 	cdpvs	0, 6, cr7, cr9, cr1, {3}
    7a90:	29745f67 	ldmdbcs	r4!, {r0, r1, r2, r5, r6, r8, r9, sl, fp, ip, lr}^
    7a94:	5458457b 	ldrbpl	r4, [r8], #-1403	; 0xfffffa85
    7a98:	2c323149 	ldfcss	f3, [r2], #-292	; 0xfffffedc
    7a9c:	49504720 	ldmdbmi	r0, {r5, r8, r9, sl, lr}^
    7aa0:	202c434f 	eorcs	r4, ip, pc, asr #6
    7aa4:	4f495047 	svcmi	0x00495047
    7aa8:	4e49505f 	mcrmi	0, 2, r5, cr9, cr15, {2}
    7aac:	2c32315f 	ldfcss	f3, [r2], #-380	; 0xfffffe84
    7ab0:	54584520 	ldrbpl	r4, [r8], #-1312	; 0xfffffae0
    7ab4:	5f323149 	svcpl	0x00323149
    7ab8:	7d515249 	lfmvc	f5, 2, [r1, #-292]	; 0xfffffedc
    7abc:	5a495300 	bpl	125c6c4 <_Min_Stack_Size+0x125c2c4>
    7ac0:	414d5f45 	cmpmi	sp, r5, asr #30
    7ac4:	5f282058 	svcpl	0x00282058
    7ac8:	5a49535f 	bpl	125c84c <_Min_Stack_Size+0x125c44c>
    7acc:	414d5f45 	cmpmi	sp, r5, asr #30
    7ad0:	295f5f58 	ldmdbcs	pc, {r3, r4, r6, r8, r9, sl, fp, ip, lr}^	; <UNPREDICTABLE>
    7ad4:	445f5f00 	ldrbmi	r5, [pc], #-3840	; 7adc <_Min_Stack_Size+0x76dc>
    7ad8:	42495f51 	submi	r5, r9, #324	; 0x144
    7adc:	5f5f5449 	svcpl	0x005f5449
    7ae0:	5f003020 	svcpl	0x00003020
    7ae4:	4d52415f 	ldfmie	f4, [r2, #-380]	; 0xfffffe84
    7ae8:	3146425f 	cmpcc	r6, pc, asr r2
    7aec:	4f465f36 	svcmi	0x00465f36
    7af0:	54414d52 	strbpl	r4, [r1], #-3410	; 0xfffff2ae
    7af4:	544c415f 	strbpl	r4, [ip], #-351	; 0xfffffea1
    7af8:	414e5245 	cmpmi	lr, r5, asr #4
    7afc:	45564954 	ldrbmi	r4, [r6, #-2388]	; 0xfffff6ac
    7b00:	495f5f00 	ldmdbmi	pc, {r8, r9, sl, fp, ip, lr}^	; <UNPREDICTABLE>
    7b04:	3233544e 	eorscc	r5, r3, #1308622848	; 0x4e000000
    7b08:	5059545f 	subspl	r5, r9, pc, asr r4
    7b0c:	205f5f45 	subscs	r5, pc, r5, asr #30
    7b10:	676e6f6c 	strbvs	r6, [lr, -ip, ror #30]!
    7b14:	746e6920 	strbtvc	r6, [lr], #-2336	; 0xfffff6e0
    7b18:	555f5f00 	ldrbpl	r5, [pc, #-3840]	; 6c20 <_Min_Stack_Size+0x6820>
    7b1c:	5f544e49 	svcpl	0x00544e49
    7b20:	5341454c 	movtpl	r4, #5452	; 0x154c
    7b24:	4d5f3854 	ldclmi	8, cr3, [pc, #-336]	; 79dc <_Min_Stack_Size+0x75dc>
    7b28:	5f5f5841 	svcpl	0x005f5841
    7b2c:	66783020 	ldrbtvs	r3, [r8], -r0, lsr #32
    7b30:	32490066 	subcc	r0, r9, #102	; 0x66
    7b34:	52435f43 	subpl	r5, r3, #268	; 0x10c
    7b38:	4f4e5f31 	svcmi	0x004e5f31
    7b3c:	45525453 	ldrbmi	r5, [r2, #-1107]	; 0xfffffbad
    7b40:	5f484354 	svcpl	0x00484354
    7b44:	20736f50 	rsbscs	r6, r3, r0, asr pc
    7b48:	29553728 	ldmdbcs	r5, {r3, r5, r8, r9, sl, ip, sp}^
    7b4c:	54415f00 	strbpl	r5, [r1], #-3840	; 0xfffff100
    7b50:	54495845 	strbpl	r5, [r9], #-2117	; 0xfffff7bb
    7b54:	5a49535f 	bpl	125c8d8 <_Min_Stack_Size+0x125c4d8>
    7b58:	32332045 	eorscc	r2, r3, #69	; 0x45
    7b5c:	635f5f00 	cmpvs	pc, #0, 30
    7b60:	61746e6f 	cmnvs	r4, pc, ror #28
    7b64:	72656e69 	rsbvc	r6, r5, #1680	; 0x690
    7b68:	7828666f 	stmdavc	r8!, {r0, r1, r2, r3, r5, r6, r9, sl, sp, lr}
    7b6c:	6d2c732c 	stcvs	3, cr7, [ip, #-176]!	; 0xffffff50
    7b70:	7b282029 	blvc	a0fc1c <_Min_Stack_Size+0xa0f81c>
    7b74:	6e6f6320 	cdpvs	3, 6, cr6, cr15, cr0, {1}
    7b78:	76207473 			; <UNDEFINED> instruction: 0x76207473
    7b7c:	74616c6f 	strbtvc	r6, [r1], #-3183	; 0xfffff391
    7b80:	20656c69 	rsbcs	r6, r5, r9, ror #24
    7b84:	79745f5f 	ldmdbvc	r4!, {r0, r1, r2, r3, r4, r6, r8, r9, sl, fp, ip, lr}^
    7b88:	666f6570 			; <UNDEFINED> instruction: 0x666f6570
    7b8c:	73282828 			; <UNDEFINED> instruction: 0x73282828
    7b90:	30292a20 	eorcc	r2, r9, r0, lsr #20
    7b94:	6d3e2d29 	ldcvs	13, cr2, [lr, #-164]!	; 0xffffff5c
    7b98:	5f2a2029 	svcpl	0x002a2029
    7b9c:	3d20785f 	stccc	8, cr7, [r0, #-380]!	; 0xfffffe84
    7ba0:	29782820 	ldmdbcs	r8!, {r5, fp, sp}^
    7ba4:	5f5f203b 	svcpl	0x005f203b
    7ba8:	55514544 	ldrbpl	r4, [r1, #-1348]	; 0xfffffabc
    7bac:	46494c41 	strbmi	r4, [r9], -r1, asr #24
    7bb0:	20732859 	rsbscs	r2, r3, r9, asr r8
    7bb4:	28202c2a 	stmdacs	r0!, {r1, r3, r5, sl, fp, sp}
    7bb8:	736e6f63 	cmnvc	lr, #396	; 0x18c
    7bbc:	6f762074 	svcvs	0x00762074
    7bc0:	6974616c 	ldmdbvs	r4!, {r2, r3, r5, r6, r8, sp, lr}^
    7bc4:	6320656c 			; <UNDEFINED> instruction: 0x6320656c
    7bc8:	20726168 	rsbscs	r6, r2, r8, ror #2
    7bcc:	5f5f292a 	svcpl	0x005f292a
    7bd0:	202d2078 	eorcs	r2, sp, r8, ror r0
    7bd4:	666f5f5f 	uqsaxvs	r5, pc, pc	; <UNPREDICTABLE>
    7bd8:	74657366 	strbtvc	r7, [r5], #-870	; 0xfffffc9a
    7bdc:	7328666f 			; <UNDEFINED> instruction: 0x7328666f
    7be0:	296d202c 	stmdbcs	sp!, {r2, r3, r5, sp}^
    7be4:	297d3b29 	ldmdbcs	sp!, {r0, r3, r5, r8, r9, fp, ip, sp}^
    7be8:	53425f00 	movtpl	r5, #12032	; 0x2f00
    7bec:	49535f44 	ldmdbmi	r3, {r2, r6, r8, r9, sl, fp, ip, lr}^
    7bf0:	545f455a 	ldrbpl	r4, [pc], #-1370	; 7bf8 <_Min_Stack_Size+0x77f8>
    7bf4:	5f00205f 	svcpl	0x0000205f
    7bf8:	746e695f 	strbtvc	r6, [lr], #-2399	; 0xfffff6a1
    7bfc:	5f5f3032 	svcpl	0x005f3032
    7c00:	00322b20 	eorseq	r2, r2, r0, lsr #22
    7c04:	6f6e5f5f 	svcvs	0x006e5f5f
    7c08:	636f6c5f 	cmnvs	pc, #24320	; 0x5f00
    7c0c:	6e615f6b 	cdpvs	15, 6, cr5, cr1, cr11, {3}
    7c10:	73796c61 	cmnvc	r9, #24832	; 0x6100
    7c14:	5f207369 	svcpl	0x00207369
    7c18:	636f6c5f 	cmnvs	pc, #24320	; 0x5f00
    7c1c:	6e615f6b 	cdpvs	15, 6, cr5, cr1, cr11, {3}
    7c20:	61746f6e 	cmnvs	r4, lr, ror #30
    7c24:	6e286574 	mcrvs	5, 1, r6, cr8, cr4, {3}
    7c28:	68745f6f 	ldmdavs	r4!, {r0, r1, r2, r3, r5, r6, r8, r9, sl, fp, ip, lr}^
    7c2c:	64616572 	strbtvs	r6, [r1], #-1394	; 0xfffffa8e
    7c30:	6661735f 			; <UNDEFINED> instruction: 0x6661735f
    7c34:	5f797465 	svcpl	0x00797465
    7c38:	6c616e61 	stclvs	14, cr6, [r1], #-388	; 0xfffffe7c
    7c3c:	73697379 	cmnvc	r9, #-469762047	; 0xe4000001
    7c40:	495f0029 	ldmdbmi	pc, {r0, r3, r5}^	; <UNPREDICTABLE>
    7c44:	3436544e 	ldrtcc	r5, [r6], #-1102	; 0xfffffbb2
    7c48:	445f545f 	ldrbmi	r5, [pc], #-1119	; 7c50 <_Min_Stack_Size+0x7850>
    7c4c:	414c4345 	cmpmi	ip, r5, asr #6
    7c50:	20444552 	subcs	r4, r4, r2, asr r5
    7c54:	54584500 	ldrbpl	r4, [r8], #-1280	; 0xfffffb00
    7c58:	72545f49 	subsvc	r5, r4, #292	; 0x124
    7c5c:	65676769 	strbvs	r6, [r7, #-1897]!	; 0xfffff897
    7c60:	69525f72 	ldmdbvs	r2, {r1, r4, r5, r6, r8, r9, sl, fp, ip, lr}^
    7c64:	676e6973 			; <UNDEFINED> instruction: 0x676e6973
    7c68:	46646e41 	strbtmi	r6, [r4], -r1, asr #28
    7c6c:	696c6c61 	stmdbvs	ip!, {r0, r5, r6, sl, fp, sp, lr}^
    7c70:	3220676e 	eorcc	r6, r0, #28835840	; 0x1b80000
    7c74:	49504700 	ldmdbmi	r0, {r8, r9, sl, lr}^
    7c78:	49505f4f 	ldmdbmi	r0, {r0, r1, r2, r3, r6, r8, r9, sl, fp, ip, lr}^
    7c7c:	3249004e 	subcc	r0, r9, #78	; 0x4e
    7c80:	28203243 	stmdacs	r0!, {r0, r1, r6, r9, ip, sp}
    7c84:	43324928 	teqmi	r2, #40, 18	; 0xa0000
    7c88:	7079545f 	rsbsvc	r5, r9, pc, asr r4
    7c8c:	66654465 	strbtvs	r4, [r5], -r5, ror #8
    7c90:	49292a20 	stmdbmi	r9!, {r5, r9, fp, sp}
    7c94:	5f324332 	svcpl	0x00324332
    7c98:	45534142 	ldrbmi	r4, [r3, #-322]	; 0xfffffebe
    7c9c:	545f0029 	ldrbpl	r0, [pc], #-41	; 7ca4 <_Min_Stack_Size+0x78a4>
    7ca0:	4843575f 	stmdami	r3, {r0, r1, r2, r3, r4, r6, r8, r9, sl, ip, lr}^
    7ca4:	00205241 	eoreq	r5, r0, r1, asr #4
    7ca8:	5f433249 	svcpl	0x00433249
    7cac:	5f325253 	svcpl	0x00325253
    7cb0:	5f415254 	svcpl	0x00415254
    7cb4:	206b734d 	rsbcs	r7, fp, sp, asr #6
    7cb8:	31783028 	cmncc	r8, r8, lsr #32
    7cbc:	3c204c55 	stccc	12, cr4, [r0], #-340	; 0xfffffeac
    7cc0:	3249203c 	subcc	r2, r9, #60	; 0x3c
    7cc4:	52535f43 	subspl	r5, r3, #268	; 0x10c
    7cc8:	52545f32 	subspl	r5, r4, #50, 30	; 0xc8
    7ccc:	6f505f41 	svcvs	0x00505f41
    7cd0:	5f002973 	svcpl	0x00002973
    7cd4:	4e454552 	mcrmi	5, 2, r4, cr5, cr2, {2}
    7cd8:	504d5f54 	subpl	r5, sp, r4, asr pc
    7cdc:	4552465f 	ldrbmi	r4, [r2, #-1631]	; 0xfffff9a1
    7ce0:	53494c45 	movtpl	r4, #40005	; 0x9c45
    7ce4:	74702854 	ldrbtvc	r2, [r0], #-2132	; 0xfffff7ac
    7ce8:	28202972 	stmdacs	r0!, {r1, r4, r5, r6, r8, fp, sp}
    7cec:	72747028 	rsbsvc	r7, r4, #40	; 0x28
    7cf0:	5f3e2d29 	svcpl	0x003e2d29
    7cf4:	3e2d706d 	cdpcc	0, 2, cr7, cr13, cr13, {3}
    7cf8:	6572665f 	ldrbvs	r6, [r2, #-1631]!	; 0xfffff9a1
    7cfc:	73696c65 	cmnvc	r9, #25856	; 0x6500
    7d00:	61002974 	tstvs	r0, r4, ror r9
    7d04:	636f6c6c 	cmnvs	pc, #108, 24	; 0x6c00
    7d08:	69732861 	ldmdbvs	r3!, {r0, r5, r6, fp, sp}^
    7d0c:	2029657a 	eorcs	r6, r9, sl, ror r5
    7d10:	75625f5f 	strbvc	r5, [r2, #-3935]!	; 0xfffff0a1
    7d14:	69746c69 	ldmdbvs	r4!, {r0, r3, r5, r6, sl, fp, sp, lr}^
    7d18:	6c615f6e 	stclvs	15, cr5, [r1], #-440	; 0xfffffe48
    7d1c:	61636f6c 	cmnvs	r3, ip, ror #30
    7d20:	7a697328 	bvc	1a649c8 <_Min_Stack_Size+0x1a645c8>
    7d24:	5f002965 	svcpl	0x00002965
    7d28:	434f4c43 	movtmi	r4, #64579	; 0xfc43
    7d2c:	5f44494b 	svcpl	0x0044494b
    7d30:	75205f54 	strvc	r5, [r0, #-3924]!	; 0xfffff0ac
    7d34:	6769736e 	strbvs	r7, [r9, -lr, ror #6]!
    7d38:	2064656e 	rsbcs	r6, r4, lr, ror #10
    7d3c:	676e6f6c 	strbvs	r6, [lr, -ip, ror #30]!
    7d40:	43324900 	teqmi	r2, #0, 18
    7d44:	3152535f 	cmpcc	r2, pc, asr r3
    7d48:	4558545f 	ldrbmi	r5, [r8, #-1119]	; 0xfffffba1
    7d4c:	43324920 	teqmi	r2, #32, 18	; 0x80000
    7d50:	3152535f 	cmpcc	r2, pc, asr r3
    7d54:	4558545f 	ldrbmi	r5, [r8, #-1119]	; 0xfffffba1
    7d58:	6b734d5f 	blvs	1cdb2dc <_Min_Stack_Size+0x1cdaedc>
    7d5c:	555f5f00 	ldrbpl	r5, [pc, #-3840]	; 6e64 <_Min_Stack_Size+0x6a64>
    7d60:	495f5154 	ldmdbmi	pc, {r2, r4, r6, r8, ip, lr}^	; <UNPREDICTABLE>
    7d64:	5f544942 	svcpl	0x00544942
    7d68:	0030205f 	eorseq	r2, r0, pc, asr r0
    7d6c:	49545845 	ldmdbmi	r4, {r0, r2, r6, fp, ip, lr}^
    7d70:	00322032 	eorseq	r2, r2, r2, lsr r0
    7d74:	41535f5f 	cmpmi	r3, pc, asr pc
    7d78:	4942465f 	stmdbmi	r2, {r0, r1, r2, r3, r4, r6, r9, sl, lr}^
    7d7c:	205f5f54 	subscs	r5, pc, r4, asr pc	; <UNPREDICTABLE>
    7d80:	5f003531 	svcpl	0x00003531
    7d84:	544e495f 	strbpl	r4, [lr], #-2399	; 0xfffff6a1
    7d88:	4843575f 	stmdami	r3, {r0, r1, r2, r3, r4, r6, r8, r9, sl, ip, lr}^
    7d8c:	545f5241 	ldrbpl	r5, [pc], #-577	; 7d94 <_Min_Stack_Size+0x7994>
    7d90:	0020485f 	eoreq	r4, r0, pc, asr r8
    7d94:	4c465f5f 	mcrrmi	15, 5, r5, r6, cr15
    7d98:	58323354 	ldmdapl	r2!, {r2, r4, r6, r8, r9, ip, sp}
    7d9c:	58414d5f 	stmdapl	r1, {r0, r1, r2, r3, r4, r6, r8, sl, fp, lr}^
    7da0:	31205f5f 			; <UNDEFINED> instruction: 0x31205f5f
    7da4:	3739372e 	ldrcc	r3, [r9, -lr, lsr #14]!
    7da8:	31333936 	teqcc	r3, r6, lsr r9
    7dac:	36383433 			; <UNDEFINED> instruction: 0x36383433
    7db0:	35313332 	ldrcc	r3, [r1, #-818]!	; 0xfffffcce
    7db4:	332b6537 			; <UNDEFINED> instruction: 0x332b6537
    7db8:	33463830 	movtcc	r3, #26672	; 0x6830
    7dbc:	47007832 	smladxmi	r0, r2, r8, r7
    7dc0:	454f4950 	strbmi	r4, [pc, #-2384]	; 7478 <_Min_Stack_Size+0x7078>
    7dc4:	47282820 	strmi	r2, [r8, -r0, lsr #16]!
    7dc8:	5f4f4950 	svcpl	0x004f4950
    7dcc:	65707954 	ldrbvs	r7, [r0, #-2388]!	; 0xfffff6ac
    7dd0:	20666564 	rsbcs	r6, r6, r4, ror #10
    7dd4:	5047292a 	subpl	r2, r7, sl, lsr #18
    7dd8:	5f454f49 	svcpl	0x00454f49
    7ddc:	45534142 	ldrbmi	r4, [r3, #-322]	; 0xfffffebe
    7de0:	4e490029 	cdpmi	0, 4, cr0, cr9, cr9, {1}
    7de4:	54535f43 	ldrbpl	r5, [r3], #-3907	; 0xfffff0bd
    7de8:	4632334d 	ldrtmi	r3, [r2], -sp, asr #6
    7dec:	43333031 	teqmi	r3, #49	; 0x31
    7df0:	50475f38 	subpl	r5, r7, r8, lsr pc
    7df4:	485f4f49 	ldmdami	pc, {r0, r3, r6, r8, r9, sl, fp, lr}^	; <UNPREDICTABLE>
    7df8:	5f00205f 	svcpl	0x0000205f
    7dfc:	554e475f 	strbpl	r4, [lr, #-1887]	; 0xfffff8a1
    7e00:	4b494c43 	blmi	125af14 <_Min_Stack_Size+0x125ab14>
    7e04:	55425f45 	strbpl	r5, [r2, #-3909]	; 0xfffff0bb
    7e08:	49544c49 	ldmdbmi	r4, {r0, r3, r6, sl, fp, lr}^
    7e0c:	41565f4e 	cmpmi	r6, lr, asr #30
    7e10:	53494c41 	movtpl	r4, #40001	; 0x9c41
    7e14:	00312054 	eorseq	r2, r1, r4, asr r0
    7e18:	52415f5f 	subpl	r5, r1, #380	; 0x17c
    7e1c:	41455f4d 	cmpmi	r5, sp, asr #30
    7e20:	5f5f4942 	svcpl	0x005f4942
    7e24:	5f003120 	svcpl	0x00003120
    7e28:	45564148 	ldrbmi	r4, [r6, #-328]	; 0xfffffeb8
    7e2c:	494e495f 	stmdbmi	lr, {r0, r1, r2, r3, r4, r6, r8, fp, lr}^
    7e30:	4e494654 	mcrmi	6, 2, r4, cr9, cr4, {2}
    7e34:	52415f49 	subpl	r5, r1, #292	; 0x124
    7e38:	20594152 	subscs	r4, r9, r2, asr r1
    7e3c:	5f5f0031 	svcpl	0x005f0031
    7e40:	5f464c45 	svcpl	0x00464c45
    7e44:	0031205f 	eorseq	r2, r1, pc, asr r0
    7e48:	4c465f5f 	mcrrmi	15, 5, r5, r6, cr15
    7e4c:	53495f54 	movtpl	r5, #40788	; 0x9f54
    7e50:	4345495f 	movtmi	r4, #22879	; 0x595f
    7e54:	3530365f 	ldrcc	r3, [r0, #-1631]!	; 0xfffff9a1
    7e58:	5f5f3935 	svcpl	0x005f3935
    7e5c:	5f003220 	svcpl	0x00003220
    7e60:	5548545f 	strbpl	r5, [r8, #-1119]	; 0xfffffba1
    7e64:	4c45424d 	sfmmi	f4, 2, [r5], {77}	; 0x4d
    7e68:	31205f5f 			; <UNDEFINED> instruction: 0x31205f5f
    7e6c:	54584500 	ldrbpl	r4, [r8], #-1280	; 0xfffffb00
    7e70:	355f3949 	ldrbcc	r3, [pc, #-2377]	; 752f <_Min_Stack_Size+0x712f>
    7e74:	5152495f 	cmppl	r2, pc, asr r9
    7e78:	646e6148 	strbtvs	r6, [lr], #-328	; 0xfffffeb8
    7e7c:	0072656c 	rsbseq	r6, r2, ip, ror #10
    7e80:	4349564e 	movtmi	r5, #38478	; 0x964e
    7e84:	4332495f 	teqmi	r2, #1556480	; 0x17c000
    7e88:	52455f32 	subpl	r5, r5, #50, 30	; 0xc8
    7e8c:	5152495f 	cmppl	r2, pc, asr r9
    7e90:	455f3433 	ldrbmi	r3, [pc, #-1075]	; 7a65 <_Min_Stack_Size+0x7665>
    7e94:	4c42414e 	stfmie	f4, [r2], {78}	; 0x4e
    7e98:	4e282045 	cdpmi	0, 2, cr2, cr8, cr5, {2}
    7e9c:	5f434956 	svcpl	0x00434956
    7ea0:	52455349 	subpl	r5, r5, #603979777	; 0x24000001
    7ea4:	3d7c2031 	ldclcc	0, cr2, [ip, #-196]!	; 0xffffff3c
    7ea8:	3c203120 	stfccs	f3, [r0], #-128	; 0xffffff80
    7eac:	4928203c 	stmdbmi	r8!, {r2, r3, r4, r5, sp}
    7eb0:	5f324332 	svcpl	0x00324332
    7eb4:	495f5245 	ldmdbmi	pc, {r0, r2, r6, r9, ip, lr}^	; <UNPREDICTABLE>
    7eb8:	332d5152 			; <UNDEFINED> instruction: 0x332d5152
    7ebc:	3b292932 	blcc	a5238c <_Min_Stack_Size+0xa51f8c>
    7ec0:	54584500 	ldrbpl	r4, [r8], #-1280	; 0xfffffb00
    7ec4:	31203149 			; <UNDEFINED> instruction: 0x31203149
    7ec8:	43324900 	teqmi	r2, #0, 18
    7ecc:	28282031 	stmdacs	r8!, {r0, r4, r5, sp}
    7ed0:	5f433249 	svcpl	0x00433249
    7ed4:	65707954 	ldrbvs	r7, [r0, #-2388]!	; 0xfffff6ac
    7ed8:	20666544 	rsbcs	r6, r6, r4, asr #10
    7edc:	3249292a 	subcc	r2, r9, #688128	; 0xa8000
    7ee0:	425f3143 	subsmi	r3, pc, #-1073741808	; 0xc0000010
    7ee4:	29455341 	stmdbcs	r5, {r0, r6, r8, r9, ip, lr}^
    7ee8:	43324900 	teqmi	r2, #0, 18
    7eec:	3152535f 	cmpcc	r2, pc, asr r3
    7ef0:	5f46415f 	svcpl	0x0046415f
    7ef4:	20736f50 	rsbscs	r6, r3, r0, asr pc
    7ef8:	55303128 	ldrpl	r3, [r0, #-296]!	; 0xfffffed8
    7efc:	5f5f0029 	svcpl	0x005f0029
    7f00:	495f5151 	ldmdbmi	pc, {r0, r4, r6, r8, ip, lr}^	; <UNPREDICTABLE>
    7f04:	5f544942 	svcpl	0x00544942
    7f08:	0030205f 	eorseq	r2, r0, pc, asr r0
    7f0c:	5f434352 	svcpl	0x00434352
    7f10:	45534142 	ldrbmi	r4, [r3, #-322]	; 0xfffffebe
    7f14:	34783020 	ldrbtcc	r3, [r8], #-32	; 0xffffffe0
    7f18:	31323030 	teqcc	r2, r0, lsr r0
    7f1c:	55303030 	ldrpl	r3, [r0, #-48]!	; 0xffffffd0
    7f20:	3249004c 	subcc	r0, r9, #76	; 0x4c
    7f24:	52435f43 	subpl	r5, r3, #268	; 0x10c
    7f28:	414c5f32 	cmpmi	ip, r2, lsr pc
    7f2c:	505f5453 	subspl	r5, pc, r3, asr r4	; <UNPREDICTABLE>
    7f30:	2820736f 	stmdacs	r0!, {r0, r1, r2, r3, r5, r6, r8, r9, ip, sp, lr}
    7f34:	29553231 	ldmdbcs	r5, {r0, r4, r5, r9, ip, sp}^
    7f38:	61747300 	cmnvs	r4, r0, lsl #6
    7f3c:	5f636974 	svcpl	0x00636974
    7f40:	65737361 	ldrbvs	r7, [r3, #-865]!	; 0xfffffc9f
    7f44:	5f207472 	svcpl	0x00207472
    7f48:	74617453 	strbtvc	r7, [r1], #-1107	; 0xfffffbad
    7f4c:	615f6369 	cmpvs	pc, r9, ror #6
    7f50:	72657373 	rsbvc	r7, r5, #-872415231	; 0xcc000001
    7f54:	5f5f0074 	svcpl	0x005f0074
    7f58:	4b434f4c 	blmi	10dbc90 <_Min_Stack_Size+0x10db890>
    7f5c:	494e495f 	stmdbmi	lr, {r0, r1, r2, r3, r4, r6, r8, fp, lr}^
    7f60:	45525f54 	ldrbmi	r5, [r2, #-3924]	; 0xfffff0ac
    7f64:	53525543 	cmppl	r2, #281018368	; 0x10c00000
    7f68:	28455649 	stmdacs	r5, {r0, r3, r6, r9, sl, ip, lr}^
    7f6c:	73616c63 	cmnvc	r1, #25344	; 0x6300
    7f70:	6f6c2c73 	svcvs	0x006c2c73
    7f74:	20296b63 	eorcs	r6, r9, r3, ror #22
    7f78:	4f4c5f5f 	svcmi	0x004c5f5f
    7f7c:	495f4b43 	ldmdbmi	pc, {r0, r1, r6, r8, r9, fp, lr}^	; <UNPREDICTABLE>
    7f80:	2854494e 	ldmdacs	r4, {r1, r2, r3, r6, r8, fp, lr}^
    7f84:	73616c63 	cmnvc	r1, #25344	; 0x6300
    7f88:	6f6c2c73 	svcvs	0x006c2c73
    7f8c:	00296b63 	eoreq	r6, r9, r3, ror #22
    7f90:	4c4c5f5f 	mcrrmi	15, 5, r5, ip, cr15
    7f94:	55434341 	strbpl	r4, [r3, #-833]	; 0xfffffcbf
    7f98:	42465f4d 	submi	r5, r6, #308	; 0x134
    7f9c:	5f5f5449 	svcpl	0x005f5449
    7fa0:	00313320 	eorseq	r3, r1, r0, lsr #6
    7fa4:	49555f5f 	ldmdbmi	r5, {r0, r1, r2, r3, r4, r6, r8, r9, sl, fp, ip, lr}^
    7fa8:	414d544e 	cmpmi	sp, lr, asr #8
    7fac:	59545f58 	ldmdbpl	r4, {r3, r4, r6, r8, r9, sl, fp, ip, lr}^
    7fb0:	5f5f4550 	svcpl	0x005f4550
    7fb4:	6e6f6c20 	cdpvs	12, 6, cr6, cr15, cr0, {1}
    7fb8:	6f6c2067 	svcvs	0x006c2067
    7fbc:	7520676e 	strvc	r6, [r0, #-1902]!	; 0xfffff892
    7fc0:	6769736e 	strbvs	r7, [r9, -lr, ror #6]!
    7fc4:	2064656e 	rsbcs	r6, r4, lr, ror #10
    7fc8:	00746e69 	rsbseq	r6, r4, r9, ror #28
    7fcc:	5f433249 	svcpl	0x00433249
    7fd0:	5f315253 	svcpl	0x00315253
    7fd4:	454d4954 	strbmi	r4, [sp, #-2388]	; 0xfffff6ac
    7fd8:	2054554f 	subscs	r5, r4, pc, asr #10
    7fdc:	5f433249 	svcpl	0x00433249
    7fe0:	5f315253 	svcpl	0x00315253
    7fe4:	454d4954 	strbmi	r4, [sp, #-2388]	; 0xfffff6ac
    7fe8:	5f54554f 	svcpl	0x0054554f
    7fec:	006b734d 	rsbeq	r7, fp, sp, asr #6
    7ff0:	544e4955 	strbpl	r4, [lr], #-2389	; 0xfffff6ab
    7ff4:	41454c5f 	cmpmi	r5, pc, asr ip
    7ff8:	5f385453 	svcpl	0x00385453
    7ffc:	2058414d 	subscs	r4, r8, sp, asr #2
    8000:	555f5f28 	ldrbpl	r5, [pc, #-3880]	; 70e0 <_Min_Stack_Size+0x6ce0>
    8004:	5f544e49 	svcpl	0x00544e49
    8008:	5341454c 	movtpl	r4, #5452	; 0x154c
    800c:	4d5f3854 	ldclmi	8, cr3, [pc, #-336]	; 7ec4 <_Min_Stack_Size+0x7ac4>
    8010:	5f5f5841 	svcpl	0x005f5841
    8014:	5f5f0029 	svcpl	0x005f0029
    8018:	5f515355 	svcpl	0x00515355
    801c:	54494249 	strbpl	r4, [r9], #-585	; 0xfffffdb7
    8020:	30205f5f 	eorcc	r5, r0, pc, asr pc
    8024:	475f5f00 	ldrbmi	r5, [pc, -r0, lsl #30]
    8028:	5f43554e 	svcpl	0x0043554e
    802c:	4f4e494d 	svcmi	0x004e494d
    8030:	205f5f52 	subscs	r5, pc, r2, asr pc	; <UNPREDICTABLE>
    8034:	5f5f0033 	svcpl	0x005f0033
    8038:	33544c46 	cmpcc	r4, #17920	; 0x4600
    803c:	4d5f5832 	ldclmi	8, cr5, [pc, #-200]	; 7f7c <_Min_Stack_Size+0x7b7c>
    8040:	455f4e49 	ldrbmi	r4, [pc, #-3657]	; 71ff <_Min_Stack_Size+0x6dff>
    8044:	5f5f5058 	svcpl	0x005f5058
    8048:	312d2820 			; <UNDEFINED> instruction: 0x312d2820
    804c:	29313230 	ldmdbcs	r1!, {r4, r5, r9, ip, sp}
    8050:	555f5f00 	ldrbpl	r5, [pc, #-3840]	; 7158 <_Min_Stack_Size+0x6d58>
    8054:	5f544e49 	svcpl	0x00544e49
    8058:	5341454c 	movtpl	r4, #5452	; 0x154c
    805c:	5f323354 	svcpl	0x00323354
    8060:	45505954 	ldrbmi	r5, [r0, #-2388]	; 0xfffff6ac
    8064:	6c205f5f 	stcvs	15, cr5, [r0], #-380	; 0xfffffe84
    8068:	20676e6f 	rsbcs	r6, r7, pc, ror #28
    806c:	69736e75 	ldmdbvs	r3!, {r0, r2, r4, r5, r6, r9, sl, fp, sp, lr}^
    8070:	64656e67 	strbtvs	r6, [r5], #-3687	; 0xfffff199
    8074:	746e6920 	strbtvc	r6, [lr], #-2336	; 0xfffff6e0
    8078:	54584500 	ldrbpl	r4, [r8], #-1280	; 0xfffffb00
    807c:	50323149 	eorspl	r3, r2, r9, asr #2
    8080:	20323142 	eorscs	r3, r2, r2, asr #2
    8084:	54584528 	ldrbpl	r4, [r8], #-1320	; 0xfffffad8
    8088:	50475f49 	subpl	r5, r7, r9, asr #30
    808c:	4d5f4f49 	ldclmi	15, cr4, [pc, #-292]	; 7f70 <_Min_Stack_Size+0x7b70>
    8090:	6e697061 	cdpvs	0, 6, cr7, cr9, cr1, {3}
    8094:	29745f67 	ldmdbcs	r4!, {r0, r1, r2, r5, r6, r8, r9, sl, fp, ip, lr}^
    8098:	5458457b 	ldrbpl	r4, [r8], #-1403	; 0xfffffa85
    809c:	2c323149 	ldfcss	f3, [r2], #-292	; 0xfffffedc
    80a0:	49504720 	ldmdbmi	r0, {r5, r8, r9, sl, lr}^
    80a4:	202c424f 	eorcs	r4, ip, pc, asr #4
    80a8:	4f495047 	svcmi	0x00495047
    80ac:	4e49505f 	mcrmi	0, 2, r5, cr9, cr15, {2}
    80b0:	2c32315f 	ldfcss	f3, [r2], #-380	; 0xfffffe84
    80b4:	54584520 	ldrbpl	r4, [r8], #-1312	; 0xfffffae0
    80b8:	5f323149 	svcpl	0x00323149
    80bc:	7d515249 	lfmvc	f5, 2, [r1, #-292]	; 0xfffffedc
    80c0:	415f5f00 	cmpmi	pc, r0, lsl #30
    80c4:	465f4d52 			; <UNDEFINED> instruction: 0x465f4d52
    80c8:	55544145 	ldrbpl	r4, [r4, #-325]	; 0xfffffebb
    80cc:	4e5f4552 	mrcmi	5, 2, r4, cr15, cr2, {2}
    80d0:	52454d55 	subpl	r4, r5, #5440	; 0x1540
    80d4:	4d5f4349 	ldclmi	3, cr4, [pc, #-292]	; 7fb8 <_Min_Stack_Size+0x7bb8>
    80d8:	494d5841 	stmdbmi	sp, {r0, r6, fp, ip, lr}^
    80dc:	525f004e 	subspl	r0, pc, #78	; 0x4e
    80e0:	34444e41 	strbcc	r4, [r4], #-3649	; 0xfffff1bf
    80e4:	554d5f38 	strbpl	r5, [sp, #-3896]	; 0xfffff0c8
    80e8:	315f544c 	cmpcc	pc, ip, asr #8
    80ec:	78302820 	ldmdavc	r0!, {r5, fp, sp}
    80f0:	63656564 	cmnvs	r5, #100, 10	; 0x19000000
    80f4:	5f5f0029 	svcpl	0x005f0029
    80f8:	4d544e49 	ldclmi	14, cr4, [r4, #-292]	; 0xfffffedc
    80fc:	545f5841 	ldrbpl	r5, [pc], #-2113	; 8104 <_Min_Stack_Size+0x7d04>
    8100:	5f455059 	svcpl	0x00455059
    8104:	6f6c205f 	svcvs	0x006c205f
    8108:	6c20676e 	stcvs	7, cr6, [r0], #-440	; 0xfffffe48
    810c:	20676e6f 	rsbcs	r6, r7, pc, ror #28
    8110:	00746e69 	rsbseq	r6, r4, r9, ror #28
    8114:	43475f5f 	movtmi	r5, #32607	; 0x7f5f
    8118:	54415f43 	strbpl	r5, [r1], #-3907	; 0xfffff0bd
    811c:	43494d4f 	movtmi	r4, #40271	; 0x9d4f
    8120:	544e495f 	strbpl	r4, [lr], #-2399	; 0xfffff6a1
    8124:	434f4c5f 	movtmi	r4, #64607	; 0xfc5f
    8128:	52465f4b 	subpl	r5, r6, #300	; 0x12c
    812c:	32204545 	eorcc	r4, r0, #289406976	; 0x11400000
    8130:	41525f00 	cmpmi	r2, r0, lsl #30
    8134:	3834444e 	ldmdacc	r4!, {r1, r2, r3, r6, sl, lr}
    8138:	4545535f 	strbmi	r5, [r5, #-863]	; 0xfffffca1
    813c:	20305f44 	eorscs	r5, r0, r4, asr #30
    8140:	33783028 	cmncc	r8, #40	; 0x28
    8144:	29653033 	stmdbcs	r5!, {r0, r1, r4, r5, ip, sp}^
    8148:	43475f00 	movtmi	r5, #32512	; 0x7f00
    814c:	414d5f43 	cmpmi	sp, r3, asr #30
    8150:	4c415f58 	mcrrmi	15, 5, r5, r1, cr8
    8154:	5f4e4749 	svcpl	0x004e4749
    8158:	5f002054 	svcpl	0x00002054
    815c:	6e6f4c5f 	mcrvs	12, 3, r4, cr15, cr15, {2}
    8160:	6f6c2067 	svcvs	0x006c2067
    8164:	4500676e 	strmi	r6, [r0, #-1902]	; 0xfffff892
    8168:	5f495458 	svcpl	0x00495458
    816c:	67697254 			; <UNDEFINED> instruction: 0x67697254
    8170:	5f726567 	svcpl	0x00726567
    8174:	6c6c6146 	stfvse	f6, [ip], #-280	; 0xfffffee8
    8178:	20676e69 	rsbcs	r6, r7, r9, ror #28
    817c:	5f5f0031 	svcpl	0x005f0031
    8180:	5f4d5241 	svcpl	0x004d5241
    8184:	54414546 	strbpl	r4, [r1], #-1350	; 0xfffffaba
    8188:	5f455255 	svcpl	0x00455255
    818c:	36315046 	ldrtcc	r5, [r1], -r6, asr #32
    8190:	4143535f 	cmpmi	r3, pc, asr r3
    8194:	5f52414c 	svcpl	0x0052414c
    8198:	54495241 	strbpl	r5, [r9], #-577	; 0xfffffdbf
    819c:	54454d48 	strbpl	r4, [r5], #-3400	; 0xfffff2b8
    81a0:	5f004349 	svcpl	0x00004349
    81a4:	4153555f 	cmpmi	r3, pc, asr r5
    81a8:	4d554343 	ldclmi	3, cr4, [r5, #-268]	; 0xfffffef4
    81ac:	5350455f 	cmppl	r0, #398458880	; 0x17c00000
    81b0:	4e4f4c49 	cdpmi	12, 4, cr4, cr15, cr9, {2}
    81b4:	30205f5f 	eorcc	r5, r0, pc, asr pc
    81b8:	2d503178 	ldfcse	f3, [r0, #-480]	; 0xfffffe20
    81bc:	4b485538 	blmi	121d6a4 <_Min_Stack_Size+0x121d2a4>
    81c0:	445f5f00 	ldrbmi	r5, [pc], #-3840	; 81c8 <_Min_Stack_Size+0x7dc8>
    81c4:	485f4c42 	ldmdami	pc, {r1, r6, sl, fp, lr}^	; <UNPREDICTABLE>
    81c8:	515f5341 	cmppl	pc, r1, asr #6
    81cc:	54454955 	strbpl	r4, [r5], #-2389	; 0xfffff6ab
    81d0:	4e414e5f 	mcrmi	14, 2, r4, cr1, cr15, {2}
    81d4:	31205f5f 			; <UNDEFINED> instruction: 0x31205f5f
    81d8:	49504700 	ldmdbmi	r0, {r8, r9, sl, lr}^
    81dc:	425f434f 	subsmi	r4, pc, #1006632961	; 0x3c000001
    81e0:	20455341 	subcs	r5, r5, r1, asr #6
    81e4:	30347830 	eorscc	r7, r4, r0, lsr r8
    81e8:	30313130 	eorscc	r3, r1, r0, lsr r1
    81ec:	4c553030 	mrrcmi	0, 3, r3, r5, cr0
    81f0:	49504700 	ldmdbmi	r0, {r8, r9, sl, lr}^
    81f4:	49505f4f 	ldmdbmi	r0, {r0, r1, r2, r3, r6, r8, r9, sl, fp, ip, lr}^
    81f8:	45525f4e 	ldrbmi	r5, [r2, #-3918]	; 0xfffff0b2
    81fc:	20544553 	subscs	r4, r4, r3, asr r5
    8200:	4e490030 	mcrmi	0, 2, r0, cr9, cr0, {1}
    8204:	5f323354 	svcpl	0x00323354
    8208:	29782843 	ldmdbcs	r8!, {r0, r1, r6, fp, sp}^
    820c:	495f5f20 	ldmdbmi	pc, {r5, r8, r9, sl, fp, ip, lr}^	; <UNPREDICTABLE>
    8210:	3233544e 	eorscc	r5, r3, #1308622848	; 0x4e000000
    8214:	7828435f 	stmdavc	r8!, {r0, r1, r2, r3, r4, r6, r8, r9, lr}
    8218:	5f5f0029 	svcpl	0x005f0029
    821c:	76727470 			; <UNDEFINED> instruction: 0x76727470
    8220:	65756c61 	ldrbvs	r6, [r5, #-3169]!	; 0xfffff39f
    8224:	4e5f0020 	cdpmi	0, 5, cr0, cr15, cr0, {1}
    8228:	4c4e494f 	mcrrmi	9, 4, r4, lr, cr15	; <UNPREDICTABLE>
    822c:	5f454e49 	svcpl	0x00454e49
    8230:	54415453 	strbpl	r5, [r1], #-1107	; 0xfffffbad
    8234:	5f204349 	svcpl	0x00204349
    8238:	4e494f4e 	cdpmi	15, 4, cr4, cr9, cr14, {2}
    823c:	454e494c 	strbmi	r4, [lr, #-2380]	; 0xfffff6b4
    8240:	61747320 	cmnvs	r4, r0, lsr #6
    8244:	00636974 	rsbeq	r6, r3, r4, ror r9
    8248:	4c4c5f5f 	mcrrmi	15, 5, r5, ip, cr15
    824c:	43415246 	movtmi	r5, #4678	; 0x1246
    8250:	414d5f54 	cmpmi	sp, r4, asr pc
    8254:	205f5f58 	subscs	r5, pc, r8, asr pc	; <UNPREDICTABLE>
    8258:	46375830 			; <UNDEFINED> instruction: 0x46375830
    825c:	46464646 	strbmi	r4, [r6], -r6, asr #12
    8260:	46464646 	strbmi	r4, [r6], -r6, asr #12
    8264:	46464646 	strbmi	r4, [r6], -r6, asr #12
    8268:	2d504646 	ldclcs	6, cr4, [r0, #-280]	; 0xfffffee8
    826c:	4c4c3336 	mcrrmi	3, 3, r3, ip, cr6
    8270:	5f5f0052 	svcpl	0x005f0052
    8274:	736e6f63 	cmnvc	lr, #396	; 0x18c
    8278:	6f632074 	svcvs	0x00632074
    827c:	0074736e 	rsbseq	r7, r4, lr, ror #6
    8280:	4349564e 	movtmi	r5, #38478	; 0x964e
    8284:	4332495f 	teqmi	r2, #1556480	; 0x17c000
    8288:	56455f31 			; <UNDEFINED> instruction: 0x56455f31
    828c:	5152495f 	cmppl	r2, pc, asr r9
    8290:	445f3133 	ldrbmi	r3, [pc], #-307	; 8298 <_Min_Stack_Size+0x7e98>
    8294:	42415349 	submi	r5, r1, #603979777	; 0x24000001
    8298:	2820454c 	stmdacs	r0!, {r2, r3, r6, r8, sl, lr}
    829c:	4349564e 	movtmi	r5, #38478	; 0x964e
    82a0:	4543495f 	strbmi	r4, [r3, #-2399]	; 0xfffff6a1
    82a4:	7c203052 	stcvc	0, cr3, [r0], #-328	; 0xfffffeb8
    82a8:	2031203d 	eorscs	r2, r1, sp, lsr r0
    82ac:	49203c3c 	stmdbmi	r0!, {r2, r3, r4, r5, sl, fp, ip, sp}
    82b0:	5f314332 	svcpl	0x00314332
    82b4:	495f5645 	ldmdbmi	pc, {r0, r2, r6, r9, sl, ip, lr}^	; <UNPREDICTABLE>
    82b8:	3b295152 	blcc	a5c808 <_Min_Stack_Size+0xa5c408>
    82bc:	4e495500 	cdpmi	5, 4, cr5, cr9, cr0, {0}
    82c0:	454c5f54 	strbmi	r5, [ip, #-3924]	; 0xfffff0ac
    82c4:	33545341 	cmpcc	r4, #67108865	; 0x4000001
    82c8:	414d5f32 	cmpmi	sp, r2, lsr pc
    82cc:	5f282058 	svcpl	0x00282058
    82d0:	4e49555f 	mcrmi	5, 2, r5, cr9, cr15, {2}
    82d4:	454c5f54 	strbmi	r5, [ip, #-3924]	; 0xfffff0ac
    82d8:	33545341 	cmpcc	r4, #67108865	; 0x4000001
    82dc:	414d5f32 	cmpmi	sp, r2, lsr pc
    82e0:	295f5f58 	ldmdbcs	pc, {r3, r4, r6, r8, r9, sl, fp, ip, lr}^	; <UNPREDICTABLE>
    82e4:	475f5f00 	ldrbmi	r5, [pc, -r0, lsl #30]
    82e8:	5f43554e 	svcpl	0x0043554e
    82ec:	52455250 	subpl	r5, r5, #80, 4
    82f0:	5f5f5145 	svcpl	0x005f5145
    82f4:	2c616d28 	stclcs	13, cr6, [r1], #-160	; 0xffffff60
    82f8:	2029696d 	eorcs	r6, r9, sp, ror #18
    82fc:	4e475f5f 	mcrmi	15, 2, r5, cr7, cr15, {2}
    8300:	505f4355 	subspl	r4, pc, r5, asr r3	; <UNPREDICTABLE>
    8304:	45524552 	ldrbmi	r4, [r2, #-1362]	; 0xfffffaae
    8308:	616d2851 	cmnvs	sp, r1, asr r8
    830c:	696d202c 	stmdbvs	sp!, {r2, r3, r5, sp}^
    8310:	32490029 	subcc	r0, r9, #41	; 0x29
    8314:	52535f43 	subspl	r5, r3, #268	; 0x10c
    8318:	44415f31 	strbmi	r5, [r1], #-3889	; 0xfffff0cf
    831c:	4d5f5244 	lfmmi	f5, 2, [pc, #-272]	; 8214 <_Min_Stack_Size+0x7e14>
    8320:	28206b73 	stmdacs	r0!, {r0, r1, r4, r5, r6, r8, r9, fp, sp, lr}
    8324:	55317830 	ldrpl	r7, [r1, #-2096]!	; 0xfffff7d0
    8328:	3c3c204c 	ldccc	0, cr2, [ip], #-304	; 0xfffffed0
    832c:	43324920 	teqmi	r2, #32, 18	; 0x80000
    8330:	3152535f 	cmpcc	r2, pc, asr r3
    8334:	4444415f 	strbmi	r4, [r4], #-351	; 0xfffffea1
    8338:	6f505f52 	svcvs	0x00505f52
    833c:	47002973 	smlsdxmi	r0, r3, r9, r2
    8340:	5f4f4950 	svcpl	0x004f4950
    8344:	4e6e6950 			; <UNDEFINED> instruction: 0x4e6e6950
    8348:	65626d75 	strbvs	r6, [r2, #-3445]!	; 0xfffff28b
    834c:	5f5f0072 	svcpl	0x005f0072
    8350:	50544e49 	subspl	r4, r4, r9, asr #28
    8354:	545f5254 	ldrbpl	r5, [pc], #-596	; 835c <_Min_Stack_Size+0x7f5c>
    8358:	5f455059 	svcpl	0x00455059
    835c:	6e69205f 	mcrvs	0, 3, r2, cr9, cr15, {2}
    8360:	58450074 	stmdapl	r5, {r2, r4, r5, r6}^
    8364:	5f384954 	svcpl	0x00384954
    8368:	20515249 	subscs	r5, r1, r9, asr #4
    836c:	5f003332 	svcpl	0x00003332
    8370:	4e454552 	mcrmi	5, 2, r4, cr5, cr2, {2}
    8374:	4c435f54 	mcrrmi	15, 5, r5, r3, cr4
    8378:	554e4145 	strbpl	r4, [lr, #-325]	; 0xfffffebb
    837c:	705f2850 	subsvc	r2, pc, r0, asr r8	; <UNPREDICTABLE>
    8380:	20297274 	eorcs	r7, r9, r4, ror r2
    8384:	705f2828 	subsvc	r2, pc, r8, lsr #16
    8388:	2d297274 	sfmcs	f7, 4, [r9, #-464]!	; 0xfffffe30
    838c:	635f5f3e 	cmpvs	pc, #62, 30	; 0xf8
    8390:	6e61656c 	cdpvs	5, 6, cr6, cr1, cr12, {3}
    8394:	00297075 	eoreq	r7, r9, r5, ror r0
    8398:	5f434352 	svcpl	0x00434352
    839c:	4f495047 	svcmi	0x00495047
    83a0:	4c435f43 	mcrrmi	15, 4, r5, r3, cr3
    83a4:	4e455f4b 	cdpmi	15, 4, cr5, cr5, cr11, {2}
    83a8:	28202928 	stmdacs	r0!, {r3, r5, r8, fp, sp}
    83ac:	2d434352 	stclcs	3, cr4, [r3, #-328]	; 0xfffffeb8
    83b0:	4250413e 	subsmi	r4, r0, #-2147483633	; 0x8000000f
    83b4:	524e4532 	subpl	r4, lr, #209715200	; 0xc800000
    83b8:	203d7c20 	eorscs	r7, sp, r0, lsr #24
    83bc:	343c3c31 	ldrtcc	r3, [ip], #-3121	; 0xfffff3cf
    83c0:	49003b29 	stmdbmi	r0, {r0, r3, r5, r8, r9, fp, ip, sp}
    83c4:	535f4332 	cmppl	pc, #-939524096	; 0xc8000000
    83c8:	4f5f3152 	svcmi	0x005f3152
    83cc:	505f5256 	subspl	r5, pc, r6, asr r2	; <UNPREDICTABLE>
    83d0:	2820736f 	stmdacs	r0!, {r0, r1, r2, r3, r5, r6, r8, r9, ip, sp, lr}
    83d4:	29553131 	ldmdbcs	r5, {r0, r4, r5, r8, ip, sp}^
    83d8:	525f5f00 	subspl	r5, pc, #0, 30
    83dc:	53494745 	movtpl	r4, #38725	; 0x9745
    83e0:	5f524554 	svcpl	0x00524554
    83e4:	46455250 			; <UNDEFINED> instruction: 0x46455250
    83e8:	5f5f5849 	svcpl	0x005f5849
    83ec:	5f5f0020 	svcpl	0x005f0020
    83f0:	33544c46 	cmpcc	r4, #17920	; 0x4600
    83f4:	414d5f32 	cmpmi	sp, r2, lsr pc
    83f8:	205f5f58 	subscs	r5, pc, r8, asr pc	; <UNPREDICTABLE>
    83fc:	30342e33 	eorscc	r2, r4, r3, lsr lr
    8400:	33323832 	teqcc	r2, #3276800	; 0x320000
    8404:	33363634 	teqcc	r6, #52, 12	; 0x3400000
    8408:	38323538 	ldmdacc	r2!, {r3, r4, r5, r8, sl, ip, sp}
    840c:	2b653638 	blcs	1955cf4 <_Min_Stack_Size+0x19558f4>
    8410:	33463833 	movtcc	r3, #26675	; 0x6833
    8414:	5f5f0032 	svcpl	0x005f0032
    8418:	5f4c4244 	svcpl	0x004c4244
    841c:	5f474944 	svcpl	0x00474944
    8420:	3531205f 	ldrcc	r2, [r1, #-95]!	; 0xffffffa1
    8424:	555f5f00 	ldrbpl	r5, [pc, #-3840]	; 752c <_Min_Stack_Size+0x712c>
    8428:	4152464c 	cmpmi	r2, ip, asr #12
    842c:	455f5443 	ldrbmi	r5, [pc, #-1091]	; 7ff1 <_Min_Stack_Size+0x7bf1>
    8430:	4c495350 	mcrrmi	3, 5, r5, r9, cr0
    8434:	5f5f4e4f 	svcpl	0x005f4e4f
    8438:	31783020 	cmncc	r8, r0, lsr #32
    843c:	32332d50 	eorscc	r2, r3, #80, 26	; 0x1400
    8440:	00524c55 	subseq	r4, r2, r5, asr ip
    8444:	43525f5f 	cmpmi	r2, #380	; 0x17c
    8448:	28444953 	stmdacs	r4, {r0, r1, r4, r6, r8, fp, lr}^
    844c:	73202973 			; <UNDEFINED> instruction: 0x73202973
    8450:	63757274 	cmnvs	r5, #116, 4	; 0x40000007
    8454:	5f5f2074 	svcpl	0x005f2074
    8458:	6b636168 	blvs	18e0a00 <_Min_Stack_Size+0x18e0600>
    845c:	54584500 	ldrbpl	r4, [r8], #-1280	; 0xfffffb00
    8460:	50333149 	eorspl	r3, r3, r9, asr #2
    8464:	20333144 	eorscs	r3, r3, r4, asr #2
    8468:	54584528 	ldrbpl	r4, [r8], #-1320	; 0xfffffad8
    846c:	50475f49 	subpl	r5, r7, r9, asr #30
    8470:	4d5f4f49 	ldclmi	15, cr4, [pc, #-292]	; 8354 <_Min_Stack_Size+0x7f54>
    8474:	6e697061 	cdpvs	0, 6, cr7, cr9, cr1, {3}
    8478:	29745f67 	ldmdbcs	r4!, {r0, r1, r2, r5, r6, r8, r9, sl, fp, ip, lr}^
    847c:	5458457b 	ldrbpl	r4, [r8], #-1403	; 0xfffffa85
    8480:	2c333149 	ldfcss	f3, [r3], #-292	; 0xfffffedc
    8484:	49504720 	ldmdbmi	r0, {r5, r8, r9, sl, lr}^
    8488:	202c444f 	eorcs	r4, ip, pc, asr #8
    848c:	4f495047 	svcmi	0x00495047
    8490:	4e49505f 	mcrmi	0, 2, r5, cr9, cr15, {2}
    8494:	2c33315f 	ldfcss	f3, [r3], #-380	; 0xfffffe84
    8498:	54584520 	ldrbpl	r4, [r8], #-1312	; 0xfffffae0
    849c:	5f333149 	svcpl	0x00333149
    84a0:	7d515249 	lfmvc	f5, 2, [r1, #-292]	; 0xfffffedc
    84a4:	45525f00 	ldrbmi	r5, [r2, #-3840]	; 0xfffff100
    84a8:	5f544e45 	svcpl	0x00544e45
    84ac:	54494e49 	strbpl	r4, [r9], #-3657	; 0xfffff1b7
    84b0:	5345525f 	movtpl	r5, #21087	; 0x525f
    84b4:	45565245 	ldrbmi	r5, [r6, #-581]	; 0xfffffdbb
    84b8:	5f365f44 	svcpl	0x00365f44
    84bc:	5f002037 	svcpl	0x00002037
    84c0:	4e454552 	mcrmi	5, 2, r4, cr5, cr2, {2}
    84c4:	364c5f54 			; <UNDEFINED> instruction: 0x364c5f54
    84c8:	425f4134 	subsmi	r4, pc, #52, 2
    84cc:	70284655 	eorvc	r4, r8, r5, asr r6
    84d0:	20297274 	eorcs	r7, r9, r4, ror r2
    84d4:	74702828 	ldrbtvc	r2, [r0], #-2088	; 0xfffff7d8
    84d8:	3e2d2972 			; <UNDEFINED> instruction: 0x3e2d2972
    84dc:	73696d5f 	cmnvc	r9, #6080	; 0x17c0
    84e0:	5f3e2d63 	svcpl	0x003e2d63
    84e4:	6134366c 	teqvs	r4, ip, ror #12
    84e8:	6675625f 			; <UNDEFINED> instruction: 0x6675625f
    84ec:	5f5f0029 	svcpl	0x005f0029
    84f0:	455a4953 	ldrbmi	r4, [sl, #-2387]	; 0xfffff6ad
    84f4:	535f464f 	cmppl	pc, #82837504	; 0x4f00000
    84f8:	5f455a49 	svcpl	0x00455a49
    84fc:	205f5f54 	subscs	r5, pc, r4, asr pc	; <UNPREDICTABLE>
    8500:	5f5f0034 	svcpl	0x005f0034
    8504:	544e4955 	strbpl	r4, [lr], #-2389	; 0xfffff6ab
    8508:	545f3436 	ldrbpl	r3, [pc], #-1078	; 8510 <_Min_Stack_Size+0x8110>
    850c:	5f455059 	svcpl	0x00455059
    8510:	6f6c205f 	svcvs	0x006c205f
    8514:	6c20676e 	stcvs	7, cr6, [r0], #-440	; 0xfffffe48
    8518:	20676e6f 	rsbcs	r6, r7, pc, ror #28
    851c:	69736e75 	ldmdbvs	r3!, {r0, r2, r4, r5, r6, r9, sl, fp, sp, lr}^
    8520:	64656e67 	strbtvs	r6, [r5], #-3687	; 0xfffff199
    8524:	746e6920 	strbtvc	r6, [lr], #-2336	; 0xfffff6e0
    8528:	495f5f00 	ldmdbmi	pc, {r8, r9, sl, fp, ip, lr}^	; <UNPREDICTABLE>
    852c:	3436544e 	ldrtcc	r5, [r6], #-1102	; 0xfffffbb2
    8530:	6328435f 			; <UNDEFINED> instruction: 0x6328435f
    8534:	20632029 	rsbcs	r2, r3, r9, lsr #32
    8538:	4c202323 	stcmi	3, cr2, [r0], #-140	; 0xffffff74
    853c:	5f5f004c 	svcpl	0x005f004c
    8540:	43554e47 	cmpmi	r5, #1136	; 0x470
    8544:	454b494c 	strbmi	r4, [fp, #-2380]	; 0xfffff6b4
    8548:	4f54435f 	svcmi	0x0054435f
    854c:	45535f52 	ldrbmi	r5, [r3, #-3922]	; 0xfffff0ae
    8550:	4f495443 	svcmi	0x00495443
    8554:	41485f4e 	cmpmi	r8, lr, asr #30
    8558:	494c444e 	stmdbmi	ip, {r1, r2, r3, r6, sl, lr}^
    855c:	3120474e 			; <UNDEFINED> instruction: 0x3120474e
    8560:	6c5f5f00 	mrrcvs	15, 0, r5, pc, cr0	; <UNPREDICTABLE>
    8564:	616b636f 	cmnvs	fp, pc, ror #6
    8568:	20656c62 	rsbcs	r6, r5, r2, ror #24
    856c:	6f6c5f5f 	svcvs	0x006c5f5f
    8570:	615f6b63 	cmpvs	pc, r3, ror #22
    8574:	746f6e6e 	strbtvc	r6, [pc], #-3694	; 857c <_Min_Stack_Size+0x817c>
    8578:	28657461 	stmdacs	r5!, {r0, r5, r6, sl, ip, sp, lr}^
    857c:	6b636f6c 	blvs	18e4334 <_Min_Stack_Size+0x18e3f34>
    8580:	656c6261 	strbvs	r6, [ip, #-609]!	; 0xfffffd9f
    8584:	5f5f0029 	svcpl	0x005f0029
    8588:	54534146 	ldrbpl	r4, [r3], #-326	; 0xfffffeba
    858c:	47002038 	smladxmi	r0, r8, r0, r2
    8590:	5f4f4950 	svcpl	0x004f4950
    8594:	5f4e4950 	svcpl	0x004e4950
    8598:	28203431 	stmdacs	r0!, {r0, r4, r5, sl, ip, sp}
    859c:	6e697528 	cdpvs	5, 6, cr7, cr9, cr8, {1}
    85a0:	5f363174 	svcpl	0x00363174
    85a4:	78302974 	ldmdavc	r0!, {r2, r4, r5, r6, r8, fp, sp}
    85a8:	30303034 	eorscc	r3, r0, r4, lsr r0
    85ac:	5f5f0029 	svcpl	0x005f0029
    85b0:	5f444e45 	svcpl	0x00444e45
    85b4:	4c434544 	cfstr64mi	mvdx4, [r3], {68}	; 0x44
    85b8:	53002053 	movwpl	r2, #83	; 0x53
    85bc:	5f4d4152 	svcpl	0x004d4152
    85c0:	4f4d454d 	svcmi	0x004d454d
    85c4:	425f5952 	subsmi	r5, pc, #1343488	; 0x148000
    85c8:	20455341 	subcs	r5, r5, r1, asr #6
    85cc:	30327830 	eorscc	r7, r2, r0, lsr r8
    85d0:	30303030 	eorscc	r3, r0, r0, lsr r0
    85d4:	4c553030 	mrrcmi	0, 3, r3, r5, cr0
    85d8:	54584500 	ldrbpl	r4, [r8], #-1280	; 0xfffffb00
    85dc:	42503149 	subsmi	r3, r0, #1073741842	; 0x40000012
    85e0:	45282031 	strmi	r2, [r8, #-49]!	; 0xffffffcf
    85e4:	5f495458 	svcpl	0x00495458
    85e8:	4f495047 	svcmi	0x00495047
    85ec:	70614d5f 	rsbvc	r4, r1, pc, asr sp
    85f0:	5f676e69 	svcpl	0x00676e69
    85f4:	457b2974 	ldrbmi	r2, [fp, #-2420]!	; 0xfffff68c
    85f8:	31495458 	cmpcc	r9, r8, asr r4
    85fc:	5047202c 	subpl	r2, r7, ip, lsr #32
    8600:	2c424f49 	mcrrcs	15, 4, r4, r2, cr9
    8604:	49504720 	ldmdbmi	r0, {r5, r8, r9, sl, lr}^
    8608:	49505f4f 	ldmdbmi	r0, {r0, r1, r2, r3, r6, r8, r9, sl, fp, ip, lr}^
    860c:	2c315f4e 	ldccs	15, cr5, [r1], #-312	; 0xfffffec8
    8610:	54584520 	ldrbpl	r4, [r8], #-1312	; 0xfffffae0
    8614:	495f3149 	ldmdbmi	pc, {r0, r3, r6, r8, ip, sp}^	; <UNPREDICTABLE>
    8618:	007d5152 	rsbseq	r5, sp, r2, asr r1
    861c:	5f433249 	svcpl	0x00433249
    8620:	5f315253 	svcpl	0x00315253
    8624:	41424d53 	cmpmi	r2, r3, asr sp
    8628:	5452454c 	ldrbpl	r4, [r2], #-1356	; 0xfffffab4
    862c:	43324920 	teqmi	r2, #32, 18	; 0x80000
    8630:	3152535f 	cmpcc	r2, pc, asr r3
    8634:	424d535f 	submi	r5, sp, #2080374785	; 0x7c000001
    8638:	52454c41 	subpl	r4, r5, #16640	; 0x4100
    863c:	734d5f54 	movtvc	r5, #57172	; 0xdf54
    8640:	5f5f006b 	svcpl	0x005f006b
    8644:	4c42444c 	cfstrdmi	mvd4, [r2], {76}	; 0x4c
    8648:	4e494d5f 	mcrmi	13, 2, r4, cr9, cr15, {2}
    864c:	32205f5f 	eorcc	r5, r0, #380	; 0x17c
    8650:	3532322e 	ldrcc	r3, [r2, #-558]!	; 0xfffffdd2
    8654:	38333730 	ldmdacc	r3!, {r4, r5, r8, r9, sl, ip, sp}
    8658:	30353835 	eorscc	r3, r5, r5, lsr r8
    865c:	31303237 	teqcc	r0, r7, lsr r2
    8660:	332d6534 			; <UNDEFINED> instruction: 0x332d6534
    8664:	004c3830 	subeq	r3, ip, r0, lsr r8
    8668:	4349564e 	movtmi	r5, #38478	; 0x964e
    866c:	5152495f 	cmppl	r2, pc, asr r9
    8670:	58455f39 	stmdapl	r5, {r0, r3, r4, r5, r8, r9, sl, fp, ip, lr}^
    8674:	5f334954 	svcpl	0x00334954
    8678:	61736944 	cmnvs	r3, r4, asr #18
    867c:	20656c62 	rsbcs	r6, r5, r2, ror #24
    8680:	49564e28 	ldmdbmi	r6, {r3, r5, r9, sl, fp, lr}^
    8684:	43495f43 	movtmi	r5, #40771	; 0x9f43
    8688:	20305245 	eorscs	r5, r0, r5, asr #4
    868c:	31203d7c 			; <UNDEFINED> instruction: 0x31203d7c
    8690:	29393c3c 	ldmdbcs	r9!, {r2, r3, r4, r5, sl, fp, ip, sp}
    8694:	54584500 	ldrbpl	r4, [r8], #-1280	; 0xfffffb00
    8698:	44503249 	ldrbmi	r3, [r0], #-585	; 0xfffffdb7
    869c:	45282032 	strmi	r2, [r8, #-50]!	; 0xffffffce
    86a0:	5f495458 	svcpl	0x00495458
    86a4:	4f495047 	svcmi	0x00495047
    86a8:	70614d5f 	rsbvc	r4, r1, pc, asr sp
    86ac:	5f676e69 	svcpl	0x00676e69
    86b0:	457b2974 	ldrbmi	r2, [fp, #-2420]!	; 0xfffff68c
    86b4:	32495458 	subcc	r5, r9, #88, 8	; 0x58000000
    86b8:	5047202c 	subpl	r2, r7, ip, lsr #32
    86bc:	2c444f49 	mcrrcs	15, 4, r4, r4, cr9
    86c0:	49504720 	ldmdbmi	r0, {r5, r8, r9, sl, lr}^
    86c4:	49505f4f 	ldmdbmi	r0, {r0, r1, r2, r3, r6, r8, r9, sl, fp, ip, lr}^
    86c8:	2c325f4e 	ldccs	15, cr5, [r2], #-312	; 0xfffffec8
    86cc:	54584520 	ldrbpl	r4, [r8], #-1312	; 0xfffffae0
    86d0:	495f3249 	ldmdbmi	pc, {r0, r3, r6, r9, ip, sp}^	; <UNPREDICTABLE>
    86d4:	007d5152 	rsbseq	r5, sp, r2, asr r1
    86d8:	52415f5f 	subpl	r5, r1, #380	; 0x17c
    86dc:	45465f4d 	strbmi	r5, [r6, #-3917]	; 0xfffff0b3
    86e0:	52555441 	subspl	r5, r5, #1090519040	; 0x41000000
    86e4:	44435f45 	strbmi	r5, [r3], #-3909	; 0xfffff0bb
    86e8:	5f5f0045 	svcpl	0x005f0045
    86ec:	55434341 	strbpl	r4, [r3, #-833]	; 0xfffffcbf
    86f0:	42495f4d 	submi	r5, r9, #308	; 0x134
    86f4:	5f5f5449 	svcpl	0x005f5449
    86f8:	00363120 	eorseq	r3, r6, r0, lsr #2
    86fc:	5f433249 	svcpl	0x00433249
    8700:	5f315253 	svcpl	0x00315253
    8704:	52444441 	subpl	r4, r4, #1090519040	; 0x41000000
    8708:	736f505f 	cmnvc	pc, #95	; 0x5f
    870c:	55312820 	ldrpl	r2, [r1, #-2080]!	; 0xfffff7e0
    8710:	50470029 	subpl	r0, r7, r9, lsr #32
    8714:	4d5f4f49 	ldclmi	15, cr4, [pc, #-292]	; 85f8 <_Min_Stack_Size+0x81f8>
    8718:	5f45444f 	svcpl	0x0045444f
    871c:	5054554f 	subspl	r5, r4, pc, asr #10
    8720:	415f5455 	cmpmi	pc, r5, asr r4	; <UNPREDICTABLE>
    8724:	444f5f46 	strbmi	r5, [pc], #-3910	; 872c <_Min_Stack_Size+0x832c>
    8728:	30783020 	rsbscc	r3, r8, r0, lsr #32
    872c:	30303030 	eorscc	r3, r0, r0, lsr r0
    8730:	55373030 	ldrpl	r3, [r7, #-48]!	; 0xffffffd0
    8734:	736e7500 	cmnvc	lr, #0, 10
    8738:	656e6769 	strbvs	r6, [lr, #-1897]!	; 0xfffff897
    873c:	46410064 	strbmi	r0, [r1], -r4, rrx
    8740:	425f4f49 	subsmi	r4, pc, #292	; 0x124
    8744:	20455341 	subcs	r5, r5, r1, asr #6
    8748:	30347830 	eorscc	r7, r4, r0, lsr r8
    874c:	30303130 	eorscc	r3, r0, r0, lsr r1
    8750:	4c553030 	mrrcmi	0, 3, r3, r5, cr0
    8754:	4c5f5f00 	mrrcmi	15, 0, r5, pc, cr0	; <UNPREDICTABLE>
    8758:	54534145 	ldrbpl	r4, [r3], #-325	; 0xfffffebb
    875c:	68222038 	stmdavs	r2!, {r3, r4, r5, sp}
    8760:	49002268 	stmdbmi	r0, {r3, r5, r6, r9, sp}
    8764:	5f324332 	svcpl	0x00324332
    8768:	495f5245 	ldmdbmi	pc, {r0, r2, r6, r9, ip, lr}^	; <UNPREDICTABLE>
    876c:	33205152 			; <UNDEFINED> instruction: 0x33205152
    8770:	5f5f0034 	svcpl	0x005f0034
    8774:	675f7470 			; <UNDEFINED> instruction: 0x675f7470
    8778:	64726175 	ldrbtvs	r6, [r2], #-373	; 0xfffffe8b
    877c:	625f6465 	subsvs	r6, pc, #1694498816	; 0x65000000
    8780:	29782879 	ldmdbcs	r8!, {r0, r3, r4, r5, r6, fp, sp}^
    8784:	6c5f5f20 	mrrcvs	15, 2, r5, pc, cr0	; <UNPREDICTABLE>
    8788:	5f6b636f 	svcpl	0x006b636f
    878c:	6f6e6e61 	svcvs	0x006e6e61
    8790:	65746174 	ldrbvs	r6, [r4, #-372]!	; 0xfffffe8c
    8794:	5f747028 	svcpl	0x00747028
    8798:	72617567 	rsbvc	r7, r1, #432013312	; 0x19c00000
    879c:	5f646564 	svcpl	0x00646564
    87a0:	78287962 	stmdavc	r8!, {r1, r5, r6, r8, fp, ip, sp, lr}
    87a4:	5f002929 	svcpl	0x00002929
    87a8:	6175675f 	cmnvs	r5, pc, asr r7
    87ac:	64656472 	strbtvs	r6, [r5], #-1138	; 0xfffffb8e
    87b0:	2879625f 	ldmdacs	r9!, {r0, r1, r2, r3, r4, r6, r9, sp, lr}^
    87b4:	5f202978 	svcpl	0x00202978
    87b8:	636f6c5f 	cmnvs	pc, #24320	; 0x5f00
    87bc:	6e615f6b 	cdpvs	15, 6, cr5, cr1, cr11, {3}
    87c0:	61746f6e 	cmnvs	r4, lr, ror #30
    87c4:	67286574 			; <UNDEFINED> instruction: 0x67286574
    87c8:	64726175 	ldrbtvs	r6, [r2], #-373	; 0xfffffe8b
    87cc:	625f6465 	subsvs	r6, pc, #1694498816	; 0x65000000
    87d0:	29782879 	ldmdbcs	r8!, {r0, r3, r4, r5, r6, fp, sp}^
    87d4:	58450029 	stmdapl	r5, {r0, r3, r5}^
    87d8:	32314954 	eorscc	r4, r1, #84, 18	; 0x150000
    87dc:	5152495f 	cmppl	r2, pc, asr r9
    87e0:	00303420 	eorseq	r3, r0, r0, lsr #8
    87e4:	49555f5f 	ldmdbmi	r5, {r0, r1, r2, r3, r4, r6, r8, r9, sl, fp, ip, lr}^
    87e8:	3631544e 	ldrtcc	r5, [r1], -lr, asr #8
    87ec:	6328435f 			; <UNDEFINED> instruction: 0x6328435f
    87f0:	00632029 	rsbeq	r2, r3, r9, lsr #32
    87f4:	4c465f5f 	mcrrmi	15, 5, r5, r6, cr15
    87f8:	5f343654 	svcpl	0x00343654
    87fc:	5f4e494d 	svcpl	0x004e494d
    8800:	5f505845 	svcpl	0x00505845
    8804:	2d28205f 	stccs	0, cr2, [r8, #-380]!	; 0xfffffe84
    8808:	31323031 	teqcc	r2, r1, lsr r0
    880c:	5f5f0029 	svcpl	0x005f0029
    8810:	5f6d7973 	svcpl	0x006d7973
    8814:	706d6f63 	rsbvc	r6, sp, r3, ror #30
    8818:	73287461 			; <UNDEFINED> instruction: 0x73287461
    881c:	692c6d79 	stmdbvs	ip!, {r0, r3, r4, r5, r6, r8, sl, fp, sp, lr}
    8820:	2c6c706d 	stclcs	0, cr7, [ip], #-436	; 0xfffffe4c
    8824:	69726576 	ldmdbvs	r2!, {r1, r2, r4, r5, r6, r8, sl, sp, lr}^
    8828:	5f202964 	svcpl	0x00202964
    882c:	6d73615f 	ldfvse	f6, [r3, #-380]!	; 0xfffffe84
    8830:	22285f5f 	eorcs	r5, r8, #380	; 0x17c
    8834:	6d79732e 	ldclvs	3, cr7, [r9, #-184]!	; 0xffffff48
    8838:	20726576 	rsbscs	r6, r2, r6, ror r5
    883c:	69232022 	stmdbvs	r3!, {r1, r5, sp}
    8840:	206c706d 	rsbcs	r7, ip, sp, rrx
    8844:	22202c22 	eorcs	r2, r0, #8704	; 0x2200
    8848:	79732320 	ldmdbvc	r3!, {r5, r8, r9, sp}^
    884c:	4022206d 	eormi	r2, r2, sp, rrx
    8850:	76232022 	strtvc	r2, [r3], -r2, lsr #32
    8854:	64697265 	strbtvs	r7, [r9], #-613	; 0xfffffd9b
    8858:	5f5f0029 	svcpl	0x005f0029
    885c:	535f4343 	cmppl	pc, #201326593	; 0xc000001
    8860:	4f505055 	svcmi	0x00505055
    8864:	5f535452 	svcpl	0x00535452
    8868:	4e495f5f 	mcrmi	15, 2, r5, cr9, cr15, {2}
    886c:	454e494c 	strbmi	r4, [lr, #-2380]	; 0xfffff6b4
    8870:	31205f5f 			; <UNDEFINED> instruction: 0x31205f5f
    8874:	555f5f00 	ldrbpl	r5, [pc, #-3840]	; 797c <_Min_Stack_Size+0x757c>
    8878:	495f4144 	ldmdbmi	pc, {r2, r6, r8, lr}^	; <UNPREDICTABLE>
    887c:	5f544942 	svcpl	0x00544942
    8880:	3233205f 	eorscc	r2, r3, #95	; 0x5f
    8884:	4c5f5f00 	mrrcmi	15, 0, r5, pc, cr0	; <UNPREDICTABLE>
    8888:	54534145 	ldrbpl	r4, [r3], #-325	; 0xfffffebb
    888c:	22203631 	eorcs	r3, r0, #51380224	; 0x3100000
    8890:	5f002268 	svcpl	0x00002268
    8894:	6972705f 	ldmdbvs	r2!, {r0, r1, r2, r3, r4, r6, ip, sp, lr}^
    8898:	6c66746e 	cfstrdvs	mvd7, [r6], #-440	; 0xfffffe48
    889c:	28656b69 	stmdacs	r5!, {r0, r3, r5, r6, r8, r9, fp, sp, lr}^
    88a0:	61746d66 	cmnvs	r4, r6, ror #26
    88a4:	662c6772 			; <UNDEFINED> instruction: 0x662c6772
    88a8:	74737269 	ldrbtvc	r7, [r3], #-617	; 0xfffffd97
    88ac:	61726176 	cmnvs	r2, r6, ror r1
    88b0:	20296772 	eorcs	r6, r9, r2, ror r7
    88b4:	74615f5f 	strbtvc	r5, [r1], #-3935	; 0xfffff0a1
    88b8:	62697274 	rsbvs	r7, r9, #116, 4	; 0x40000007
    88bc:	5f657475 	svcpl	0x00657475
    88c0:	5f28285f 	svcpl	0x0028285f
    88c4:	726f665f 	rsbvc	r6, pc, #99614720	; 0x5f00000
    88c8:	5f74616d 	svcpl	0x0074616d
    88cc:	5f28205f 	svcpl	0x0028205f
    88d0:	6972705f 	ldmdbvs	r2!, {r0, r1, r2, r3, r4, r6, ip, sp, lr}^
    88d4:	5f66746e 	svcpl	0x0066746e
    88d8:	66202c5f 			; <UNDEFINED> instruction: 0x66202c5f
    88dc:	7261746d 	rsbvc	r7, r1, #1828716544	; 0x6d000000
    88e0:	66202c67 	strtvs	r2, [r0], -r7, ror #24
    88e4:	74737269 	ldrbtvc	r7, [r3], #-617	; 0xfffffd97
    88e8:	61726176 	cmnvs	r2, r6, ror r1
    88ec:	29296772 	stmdbcs	r9!, {r1, r4, r5, r6, r8, r9, sl, sp, lr}
    88f0:	5f5f0029 	svcpl	0x005f0029
    88f4:	495f4f4e 	ldmdbmi	pc, {r1, r2, r3, r6, r8, r9, sl, fp, lr}^	; <UNPREDICTABLE>
    88f8:	4e494c4e 	cdpmi	12, 4, cr4, cr9, cr14, {2}
    88fc:	205f5f45 	subscs	r5, pc, r5, asr #30
    8900:	5f5f0031 	svcpl	0x005f0031
    8904:	74736166 	ldrbtvc	r6, [r3], #-358	; 0xfffffe9a
    8908:	6c6c6163 	stfvse	f6, [ip], #-396	; 0xfffffe74
    890c:	615f5f20 	cmpvs	pc, r0, lsr #30
    8910:	69727474 	ldmdbvs	r2!, {r2, r4, r5, r6, sl, ip, sp, lr}^
    8914:	65747562 	ldrbvs	r7, [r4, #-1378]!	; 0xfffffa9e
    8918:	28285f5f 	stmdacs	r8!, {r0, r1, r2, r3, r4, r6, r8, r9, sl, fp, ip, lr}
    891c:	61665f5f 	cmnvs	r6, pc, asr pc
    8920:	61637473 	smcvs	14147	; 0x3743
    8924:	5f5f6c6c 	svcpl	0x005f6c6c
    8928:	49002929 	stmdbmi	r0, {r0, r3, r5, r8, fp, sp}
    892c:	535f4332 	cmppl	pc, #-939524096	; 0xc8000000
    8930:	535f3252 	cmppl	pc, #536870917	; 0x20000005
    8934:	4f48424d 	svcmi	0x0048424d
    8938:	505f5453 	subspl	r5, pc, r3, asr r4	; <UNPREDICTABLE>
    893c:	2820736f 	stmdacs	r0!, {r0, r1, r2, r3, r5, r6, r8, r9, ip, sp, lr}
    8940:	00295536 	eoreq	r5, r9, r6, lsr r5
    8944:	36544e49 	ldrbcc	r4, [r4], -r9, asr #28
    8948:	494d5f34 	stmdbmi	sp, {r2, r4, r5, r8, r9, sl, fp, ip, lr}^
    894c:	2d28204e 	stccs	0, cr2, [r8, #-312]!	; 0xfffffec8
    8950:	4e495f5f 	mcrmi	15, 2, r5, cr9, cr15, {2}
    8954:	5f343654 	svcpl	0x00343654
    8958:	5f58414d 	svcpl	0x0058414d
    895c:	202d205f 	eorcs	r2, sp, pc, asr r0
    8960:	5f002931 	svcpl	0x00002931
    8964:	636f6c5f 	cmnvs	pc, #24320	; 0x5f00
    8968:	6e615f6b 	cdpvs	15, 6, cr5, cr1, cr11, {3}
    896c:	61746f6e 	cmnvs	r4, lr, ror #30
    8970:	78286574 	stmdavc	r8!, {r2, r4, r5, r6, r8, sl, sp, lr}
    8974:	5f002029 	svcpl	0x00002029
    8978:	4554494c 	ldrbmi	r4, [r4, #-2380]	; 0xfffff6b4
    897c:	4958455f 	ldmdbmi	r8, {r0, r1, r2, r3, r4, r6, r8, sl, lr}^
    8980:	00312054 	eorseq	r2, r1, r4, asr r0
    8984:	5f433249 	svcpl	0x00433249
    8988:	5f315253 	svcpl	0x00315253
    898c:	505f4253 	subspl	r4, pc, r3, asr r2	; <UNPREDICTABLE>
    8990:	2820736f 	stmdacs	r0!, {r0, r1, r2, r3, r5, r6, r8, r9, ip, sp, lr}
    8994:	00295530 	eoreq	r5, r9, r0, lsr r5
    8998:	54415f5f 	strbpl	r5, [r1], #-3935	; 0xfffff0a1
    899c:	43494d4f 	movtmi	r4, #40271	; 0x9d4f
    89a0:	4c45525f 	sfmmi	f5, 2, [r5], {95}	; 0x5f
    89a4:	44455841 	strbmi	r5, [r5], #-2113	; 0xfffff7bf
    89a8:	5f003020 	svcpl	0x00003020
    89ac:	52545441 	subspl	r5, r4, #1090519040	; 0x41000000
    89b0:	54554249 	ldrbpl	r4, [r5], #-585	; 0xfffffdb7
    89b4:	74612845 	strbtvc	r2, [r1], #-2117	; 0xfffff7bb
    89b8:	29737274 	ldmdbcs	r3!, {r2, r4, r5, r6, r9, ip, sp, lr}^
    89bc:	615f5f20 	cmpvs	pc, r0, lsr #30
    89c0:	69727474 	ldmdbvs	r2!, {r2, r4, r5, r6, sl, ip, sp, lr}^
    89c4:	65747562 	ldrbvs	r7, [r4, #-1378]!	; 0xfffffa9e
    89c8:	28205f5f 	stmdacs	r0!, {r0, r1, r2, r3, r4, r6, r8, r9, sl, fp, ip, lr}
    89cc:	72747461 	rsbsvc	r7, r4, #1627389952	; 0x61000000
    89d0:	5f002973 	svcpl	0x00002973
    89d4:	4d52415f 	ldfmie	f4, [r2, #-380]	; 0xfffffe84
    89d8:	4145465f 	cmpmi	r5, pc, asr r6
    89dc:	45525554 	ldrbmi	r5, [r2, #-1364]	; 0xfffffaac
    89e0:	504f435f 	subpl	r4, pc, pc, asr r3	; <UNPREDICTABLE>
    89e4:	00434f52 	subeq	r4, r3, r2, asr pc
    89e8:	6f665f5f 	svcvs	0x00665f5f
    89ec:	74616d72 	strbtvc	r6, [r1], #-3442	; 0xfffff28e
    89f0:	6772615f 			; <UNDEFINED> instruction: 0x6772615f
    89f4:	746d6628 	strbtvc	r6, [sp], #-1576	; 0xfffff9d8
    89f8:	29677261 	stmdbcs	r7!, {r0, r5, r6, r9, ip, sp, lr}^
    89fc:	615f5f20 	cmpvs	pc, r0, lsr #30
    8a00:	69727474 	ldmdbvs	r2!, {r2, r4, r5, r6, sl, ip, sp, lr}^
    8a04:	65747562 	ldrbvs	r7, [r4, #-1378]!	; 0xfffffa9e
    8a08:	28285f5f 	stmdacs	r8!, {r0, r1, r2, r3, r4, r6, r8, r9, sl, fp, ip, lr}
    8a0c:	6f665f5f 	svcvs	0x00665f5f
    8a10:	74616d72 	strbtvc	r6, [r1], #-3442	; 0xfffff28e
    8a14:	6772615f 			; <UNDEFINED> instruction: 0x6772615f
    8a18:	28205f5f 	stmdacs	r0!, {r0, r1, r2, r3, r4, r6, r8, r9, sl, fp, ip, lr}
    8a1c:	61746d66 	cmnvs	r4, r6, ror #26
    8a20:	29296772 	stmdbcs	r9!, {r1, r4, r5, r6, r8, r9, sl, sp, lr}
    8a24:	58450029 	stmdapl	r5, {r0, r3, r5}^
    8a28:	50394954 	eorspl	r4, r9, r4, asr r9
    8a2c:	28203943 	stmdacs	r0!, {r0, r1, r6, r8, fp, ip, sp}
    8a30:	49545845 	ldmdbmi	r4, {r0, r2, r6, fp, ip, lr}^
    8a34:	4950475f 	ldmdbmi	r0, {r0, r1, r2, r3, r4, r6, r8, r9, sl, lr}^
    8a38:	614d5f4f 	cmpvs	sp, pc, asr #30
    8a3c:	676e6970 			; <UNDEFINED> instruction: 0x676e6970
    8a40:	7b29745f 	blvc	a65bc4 <_Min_Stack_Size+0xa657c4>
    8a44:	49545845 	ldmdbmi	r4, {r0, r2, r6, fp, ip, lr}^
    8a48:	47202c39 			; <UNDEFINED> instruction: 0x47202c39
    8a4c:	434f4950 	movtmi	r4, #63824	; 0xf950
    8a50:	5047202c 	subpl	r2, r7, ip, lsr #32
    8a54:	505f4f49 	subspl	r4, pc, r9, asr #30
    8a58:	395f4e49 	ldmdbcc	pc, {r0, r3, r6, r9, sl, fp, lr}^	; <UNPREDICTABLE>
    8a5c:	5845202c 	stmdapl	r5, {r2, r3, r5, sp}^
    8a60:	5f394954 	svcpl	0x00394954
    8a64:	7d515249 	lfmvc	f5, 2, [r1, #-292]	; 0xfffffedc
    8a68:	415f5f00 	cmpmi	pc, r0, lsl #30
    8a6c:	49525454 	ldmdbmi	r2, {r2, r4, r6, sl, ip, lr}^
    8a70:	45545542 	ldrbmi	r5, [r4, #-1346]	; 0xfffffabe
    8a74:	504d495f 	subpl	r4, sp, pc, asr r9
    8a78:	5f455255 	svcpl	0x00455255
    8a7c:	5f525450 	svcpl	0x00525450
    8a80:	5f00205f 	svcpl	0x0000205f
    8a84:	4c42445f 	cfstrdmi	mvd4, [r2], {95}	; 0x5f
    8a88:	5341485f 	movtpl	r4, #6239	; 0x185f
    8a8c:	464e495f 			; <UNDEFINED> instruction: 0x464e495f
    8a90:	54494e49 	strbpl	r4, [r9], #-3657	; 0xfffff1b7
    8a94:	205f5f59 	subscs	r5, pc, r9, asr pc	; <UNPREDICTABLE>
    8a98:	5f5f0031 	svcpl	0x005f0031
    8a9c:	5f474953 	svcpl	0x00474953
    8aa0:	4d4f5441 	cfstrdmi	mvd5, [pc, #-260]	; 89a4 <_Min_Stack_Size+0x85a4>
    8aa4:	4d5f4349 	ldclmi	3, cr4, [pc, #-292]	; 8988 <_Min_Stack_Size+0x8588>
    8aa8:	5f5f5841 	svcpl	0x005f5841
    8aac:	37783020 	ldrbcc	r3, [r8, -r0, lsr #32]!
    8ab0:	66666666 	strbtvs	r6, [r6], -r6, ror #12
    8ab4:	00666666 	rsbeq	r6, r6, r6, ror #12
    8ab8:	4e41525f 	mcrmi	2, 2, r5, cr1, cr15, {2}
    8abc:	5f383444 	svcpl	0x00383444
    8ac0:	544c554d 	strbpl	r5, [ip], #-1357	; 0xfffffab3
    8ac4:	2820305f 	stmdacs	r0!, {r0, r1, r2, r3, r4, r6, ip, sp}
    8ac8:	36657830 			; <UNDEFINED> instruction: 0x36657830
    8acc:	00296436 	eoreq	r6, r9, r6, lsr r4
    8ad0:	5f433249 	svcpl	0x00433249
    8ad4:	5f315253 	svcpl	0x00315253
    8ad8:	45434550 	strbmi	r4, [r3, #-1360]	; 0xfffffab0
    8adc:	4d5f5252 	lfmmi	f5, 2, [pc, #-328]	; 899c <_Min_Stack_Size+0x859c>
    8ae0:	28206b73 	stmdacs	r0!, {r0, r1, r4, r5, r6, r8, r9, fp, sp, lr}
    8ae4:	55317830 	ldrpl	r7, [r1, #-2096]!	; 0xfffff7d0
    8ae8:	3c3c204c 	ldccc	0, cr2, [ip], #-304	; 0xfffffed0
    8aec:	43324920 	teqmi	r2, #32, 18	; 0x80000
    8af0:	3152535f 	cmpcc	r2, pc, asr r3
    8af4:	4345505f 	movtmi	r5, #20575	; 0x505f
    8af8:	5f525245 	svcpl	0x00525245
    8afc:	29736f50 	ldmdbcs	r3!, {r4, r6, r8, r9, sl, fp, sp, lr}^
    8b00:	45525f00 	ldrbmi	r5, [r2, #-3840]	; 0xfffff100
    8b04:	5f544e45 	svcpl	0x00544e45
    8b08:	43454843 	movtmi	r4, #22595	; 0x5843
    8b0c:	41525f4b 	cmpmi	r2, fp, asr #30
    8b10:	3834444e 	ldmdacc	r4!, {r1, r2, r3, r6, sl, lr}
    8b14:	72617628 	rsbvc	r7, r1, #40, 12	; 0x2800000
    8b18:	525f2029 	subspl	r2, pc, #41	; 0x29
    8b1c:	544e4545 	strbpl	r4, [lr], #-1349	; 0xfffffabb
    8b20:	4548435f 	strbmi	r4, [r8, #-863]	; 0xfffffca1
    8b24:	76284b43 	strtvc	r4, [r8], -r3, asr #22
    8b28:	202c7261 	eorcs	r7, ip, r1, ror #4
    8b2c:	3834725f 	ldmdacc	r4!, {r0, r1, r2, r3, r4, r6, r9, ip, sp, lr}
    8b30:	7473202c 	ldrbtvc	r2, [r3], #-44	; 0xffffffd4
    8b34:	74637572 	strbtvc	r7, [r3], #-1394	; 0xfffffa8e
    8b38:	61725f20 	cmnvs	r2, r0, lsr #30
    8b3c:	3834646e 	ldmdacc	r4!, {r1, r2, r3, r5, r6, sl, sp, lr}
    8b40:	202c2a20 	eorcs	r2, ip, r0, lsr #20
    8b44:	657a6973 	ldrbvs	r6, [sl, #-2419]!	; 0xfffff68d
    8b48:	2a20666f 	bcs	82250c <_Min_Stack_Size+0x82210c>
    8b4c:	61762828 	cmnvs	r6, r8, lsr #16
    8b50:	3e2d2972 			; <UNDEFINED> instruction: 0x3e2d2972
    8b54:	3834725f 	ldmdacc	r4!, {r0, r1, r2, r3, r4, r6, r9, ip, sp, lr}
    8b58:	5f202c29 	svcpl	0x00202c29
    8b5c:	4e454552 	mcrmi	5, 2, r4, cr5, cr2, {2}
    8b60:	4e495f54 	mcrmi	15, 2, r5, cr9, cr4, {2}
    8b64:	525f5449 	subspl	r5, pc, #1224736768	; 0x49000000
    8b68:	34444e41 	strbcc	r4, [r4], #-3649	; 0xfffff1bf
    8b6c:	76282838 			; <UNDEFINED> instruction: 0x76282838
    8b70:	29297261 	stmdbcs	r9!, {r0, r5, r6, r9, ip, sp, lr}
    8b74:	525f0029 	subspl	r0, pc, #41	; 0x29
    8b78:	52415445 	subpl	r5, r1, #1157627904	; 0x45000000
    8b7c:	41544547 	cmpmi	r4, r7, asr #10
    8b80:	5f454c42 	svcpl	0x00454c42
    8b84:	4b434f4c 	blmi	10dc8bc <_Min_Stack_Size+0x10dc4bc>
    8b88:	20474e49 	subcs	r4, r7, r9, asr #28
    8b8c:	58450031 	stmdapl	r5, {r0, r4, r5}^
    8b90:	5f334954 	svcpl	0x00334954
    8b94:	48515249 	ldmdami	r1, {r0, r3, r6, r9, ip, lr}^
    8b98:	6c646e61 	stclvs	14, cr6, [r4], #-388	; 0xfffffe7c
    8b9c:	45007265 	strmi	r7, [r0, #-613]	; 0xfffffd9b
    8ba0:	37495458 	smlsldcc	r5, r9, r8, r4
    8ba4:	5152495f 	cmppl	r2, pc, asr r9
    8ba8:	00333220 	eorseq	r3, r3, r0, lsr #4
    8bac:	61725f5f 	cmnvs	r2, pc, asr pc
    8bb0:	6f65676e 	svcvs	0x0065676e
    8bb4:	79742866 	ldmdbvc	r4!, {r1, r2, r5, r6, fp, sp}^
    8bb8:	732c6570 			; <UNDEFINED> instruction: 0x732c6570
    8bbc:	74726174 	ldrbtvc	r6, [r2], #-372	; 0xfffffe8c
    8bc0:	646e652c 	strbtvs	r6, [lr], #-1324	; 0xfffffad4
    8bc4:	5f282029 	svcpl	0x00282029
    8bc8:	66666f5f 	uqsaxvs	r6, r6, pc	; <UNPREDICTABLE>
    8bcc:	6f746573 	svcvs	0x00746573
    8bd0:	79742866 	ldmdbvc	r4!, {r1, r2, r5, r6, fp, sp}^
    8bd4:	202c6570 	eorcs	r6, ip, r0, ror r5
    8bd8:	29646e65 	stmdbcs	r4!, {r0, r2, r5, r6, r9, sl, fp, sp, lr}^
    8bdc:	5f202d20 	svcpl	0x00202d20
    8be0:	66666f5f 	uqsaxvs	r6, r6, pc	; <UNPREDICTABLE>
    8be4:	6f746573 	svcvs	0x00746573
    8be8:	79742866 	ldmdbvc	r4!, {r1, r2, r5, r6, fp, sp}^
    8bec:	202c6570 	eorcs	r6, ip, r0, ror r5
    8bf0:	72617473 	rsbvc	r7, r1, #1929379840	; 0x73000000
    8bf4:	00292974 	eoreq	r2, r9, r4, ror r9
    8bf8:	53555f5f 	cmppl	r5, #380	; 0x17c
    8bfc:	495f5345 	ldmdbmi	pc, {r0, r2, r6, r8, r9, ip, lr}^	; <UNPREDICTABLE>
    8c00:	4654494e 	ldrbmi	r4, [r4], -lr, asr #18
    8c04:	5f494e49 	svcpl	0x00494e49
    8c08:	0031205f 	eorseq	r2, r1, pc, asr r0
    8c0c:	544e4955 	strbpl	r4, [lr], #-2389	; 0xfffff6ab
    8c10:	28435f38 	stmdacs	r3, {r3, r4, r5, r8, r9, sl, fp, ip, lr}^
    8c14:	5f202978 	svcpl	0x00202978
    8c18:	4e49555f 	mcrmi	5, 2, r5, cr9, cr15, {2}
    8c1c:	435f3854 	cmpmi	pc, #84, 16	; 0x540000
    8c20:	00297828 	eoreq	r7, r9, r8, lsr #16
    8c24:	5f433249 	svcpl	0x00433249
    8c28:	5f315253 	svcpl	0x00315253
    8c2c:	454e5852 	strbmi	r5, [lr, #-2130]	; 0xfffff7ae
    8c30:	43324920 	teqmi	r2, #32, 18	; 0x80000
    8c34:	3152535f 	cmpcc	r2, pc, asr r3
    8c38:	4e58525f 	mrcmi	2, 2, r5, cr8, cr15, {2}
    8c3c:	734d5f45 	movtvc	r5, #57157	; 0xdf45
    8c40:	5f5f006b 	svcpl	0x005f006b
    8c44:	6465656e 	strbtvs	r6, [r5], #-1390	; 0xfffffa92
    8c48:	7274705f 	rsbsvc	r7, r4, #95	; 0x5f
    8c4c:	66666964 	strbtvs	r6, [r6], -r4, ror #18
    8c50:	4900745f 	stmdbmi	r0, {r0, r1, r2, r3, r4, r6, sl, ip, sp, lr}
    8c54:	535f4332 	cmppl	pc, #-939524096	; 0xc8000000
    8c58:	445f3252 	ldrbmi	r3, [pc], #-594	; 8c60 <_Min_Stack_Size+0x8860>
    8c5c:	464c4155 			; <UNDEFINED> instruction: 0x464c4155
    8c60:	43324920 	teqmi	r2, #32, 18	; 0x80000
    8c64:	3252535f 	subscc	r5, r2, #2080374785	; 0x7c000001
    8c68:	4155445f 	cmpmi	r5, pc, asr r4
    8c6c:	4d5f464c 	ldclmi	6, cr4, [pc, #-304]	; 8b44 <_Min_Stack_Size+0x8744>
    8c70:	5f006b73 	svcpl	0x00006b73
    8c74:	4c42445f 	cfstrdmi	mvd4, [r2], {95}	; 0x5f
    8c78:	4345445f 	movtmi	r4, #21599	; 0x545f
    8c7c:	4c414d49 	mcrrmi	13, 4, r4, r1, cr9
    8c80:	4749445f 	smlsldmi	r4, r9, pc, r4	; <UNPREDICTABLE>
    8c84:	31205f5f 			; <UNDEFINED> instruction: 0x31205f5f
    8c88:	5f5f0037 	svcpl	0x005f0037
    8c8c:	5f4d5241 	svcpl	0x004d5241
    8c90:	54414546 	strbpl	r4, [r1], #-1350	; 0xfffffaba
    8c94:	5f455255 	svcpl	0x00455255
    8c98:	20544153 	subscs	r4, r4, r3, asr r1
    8c9c:	5f5f0031 	svcpl	0x005f0031
    8ca0:	65766168 	ldrbvs	r6, [r6, #-360]!	; 0xfffffe98
    8ca4:	6e6f6c5f 	mcrvs	12, 3, r6, cr15, cr15, {2}
    8ca8:	20323367 	eorscs	r3, r2, r7, ror #6
    8cac:	4e490031 	mcrmi	0, 2, r0, cr9, cr1, {1}
    8cb0:	454c5f54 	strbmi	r5, [ip, #-3924]	; 0xfffff0ac
    8cb4:	38545341 	ldmdacc	r4, {r0, r6, r8, r9, ip, lr}^
    8cb8:	4e494d5f 	mcrmi	13, 2, r4, cr9, cr15, {2}
    8cbc:	5f2d2820 	svcpl	0x002d2820
    8cc0:	544e495f 	strbpl	r4, [lr], #-2399	; 0xfffff6a1
    8cc4:	41454c5f 	cmpmi	r5, pc, asr ip
    8cc8:	5f385453 	svcpl	0x00385453
    8ccc:	5f58414d 	svcpl	0x0058414d
    8cd0:	202d205f 	eorcs	r2, sp, pc, asr r0
    8cd4:	49002931 	stmdbmi	r0, {r0, r4, r5, r8, fp, sp}
    8cd8:	435f4332 	cmpmi	pc, #-939524096	; 0xc8000000
    8cdc:	455f3152 	ldrbmi	r3, [pc, #-338]	; 8b92 <_Min_Stack_Size+0x8792>
    8ce0:	4345504e 	movtmi	r5, #20558	; 0x504e
    8ce4:	43324920 	teqmi	r2, #32, 18	; 0x80000
    8ce8:	3152435f 	cmpcc	r2, pc, asr r3
    8cec:	504e455f 	subpl	r4, lr, pc, asr r5
    8cf0:	4d5f4345 	ldclmi	3, cr4, [pc, #-276]	; 8be4 <_Min_Stack_Size+0x87e4>
    8cf4:	5f006b73 	svcpl	0x00006b73
    8cf8:	4c4c554e 	cfstr64mi	mvdx5, [ip], {78}	; 0x4e
    8cfc:	5f003020 	svcpl	0x00003020
    8d00:	656c665f 	strbvs	r6, [ip, #-1631]!	; 0xfffff9a1
    8d04:	72726178 	rsbsvc	r6, r2, #120, 2
    8d08:	5d305b20 	vldmdbpl	r0!, {d5-d20}
    8d0c:	43324900 	teqmi	r2, #0, 18
    8d10:	3252535f 	subscc	r5, r2, #2080374785	; 0x7c000001
    8d14:	424d535f 	submi	r5, sp, #2080374785	; 0x7c000001
    8d18:	41464544 	cmpmi	r6, r4, asr #10
    8d1c:	20544c55 	subscs	r4, r4, r5, asr ip
    8d20:	5f433249 	svcpl	0x00433249
    8d24:	5f325253 	svcpl	0x00325253
    8d28:	44424d53 	strbmi	r4, [r2], #-3411	; 0xfffff2ad
    8d2c:	55414645 	strbpl	r4, [r1, #-1605]	; 0xfffff9bb
    8d30:	4d5f544c 	cfldrdmi	mvd5, [pc, #-304]	; 8c08 <_Min_Stack_Size+0x8808>
    8d34:	55006b73 	strpl	r6, [r0, #-2931]	; 0xfffff48d
    8d38:	36544e49 	ldrbcc	r4, [r4], -r9, asr #28
    8d3c:	28435f34 	stmdacs	r3, {r2, r4, r5, r8, r9, sl, fp, ip, lr}^
    8d40:	5f202978 	svcpl	0x00202978
    8d44:	4e49555f 	mcrmi	5, 2, r5, cr9, cr15, {2}
    8d48:	5f343654 	svcpl	0x00343654
    8d4c:	29782843 	ldmdbcs	r8!, {r0, r1, r6, fp, sp}^
    8d50:	495f5f00 	ldmdbmi	pc, {r8, r9, sl, fp, ip, lr}^	; <UNPREDICTABLE>
    8d54:	3631544e 	ldrtcc	r5, [r1], -lr, asr #8
    8d58:	58414d5f 	stmdapl	r1, {r0, r1, r2, r3, r4, r6, r8, sl, fp, lr}^
    8d5c:	30205f5f 	eorcc	r5, r0, pc, asr pc
    8d60:	66663778 			; <UNDEFINED> instruction: 0x66663778
    8d64:	5f5f0066 	svcpl	0x005f0066
    8d68:	5f535953 	svcpl	0x00535953
    8d6c:	464e4f43 	strbmi	r4, [lr], -r3, asr #30
    8d70:	485f4749 	ldmdami	pc, {r0, r3, r6, r8, r9, sl, lr}^	; <UNPREDICTABLE>
    8d74:	00205f5f 	eoreq	r5, r0, pc, asr pc
    8d78:	43475f5f 	movtmi	r5, #32607	; 0x7f5f
    8d7c:	54415f43 	strbpl	r5, [r1], #-3907	; 0xfffff0bd
    8d80:	43494d4f 	movtmi	r4, #40271	; 0x9d4f
    8d84:	4148435f 	cmpmi	r8, pc, asr r3
    8d88:	4f4c5f52 	svcmi	0x004c5f52
    8d8c:	465f4b43 	ldrbmi	r4, [pc], -r3, asr #22
    8d90:	20454552 	subcs	r4, r5, r2, asr r5
    8d94:	32490032 	subcc	r0, r9, #50	; 0x32
    8d98:	52535f43 	subspl	r5, r3, #268	; 0x10c
    8d9c:	52415f31 	subpl	r5, r1, #49, 30	; 0xc4
    8da0:	505f4f4c 	subspl	r4, pc, ip, asr #30
    8da4:	2820736f 	stmdacs	r0!, {r0, r1, r2, r3, r5, r6, r8, r9, ip, sp, lr}
    8da8:	00295539 	eoreq	r5, r9, r9, lsr r5
    8dac:	45445f5f 	strbmi	r5, [r4, #-3935]	; 0xfffff0a1
    8db0:	414c4f56 	cmpmi	ip, r6, asr pc
    8db4:	454c4954 	strbmi	r4, [ip, #-2388]	; 0xfffff6ac
    8db8:	70797428 	rsbsvc	r7, r9, r8, lsr #8
    8dbc:	61762c65 	cmnvs	r6, r5, ror #24
    8dc0:	28202972 	stmdacs	r0!, {r1, r4, r5, r6, r8, fp, sp}
    8dc4:	70797428 	rsbsvc	r7, r9, r8, lsr #8
    8dc8:	5f282965 	svcpl	0x00282965
    8dcc:	6e69755f 	mcrvs	5, 3, r7, cr9, cr15, {2}
    8dd0:	72747074 	rsbsvc	r7, r4, #116	; 0x74
    8dd4:	2829745f 	stmdacs	r9!, {r0, r1, r2, r3, r4, r6, sl, ip, sp, lr}
    8dd8:	616c6f76 	smcvs	50934	; 0xc6f6
    8ddc:	656c6974 	strbvs	r6, [ip, #-2420]!	; 0xfffff68c
    8de0:	696f7620 	stmdbvs	pc!, {r5, r9, sl, ip, sp, lr}^	; <UNPREDICTABLE>
    8de4:	292a2064 	stmdbcs	sl!, {r2, r5, r6, sp}
    8de8:	72617628 	rsbvc	r7, r1, #40, 12	; 0x2800000
    8dec:	47002929 	strmi	r2, [r0, -r9, lsr #18]
    8df0:	5f4f4950 	svcpl	0x004f4950
    8df4:	5f4e4950 	svcpl	0x004e4950
    8df8:	28203531 	stmdacs	r0!, {r0, r4, r5, r8, sl, ip, sp}
    8dfc:	6e697528 	cdpvs	5, 6, cr7, cr9, cr8, {1}
    8e00:	5f363174 	svcpl	0x00363174
    8e04:	78302974 	ldmdavc	r0!, {r2, r4, r5, r6, r8, fp, sp}
    8e08:	30303038 	eorscc	r3, r0, r8, lsr r0
    8e0c:	5f5f0029 	svcpl	0x005f0029
    8e10:	5f505353 	svcpl	0x00505353
    8e14:	54524f46 	ldrbpl	r4, [r2], #-3910	; 0xfffff0ba
    8e18:	5f594649 	svcpl	0x00594649
    8e1c:	4556454c 	ldrbmi	r4, [r6, #-1356]	; 0xfffffab4
    8e20:	0030204c 	eorseq	r2, r0, ip, asr #32
    8e24:	4e475f5f 	mcrmi	15, 2, r5, cr7, cr15, {2}
    8e28:	494c4355 	stmdbmi	ip, {r0, r2, r4, r6, r8, r9, lr}^
    8e2c:	425f454b 	subsmi	r4, pc, #314572800	; 0x12c00000
    8e30:	544c4955 	strbpl	r4, [ip], #-2389	; 0xfffff6ab
    8e34:	535f4e49 	cmppl	pc, #1168	; 0x490
    8e38:	52414454 	subpl	r4, r1, #84, 8	; 0x54000000
    8e3c:	00312047 	eorseq	r2, r1, r7, asr #32
    8e40:	5f433249 	svcpl	0x00433249
    8e44:	5f315243 	svcpl	0x00315243
    8e48:	5f534f50 	svcpl	0x00534f50
    8e4c:	206b734d 	rsbcs	r7, fp, sp, asr #6
    8e50:	31783028 	cmncc	r8, r8, lsr #32
    8e54:	3c204c55 	stccc	12, cr4, [r0], #-340	; 0xfffffeac
    8e58:	3249203c 	subcc	r2, r9, #60	; 0x3c
    8e5c:	52435f43 	subpl	r5, r3, #268	; 0x10c
    8e60:	4f505f31 	svcmi	0x00505f31
    8e64:	6f505f53 	svcvs	0x00505f53
    8e68:	5f002973 	svcpl	0x00002973
    8e6c:	4953585f 	ldmdbmi	r3, {r0, r1, r2, r3, r4, r6, fp, ip, lr}^
    8e70:	5349565f 	movtpl	r5, #38495	; 0x965f
    8e74:	454c4249 	strbmi	r4, [ip, #-585]	; 0xfffffdb7
    8e78:	5f003020 	svcpl	0x00003020
    8e7c:	4c445453 	cfstrdmi	mvd5, [r4], {83}	; 0x53
    8e80:	485f4249 	ldmdami	pc, {r0, r3, r6, r9, lr}^	; <UNPREDICTABLE>
    8e84:	4100205f 	qaddmi	r2, pc, r0	; <UNPREDICTABLE>
    8e88:	5f4f4946 	svcpl	0x004f4946
    8e8c:	49545845 	ldmdbmi	r4, {r0, r2, r6, fp, ip, lr}^
    8e90:	695f5243 	ldmdbvs	pc, {r0, r1, r6, r9, ip, lr}^	; <UNPREDICTABLE>
    8e94:	7865646e 	stmdavc	r5!, {r1, r2, r3, r5, r6, sl, sp, lr}^
    8e98:	43324900 	teqmi	r2, #0, 18
    8e9c:	3252435f 	subscc	r4, r2, #2080374785	; 0x7c000001
    8ea0:	4552465f 	ldrbmi	r4, [r2, #-1631]	; 0xfffff9a1
    8ea4:	734d5f51 	movtvc	r5, #57169	; 0xdf51
    8ea8:	3028206b 	eorcc	r2, r8, fp, rrx
    8eac:	55463378 	strbpl	r3, [r6, #-888]	; 0xfffffc88
    8eb0:	3c3c204c 	ldccc	0, cr2, [ip], #-304	; 0xfffffed0
    8eb4:	43324920 	teqmi	r2, #32, 18	; 0x80000
    8eb8:	3252435f 	subscc	r4, r2, #2080374785	; 0x7c000001
    8ebc:	4552465f 	ldrbmi	r4, [r2, #-1631]	; 0xfffff9a1
    8ec0:	6f505f51 	svcvs	0x00505f51
    8ec4:	42002973 	andmi	r2, r0, #1884160	; 0x1cc000
    8ec8:	00525253 	subseq	r5, r2, r3, asr r2
    8ecc:	4545525f 	strbmi	r5, [r5, #-607]	; 0xfffffda1
    8ed0:	495f544e 	ldmdbmi	pc, {r1, r2, r3, r6, sl, ip, lr}^	; <UNPREDICTABLE>
    8ed4:	5f54494e 	svcpl	0x0054494e
    8ed8:	45534552 	ldrbmi	r4, [r3, #-1362]	; 0xfffffaae
    8edc:	44455652 	strbmi	r5, [r5], #-1618	; 0xfffff9ae
    8ee0:	0020325f 	eoreq	r3, r0, pc, asr r2
    8ee4:	41465f5f 	cmpmi	r6, pc, asr pc
    8ee8:	32335453 	eorscc	r5, r3, #1392508928	; 0x53000000
    8eec:	5f5f0020 	svcpl	0x005f0020
    8ef0:	5f474953 	svcpl	0x00474953
    8ef4:	4d4f5441 	cfstrdmi	mvd5, [pc, #-260]	; 8df8 <_Min_Stack_Size+0x89f8>
    8ef8:	575f4349 	ldrbpl	r4, [pc, -r9, asr #6]
    8efc:	48544449 	ldmdami	r4, {r0, r3, r6, sl, lr}^
    8f00:	33205f5f 			; <UNDEFINED> instruction: 0x33205f5f
    8f04:	5f5f0032 	svcpl	0x005f0032
    8f08:	36544c46 	ldrbcc	r4, [r4], -r6, asr #24
    8f0c:	50455f34 	subpl	r5, r5, r4, lsr pc
    8f10:	4f4c4953 	svcmi	0x004c4953
    8f14:	205f5f4e 	subscs	r5, pc, lr, asr #30
    8f18:	32322e32 	eorscc	r2, r2, #800	; 0x320
    8f1c:	36343430 			; <UNDEFINED> instruction: 0x36343430
    8f20:	32393430 	eorscc	r3, r9, #48, 8	; 0x30000000
    8f24:	31333035 	teqcc	r3, r5, lsr r0
    8f28:	2d653133 	stfcse	f3, [r5, #-204]!	; 0xffffff34
    8f2c:	36463631 			; <UNDEFINED> instruction: 0x36463631
    8f30:	32490034 	subcc	r0, r9, #52	; 0x34
    8f34:	52535f43 	subspl	r5, r3, #268	; 0x10c
    8f38:	44415f31 	strbmi	r5, [r1], #-3889	; 0xfffff0cf
    8f3c:	5f303144 	svcpl	0x00303144
    8f40:	20736f50 	rsbscs	r6, r3, r0, asr pc
    8f44:	29553328 	ldmdbcs	r5, {r3, r5, r8, r9, ip, sp}^
    8f48:	54584500 	ldrbpl	r4, [r8], #-1280	; 0xfffffb00
    8f4c:	495f3049 	ldmdbmi	pc, {r0, r3, r6, ip, sp}^	; <UNPREDICTABLE>
    8f50:	61485152 	cmpvs	r8, r2, asr r1
    8f54:	656c646e 	strbvs	r6, [ip, #-1134]!	; 0xfffffb92
    8f58:	5f5f0072 	svcpl	0x005f0072
    8f5c:	5f415455 	svcpl	0x00415455
    8f60:	54494249 	strbpl	r4, [r9], #-585	; 0xfffffdb7
    8f64:	36205f5f 	qsaxcc	r5, r0, pc	; <UNPREDICTABLE>
    8f68:	5f5f0034 	svcpl	0x005f0034
    8f6c:	414c4c55 	cmpmi	ip, r5, asr ip
    8f70:	4d554343 	ldclmi	3, cr4, [r5, #-268]	; 0xfffffef4
    8f74:	4942495f 	stmdbmi	r2, {r0, r1, r2, r3, r4, r6, r8, fp, lr}^
    8f78:	205f5f54 	subscs	r5, pc, r4, asr pc	; <UNPREDICTABLE>
    8f7c:	49003233 	stmdbmi	r0, {r0, r1, r4, r5, r9, ip, sp}
    8f80:	535f4332 	cmppl	pc, #-939524096	; 0xc8000000
    8f84:	415f3152 	cmpmi	pc, r2, asr r1	; <UNPREDICTABLE>
    8f88:	32492046 	subcc	r2, r9, #70	; 0x46
    8f8c:	52535f43 	subspl	r5, r3, #268	; 0x10c
    8f90:	46415f31 			; <UNDEFINED> instruction: 0x46415f31
    8f94:	6b734d5f 	blvs	1cdc518 <_Min_Stack_Size+0x1cdc118>
    8f98:	415f5f00 	cmpmi	pc, r0, lsl #30
    8f9c:	465f4d52 			; <UNDEFINED> instruction: 0x465f4d52
    8fa0:	55544145 	ldrbpl	r4, [r4, #-325]	; 0xfffffebb
    8fa4:	435f4552 	cmpmi	pc, #343932928	; 0x14800000
    8fa8:	32334352 	eorscc	r4, r3, #1207959553	; 0x48000001
    8fac:	735f5f00 	cmpvc	pc, #0, 30
    8fb0:	6e6f7274 	mcrvs	2, 3, r7, cr15, cr4, {3}
    8fb4:	65725f67 	ldrbvs	r5, [r2, #-3943]!	; 0xfffff099
    8fb8:	65726566 	ldrbvs	r6, [r2, #-1382]!	; 0xfffffa9a
    8fbc:	2865636e 	stmdacs	r5!, {r1, r2, r3, r5, r6, r8, r9, sp, lr}^
    8fc0:	2c6d7973 			; <UNDEFINED> instruction: 0x2c6d7973
    8fc4:	61696c61 	cmnvs	r9, r1, ror #24
    8fc8:	6d797373 	ldclvs	3, cr7, [r9, #-460]!	; 0xfffffe34
    8fcc:	78652029 	stmdavc	r5!, {r0, r3, r5, sp}^
    8fd0:	6e726574 	mrcvs	5, 3, r6, cr2, cr4, {3}
    8fd4:	745f5f20 	ldrbvc	r5, [pc], #-3872	; 8fdc <_Min_Stack_Size+0x8bdc>
    8fd8:	6f657079 	svcvs	0x00657079
    8fdc:	73282066 			; <UNDEFINED> instruction: 0x73282066
    8fe0:	20296d79 	eorcs	r6, r9, r9, ror sp
    8fe4:	61696c61 	cmnvs	r9, r1, ror #24
    8fe8:	6d797373 	ldclvs	3, cr7, [r9, #-460]!	; 0xfffffe34
    8fec:	615f5f20 	cmpvs	pc, r0, lsr #30
    8ff0:	69727474 	ldmdbvs	r2!, {r2, r4, r5, r6, sl, ip, sp, lr}^
    8ff4:	65747562 	ldrbvs	r7, [r4, #-1378]!	; 0xfffffa9e
    8ff8:	28205f5f 	stmdacs	r0!, {r0, r1, r2, r3, r4, r6, r8, r9, sl, fp, ip, lr}
    8ffc:	615f5f28 	cmpvs	pc, r8, lsr #30
    9000:	7361696c 	cmnvc	r1, #108, 18	; 0x1b0000
    9004:	28205f5f 	stmdacs	r0!, {r0, r1, r2, r3, r4, r6, r8, r9, sl, fp, ip, lr}
    9008:	6d797323 	ldclvs	3, cr7, [r9, #-140]!	; 0xffffff74
    900c:	00292929 	eoreq	r2, r9, r9, lsr #18
    9010:	49545845 	ldmdbmi	r4, {r0, r2, r6, fp, ip, lr}^
    9014:	37425037 	smlaldxcc	r5, r2, r7, r0
    9018:	58452820 	stmdapl	r5, {r5, fp, sp}^
    901c:	475f4954 			; <UNDEFINED> instruction: 0x475f4954
    9020:	5f4f4950 	svcpl	0x004f4950
    9024:	6970614d 	ldmdbvs	r0!, {r0, r2, r3, r6, r8, sp, lr}^
    9028:	745f676e 	ldrbvc	r6, [pc], #-1902	; 9030 <_Min_Stack_Size+0x8c30>
    902c:	58457b29 	stmdapl	r5, {r0, r3, r5, r8, r9, fp, ip, sp, lr}^
    9030:	2c374954 			; <UNDEFINED> instruction: 0x2c374954
    9034:	49504720 	ldmdbmi	r0, {r5, r8, r9, sl, lr}^
    9038:	202c424f 	eorcs	r4, ip, pc, asr #4
    903c:	4f495047 	svcmi	0x00495047
    9040:	4e49505f 	mcrmi	0, 2, r5, cr9, cr15, {2}
    9044:	202c375f 	eorcs	r3, ip, pc, asr r7
    9048:	49545845 	ldmdbmi	r4, {r0, r2, r6, fp, ip, lr}^
    904c:	52495f37 	subpl	r5, r9, #55, 30	; 0xdc
    9050:	5f007d51 	svcpl	0x00007d51
    9054:	4c4c555f 	cfstr64mi	mvdx5, [ip], {95}	; 0x5f
    9058:	43415246 	movtmi	r5, #4678	; 0x1246
    905c:	50455f54 	subpl	r5, r5, r4, asr pc
    9060:	4f4c4953 	svcmi	0x004c4953
    9064:	205f5f4e 	subscs	r5, pc, lr, asr #30
    9068:	50317830 	eorspl	r7, r1, r0, lsr r8
    906c:	5534362d 	ldrpl	r3, [r4, #-1581]!	; 0xfffff9d3
    9070:	00524c4c 	subseq	r4, r2, ip, asr #24
    9074:	6e755f5f 	mrcvs	15, 3, r5, cr5, cr15, {2}
    9078:	63616572 	cmnvs	r1, #478150656	; 0x1c800000
    907c:	6c626168 	stfvse	f6, [r2], #-416	; 0xfffffe60
    9080:	20292865 	eorcs	r2, r9, r5, ror #16
    9084:	75625f5f 	strbvc	r5, [r2, #-3935]!	; 0xfffff0a1
    9088:	69746c69 	ldmdbvs	r4!, {r0, r3, r5, r6, sl, fp, sp, lr}^
    908c:	6e755f6e 	cdpvs	15, 7, cr5, cr5, cr14, {3}
    9090:	63616572 	cmnvs	r1, #478150656	; 0x1c800000
    9094:	6c626168 	stfvse	f6, [r2], #-416	; 0xfffffe60
    9098:	00292865 	eoreq	r2, r9, r5, ror #16
    909c:	4f495047 	svcmi	0x00495047
    90a0:	4550535f 	ldrbmi	r5, [r0, #-863]	; 0xfffffca1
    90a4:	325f4445 	subscc	r4, pc, #1157627904	; 0x45000000
    90a8:	7830204d 	ldmdavc	r0!, {r0, r2, r3, r6, sp}
    90ac:	30303030 	eorscc	r3, r0, r0, lsr r0
    90b0:	32303030 	eorscc	r3, r0, #48	; 0x30
    90b4:	5f5f0055 	svcpl	0x005f0055
    90b8:	455a4953 	ldrbmi	r4, [sl, #-2387]	; 0xfffff6ad
    90bc:	575f464f 	ldrbpl	r4, [pc, -pc, asr #12]
    90c0:	5f544e49 	svcpl	0x00544e49
    90c4:	205f5f54 	subscs	r5, pc, r4, asr pc	; <UNPREDICTABLE>
    90c8:	32490034 	subcc	r0, r9, #52	; 0x34
    90cc:	52535f43 	subspl	r5, r3, #268	; 0x10c
    90d0:	44415f31 	strbmi	r5, [r1], #-3889	; 0xfffff0cf
    90d4:	49205244 	stmdbmi	r0!, {r2, r6, r9, ip, lr}
    90d8:	535f4332 	cmppl	pc, #-939524096	; 0xc8000000
    90dc:	415f3152 	cmpmi	pc, r2, asr r1	; <UNPREDICTABLE>
    90e0:	5f524444 	svcpl	0x00524444
    90e4:	006b734d 	rsbeq	r7, fp, sp, asr #6
    90e8:	52415f5f 	subpl	r5, r1, #380	; 0x17c
    90ec:	45465f4d 	strbmi	r5, [r6, #-3917]	; 0xfffff0b3
    90f0:	52555441 	subspl	r5, r5, #1090519040	; 0x41000000
    90f4:	4e555f45 	cdpmi	15, 5, cr5, cr5, cr5, {2}
    90f8:	47494c41 	strbmi	r4, [r9, -r1, asr #24]
    90fc:	2044454e 	subcs	r4, r4, lr, asr #10
    9100:	5f5f0031 	svcpl	0x005f0031
    9104:	43445453 	movtmi	r5, #17491	; 0x4453
    9108:	31205f5f 			; <UNDEFINED> instruction: 0x31205f5f
    910c:	4c5f5f00 	mrrcmi	15, 0, r5, pc, cr0	; <UNPREDICTABLE>
    9110:	5f4c4244 	svcpl	0x004c4244
    9114:	49434544 	stmdbmi	r3, {r2, r6, r8, sl, lr}^
    9118:	5f4c414d 	svcpl	0x004c414d
    911c:	5f474944 	svcpl	0x00474944
    9120:	3731205f 			; <UNDEFINED> instruction: 0x3731205f
    9124:	555f5f00 	ldrbpl	r5, [pc, #-3840]	; 822c <_Min_Stack_Size+0x7e2c>
    9128:	495f4153 	ldmdbmi	pc, {r0, r1, r4, r6, r8, lr}^	; <UNPREDICTABLE>
    912c:	5f544942 	svcpl	0x00544942
    9130:	3631205f 			; <UNDEFINED> instruction: 0x3631205f
    9134:	475f5f00 	ldrbmi	r5, [pc, -r0, lsl #30]
    9138:	4c43554e 	cfstr64mi	mvdx5, [r3], {78}	; 0x4e
    913c:	5f454b49 	svcpl	0x00454b49
    9140:	204d5341 	subcs	r5, sp, r1, asr #6
    9144:	5f5f0033 	svcpl	0x005f0033
    9148:	4343414c 	movtmi	r4, #12620	; 0x314c
    914c:	4d5f4d55 	ldclmi	13, cr4, [pc, #-340]	; 9000 <_Min_Stack_Size+0x8c00>
    9150:	5f5f4e49 	svcpl	0x005f4e49
    9154:	302d2820 	eorcc	r2, sp, r0, lsr #16
    9158:	33503158 	cmpcc	r0, #88, 2
    915c:	2d4b4c31 	stclcs	12, cr4, [fp, #-196]	; 0xffffff3c
    9160:	50315830 	eorspl	r5, r1, r0, lsr r8
    9164:	4b4c3133 	blmi	1315638 <_Min_Stack_Size+0x1315238>
    9168:	5f5f0029 	svcpl	0x005f0029
    916c:	5f544e49 	svcpl	0x00544e49
    9170:	54534146 	ldrbpl	r4, [r3], #-326	; 0xfffffeba
    9174:	414d5f38 	cmpmi	sp, r8, lsr pc
    9178:	205f5f58 	subscs	r5, pc, r8, asr pc	; <UNPREDICTABLE>
    917c:	66377830 			; <UNDEFINED> instruction: 0x66377830
    9180:	66666666 	strbtvs	r6, [r6], -r6, ror #12
    9184:	5f006666 	svcpl	0x00006666
    9188:	544c465f 	strbpl	r4, [ip], #-1631	; 0xfffff9a1
    918c:	485f3233 	ldmdami	pc, {r0, r1, r4, r5, r9, ip, sp}^	; <UNPREDICTABLE>
    9190:	445f5341 	ldrbmi	r5, [pc], #-833	; 9198 <_Min_Stack_Size+0x8d98>
    9194:	524f4e45 	subpl	r4, pc, #1104	; 0x450
    9198:	205f5f4d 	subscs	r5, pc, sp, asr #30
    919c:	5f5f0031 	svcpl	0x005f0031
    91a0:	6e616373 	mcrvs	3, 3, r6, cr1, cr3, {3}
    91a4:	6b696c66 	blvs	1a64344 <_Min_Stack_Size+0x1a63f44>
    91a8:	6d662865 	stclvs	8, cr2, [r6, #-404]!	; 0xfffffe6c
    91ac:	67726174 			; <UNDEFINED> instruction: 0x67726174
    91b0:	7269662c 	rsbvc	r6, r9, #44, 12	; 0x2c00000
    91b4:	61767473 	cmnvs	r6, r3, ror r4
    91b8:	67726172 			; <UNDEFINED> instruction: 0x67726172
    91bc:	5f5f2029 	svcpl	0x005f2029
    91c0:	72747461 	rsbsvc	r7, r4, #1627389952	; 0x61000000
    91c4:	74756269 	ldrbtvc	r6, [r5], #-617	; 0xfffffd97
    91c8:	285f5f65 	ldmdacs	pc, {r0, r2, r5, r6, r8, r9, sl, fp, ip, lr}^	; <UNPREDICTABLE>
    91cc:	665f5f28 	ldrbvs	r5, [pc], -r8, lsr #30
    91d0:	616d726f 	cmnvs	sp, pc, ror #4
    91d4:	205f5f74 	subscs	r5, pc, r4, ror pc	; <UNPREDICTABLE>
    91d8:	735f5f28 	cmpvc	pc, #40, 30	; 0xa0
    91dc:	666e6163 	strbtvs	r6, [lr], -r3, ror #2
    91e0:	202c5f5f 	eorcs	r5, ip, pc, asr pc
    91e4:	61746d66 	cmnvs	r4, r6, ror #26
    91e8:	202c6772 	eorcs	r6, ip, r2, ror r7
    91ec:	73726966 	cmnvc	r2, #1671168	; 0x198000
    91f0:	72617674 	rsbvc	r7, r1, #116, 12	; 0x7400000
    91f4:	29677261 	stmdbcs	r7!, {r0, r5, r6, r9, ip, sp, lr}^
    91f8:	5f002929 	svcpl	0x00002929
    91fc:	4e454552 	mcrmi	5, 2, r4, cr5, cr2, {2}
    9200:	4d535f54 	ldclmi	15, cr5, [r3, #-336]	; 0xfffffeb0
    9204:	204c4c41 	subcs	r4, ip, r1, asr #24
    9208:	555f5f00 	ldrbpl	r5, [pc, #-3840]	; 8310 <_Min_Stack_Size+0x7f10>
    920c:	43414c4c 	movtmi	r4, #7244	; 0x1c4c
    9210:	5f4d5543 	svcpl	0x004d5543
    9214:	5f4e494d 	svcpl	0x004e494d
    9218:	2e30205f 	mrccs	0, 1, r2, cr0, cr15, {2}
    921c:	4c4c5530 	cfstr64mi	mvdx5, [ip], {48}	; 0x30
    9220:	535f004b 	cmppl	pc, #75	; 0x4b
    9224:	5f5f5359 	svcpl	0x005f5359
    9228:	45505954 	ldrbmi	r5, [r0, #-2388]	; 0xfffff6ac
    922c:	20485f53 	subcs	r5, r8, r3, asr pc
    9230:	54415f00 	strbpl	r5, [r1], #-3840	; 0xfffff100
    9234:	54495845 	strbpl	r5, [r9], #-2117	; 0xfffff7bb
    9238:	494e495f 	stmdbmi	lr, {r0, r1, r2, r3, r4, r6, r8, fp, lr}^
    923c:	5f7b2054 	svcpl	0x007b2054
    9240:	4c4c554e 	cfstr64mi	mvdx5, [ip], {78}	; 0x4e
    9244:	2c30202c 	ldccs	0, cr2, [r0], #-176	; 0xffffff50
    9248:	4e5f7b20 	vnmlsmi.f64	d23, d15, d16
    924c:	7d4c4c55 	stclvc	12, cr4, [ip, #-340]	; 0xfffffeac
    9250:	4e5f202c 	cdpmi	0, 5, cr2, cr15, cr12, {1}
    9254:	7d4c4c55 	stclvc	12, cr4, [ip, #-340]	; 0xfffffeac
    9258:	5f5f5f00 	svcpl	0x005f5f00
    925c:	5f746e69 	svcpl	0x00746e69
    9260:	61686377 	smcvs	34359	; 0x8637
    9264:	5f745f72 	svcpl	0x00745f72
    9268:	47002068 	strmi	r2, [r0, -r8, rrx]
    926c:	5f4f4950 	svcpl	0x004f4950
    9270:	5f4e4950 	svcpl	0x004e4950
    9274:	28282034 	stmdacs	r8!, {r2, r4, r5, sp}
    9278:	746e6975 	strbtvc	r6, [lr], #-2421	; 0xfffff68b
    927c:	745f3631 	ldrbvc	r3, [pc], #-1585	; 9284 <_Min_Stack_Size+0x8e84>
    9280:	30783029 	rsbscc	r3, r8, r9, lsr #32
    9284:	29303130 	ldmdbcs	r0!, {r4, r5, r8, ip, sp}
    9288:	45525f00 	ldrbmi	r5, [r2, #-3840]	; 0xfffff100
    928c:	5f544e45 	svcpl	0x00544e45
    9290:	42545643 	subsmi	r5, r4, #70254592	; 0x4300000
    9294:	5f284655 	svcpl	0x00284655
    9298:	29727470 	ldmdbcs	r2!, {r4, r5, r6, sl, ip, sp, lr}^
    929c:	5f282820 	svcpl	0x00282820
    92a0:	29727470 	ldmdbcs	r2!, {r4, r5, r6, sl, ip, sp, lr}^
    92a4:	635f3e2d 	cmpvs	pc, #720	; 0x2d0
    92a8:	75627476 	strbvc	r7, [r2, #-1142]!	; 0xfffffb8a
    92ac:	45002966 	strmi	r2, [r0, #-2406]	; 0xfffff69a
    92b0:	00524356 	subseq	r4, r2, r6, asr r3
    92b4:	57454e5f 	smlsldpl	r4, r5, pc, lr	; <UNPREDICTABLE>
    92b8:	5f42494c 	svcpl	0x0042494c
    92bc:	4f4c4c41 	svcmi	0x004c4c41
    92c0:	485f4143 	ldmdami	pc, {r0, r1, r6, r8, lr}^	; <UNPREDICTABLE>
    92c4:	5f5f0020 	svcpl	0x005f0020
    92c8:	33544e49 	cmpcc	r4, #1168	; 0x490
    92cc:	6c222032 	stcvs	0, cr2, [r2], #-200	; 0xffffff38
    92d0:	5f5f0022 	svcpl	0x005f0022
    92d4:	5f4d5241 	svcpl	0x004d5241
    92d8:	5f4d5341 	svcpl	0x004d5341
    92dc:	544e5953 	strbpl	r5, [lr], #-2387	; 0xfffff6ad
    92e0:	555f5841 	ldrbpl	r5, [pc, #-2113]	; 8aa7 <_Min_Stack_Size+0x86a7>
    92e4:	4946494e 	stmdbmi	r6, {r1, r2, r3, r6, r8, fp, lr}^
    92e8:	5f5f4445 	svcpl	0x005f4445
    92ec:	47003120 	strmi	r3, [r0, -r0, lsr #2]
    92f0:	5f4f4950 	svcpl	0x004f4950
    92f4:	45444f4d 	strbmi	r4, [r4, #-3917]	; 0xfffff0b3
    92f8:	504e495f 	subpl	r4, lr, pc, asr r9
    92fc:	465f5455 			; <UNDEFINED> instruction: 0x465f5455
    9300:	30204f4c 	eorcc	r4, r0, ip, asr #30
    9304:	30303078 	eorscc	r3, r0, r8, ror r0
    9308:	30303030 	eorscc	r3, r0, r0, lsr r0
    930c:	73005531 	movwvc	r5, #1329	; 0x531
    9310:	6f747274 	svcvs	0x00747274
    9314:	73206664 			; <UNDEFINED> instruction: 0x73206664
    9318:	6f747274 	svcvs	0x00747274
    931c:	32490066 	subcc	r0, r9, #102	; 0x66
    9320:	52535f43 	subspl	r5, r3, #268	; 0x10c
    9324:	55425f32 	strbpl	r5, [r2, #-3890]	; 0xfffff0ce
    9328:	4d5f5953 	vldrmi.16	s11, [pc, #-166]	; 928a <_Min_Stack_Size+0x8e8a>	; <UNPREDICTABLE>
    932c:	28206b73 	stmdacs	r0!, {r0, r1, r4, r5, r6, r8, r9, fp, sp, lr}
    9330:	55317830 	ldrpl	r7, [r1, #-2096]!	; 0xfffff7d0
    9334:	3c3c204c 	ldccc	0, cr2, [ip], #-304	; 0xfffffed0
    9338:	43324920 	teqmi	r2, #32, 18	; 0x80000
    933c:	3252535f 	subscc	r5, r2, #2080374785	; 0x7c000001
    9340:	5355425f 	cmppl	r5, #-268435451	; 0xf0000005
    9344:	6f505f59 	svcvs	0x00505f59
    9348:	5f002973 	svcpl	0x00002973
    934c:	4e49555f 	mcrmi	5, 2, r5, cr9, cr15, {2}
    9350:	5f323354 	svcpl	0x00323354
    9354:	45505954 	ldrbmi	r5, [r0, #-2388]	; 0xfffff6ac
    9358:	6c205f5f 	stcvs	15, cr5, [r0], #-380	; 0xfffffe84
    935c:	20676e6f 	rsbcs	r6, r7, pc, ror #28
    9360:	69736e75 	ldmdbvs	r3!, {r0, r2, r4, r5, r6, r9, sl, fp, sp, lr}^
    9364:	64656e67 	strbtvs	r6, [r5], #-3687	; 0xfffff199
    9368:	746e6920 	strbtvc	r6, [lr], #-2336	; 0xfffff6e0
    936c:	415f5f00 	cmpmi	pc, r0, lsl #30
    9370:	465f4d52 			; <UNDEFINED> instruction: 0x465f4d52
    9374:	55544145 	ldrbpl	r4, [r4, #-325]	; 0xfffffebb
    9378:	445f4552 	ldrbmi	r4, [pc], #-1362	; 9380 <_Min_Stack_Size+0x8f80>
    937c:	5250544f 	subspl	r5, r0, #1325400064	; 0x4f000000
    9380:	5f00444f 	svcpl	0x0000444f
    9384:	7568745f 	strbvc	r7, [r8, #-1119]!	; 0xfffffba1
    9388:	5f32626d 	svcpl	0x0032626d
    938c:	0031205f 	eorseq	r2, r1, pc, asr r0
    9390:	544e4955 	strbpl	r4, [lr], #-2389	; 0xfffff6ab
    9394:	4d5f3631 	ldclmi	6, cr3, [pc, #-196]	; 92d8 <_Min_Stack_Size+0x8ed8>
    9398:	28205841 	stmdacs	r0!, {r0, r6, fp, ip, lr}
    939c:	49555f5f 	ldmdbmi	r5, {r0, r1, r2, r3, r4, r6, r8, r9, sl, fp, ip, lr}^
    93a0:	3631544e 	ldrtcc	r5, [r1], -lr, asr #8
    93a4:	58414d5f 	stmdapl	r1, {r0, r1, r2, r3, r4, r6, r8, sl, fp, lr}^
    93a8:	00295f5f 	eoreq	r5, r9, pc, asr pc
    93ac:	4645445f 			; <UNDEFINED> instruction: 0x4645445f
    93b0:	544c5541 	strbpl	r5, [ip], #-1345	; 0xfffffabf
    93b4:	554f535f 	strbpl	r5, [pc, #-863]	; 905d <_Min_Stack_Size+0x8c5d>
    93b8:	00454352 	subeq	r4, r5, r2, asr r3
    93bc:	43475f5f 	movtmi	r5, #32607	; 0x7f5f
    93c0:	41485f43 	cmpmi	r8, r3, asr #30
    93c4:	535f4556 	cmppl	pc, #360710144	; 0x15800000
    93c8:	5f434e59 	svcpl	0x00434e59
    93cc:	504d4f43 	subpl	r4, sp, r3, asr #30
    93d0:	5f455241 	svcpl	0x00455241
    93d4:	5f444e41 	svcpl	0x00444e41
    93d8:	50415753 	subpl	r5, r1, r3, asr r7
    93dc:	3120325f 			; <UNDEFINED> instruction: 0x3120325f
    93e0:	6f687300 	svcvs	0x00687300
    93e4:	2b207472 	blcs	8265b4 <_Min_Stack_Size+0x8261b4>
    93e8:	475f0031 	smmlarmi	pc, r1, r0, r0	; <UNPREDICTABLE>
    93ec:	535f4343 	cmppl	pc, #201326593	; 0xc000001
    93f0:	5f455a49 	svcpl	0x00455a49
    93f4:	45002054 	strmi	r2, [r0, #-84]	; 0xffffffac
    93f8:	31495458 	cmpcc	r9, r8, asr r4
    93fc:	30315f35 	eorscc	r5, r1, r5, lsr pc
    9400:	5152495f 	cmppl	r2, pc, asr r9
    9404:	646e6148 	strbtvs	r6, [lr], #-328	; 0xfffffeb8
    9408:	0072656c 	rsbseq	r6, r2, ip, ror #10
    940c:	43435f5f 	movtmi	r5, #16223	; 0x3f5f
    9410:	5055535f 	subspl	r5, r5, pc, asr r3
    9414:	54524f50 	ldrbpl	r4, [r2], #-3920	; 0xfffff0b0
    9418:	41575f53 	cmpmi	r7, r3, asr pc
    941c:	4e494e52 	mcrmi	14, 2, r4, cr9, cr2, {2}
    9420:	00312047 	eorseq	r2, r1, r7, asr #32
    9424:	49575f5f 	ldmdbmi	r7, {r0, r1, r2, r3, r4, r6, r8, r9, sl, fp, ip, lr}^
    9428:	575f544e 	ldrbpl	r5, [pc, -lr, asr #8]
    942c:	48544449 	ldmdami	r4, {r0, r3, r6, sl, lr}^
    9430:	33205f5f 			; <UNDEFINED> instruction: 0x33205f5f
    9434:	5f5f0032 	svcpl	0x005f0032
    9438:	6b636f6c 	blvs	18e51f0 <_Min_Stack_Size+0x18e4df0>
    943c:	6f6c635f 	svcvs	0x006c635f
    9440:	6c286573 	cfstr32vs	mvfx6, [r8], #-460	; 0xfffffe34
    9444:	296b636f 	stmdbcs	fp!, {r0, r1, r2, r3, r5, r6, r8, r9, sp, lr}^
    9448:	725f5f20 	subsvc	r5, pc, #32, 30	; 0x80
    944c:	72617465 	rsbvc	r7, r1, #1694498816	; 0x65000000
    9450:	5f746567 	svcpl	0x00746567
    9454:	6b636f6c 	blvs	18e520c <_Min_Stack_Size+0x18e4e0c>
    9458:	6f6c635f 	svcvs	0x006c635f
    945c:	6c286573 	cfstr32vs	mvfx6, [r8], #-460	; 0xfffffe34
    9460:	296b636f 	stmdbcs	fp!, {r0, r1, r2, r3, r5, r6, r8, r9, sp, lr}^
    9464:	49504700 	ldmdbmi	r0, {r8, r9, sl, lr}^
    9468:	4f4d5f4f 	svcmi	0x004d5f4f
    946c:	415f4544 	cmpmi	pc, r4, asr #10
    9470:	4e495f46 	cdpmi	15, 4, cr5, cr9, cr6, {2}
    9474:	20545550 	subscs	r5, r4, r0, asr r5
    9478:	30307830 	eorscc	r7, r0, r0, lsr r8
    947c:	30303030 	eorscc	r3, r0, r0, lsr r0
    9480:	00553830 	subseq	r3, r5, r0, lsr r8
    9484:	5f433249 	svcpl	0x00433249
    9488:	5f325253 	svcpl	0x00325253
    948c:	59535542 	ldmdbpl	r3, {r1, r6, r8, sl, ip, lr}^
    9490:	736f505f 	cmnvc	pc, #95	; 0x5f
    9494:	55312820 	ldrpl	r2, [r1, #-2080]!	; 0xfffff7e0
    9498:	495f0029 	ldmdbmi	pc, {r0, r3, r5}^	; <UNPREDICTABLE>
    949c:	5f38544e 	svcpl	0x0038544e
    94a0:	45445f54 	strbmi	r5, [r4, #-3924]	; 0xfffff0ac
    94a4:	52414c43 	subpl	r4, r1, #17152	; 0x4300
    94a8:	00204445 	eoreq	r4, r0, r5, asr #8
    94ac:	544e495f 	strbpl	r4, [lr], #-2399	; 0xfffff6a1
    94b0:	545f3233 	ldrbpl	r3, [pc], #-563	; 94b8 <_Min_Stack_Size+0x90b8>
    94b4:	4345445f 	movtmi	r4, #21599	; 0x545f
    94b8:	4552414c 	ldrbmi	r4, [r2, #-332]	; 0xfffffeb4
    94bc:	5f002044 	svcpl	0x00002044
    94c0:	5a49535f 	bpl	125e244 <_Min_Stack_Size+0x125de44>
    94c4:	5f464f45 	svcpl	0x00464f45
    94c8:	5f544e49 	svcpl	0x00544e49
    94cc:	0034205f 	eorseq	r2, r4, pc, asr r0
    94d0:	4453425f 	ldrbmi	r4, [r3], #-607	; 0xfffffda1
    94d4:	4843575f 	stmdami	r3, {r0, r1, r2, r3, r4, r6, r8, r9, sl, ip, lr}^
    94d8:	545f5241 	ldrbpl	r5, [pc], #-577	; 94e0 <_Min_Stack_Size+0x90e0>
    94dc:	5f5f005f 	svcpl	0x005f005f
    94e0:	52464c4c 	subpl	r4, r6, #76, 24	; 0x4c00
    94e4:	5f544341 	svcpl	0x00544341
    94e8:	54494249 	strbpl	r4, [r9], #-585	; 0xfffffdb7
    94ec:	30205f5f 	eorcc	r5, r0, pc, asr pc
    94f0:	435f5f00 	cmpmi	pc, #0, 30
    94f4:	55535f43 	ldrbpl	r5, [r3, #-3907]	; 0xfffff0bd
    94f8:	524f5050 	subpl	r5, pc, #80	; 0x50
    94fc:	565f5354 			; <UNDEFINED> instruction: 0x565f5354
    9500:	44415241 	strbmi	r5, [r1], #-577	; 0xfffffdbf
    9504:	585f4349 	ldmdapl	pc, {r0, r3, r6, r8, r9, lr}^	; <UNPREDICTABLE>
    9508:	31205858 			; <UNDEFINED> instruction: 0x31205858
    950c:	49564e00 	ldmdbmi	r6, {r9, sl, fp, lr}^
    9510:	53495f43 	movtpl	r5, #40771	; 0x9f43
    9514:	20315245 	eorscs	r5, r1, r5, asr #4
    9518:	6f76282a 	svcvs	0x0076282a
    951c:	6974616c 	ldmdbvs	r4!, {r2, r3, r5, r6, r8, sp, lr}^
    9520:	7520656c 	strvc	r6, [r0, #-1388]!	; 0xfffffa94
    9524:	33746e69 	cmncc	r4, #1680	; 0x690
    9528:	20745f32 	rsbscs	r5, r4, r2, lsr pc
    952c:	4e28292a 	vmulmi.f16	s4, s16, s21	; <UNPREDICTABLE>
    9530:	5f434956 	svcpl	0x00434956
    9534:	45534142 	ldrbmi	r4, [r3, #-322]	; 0xfffffebe
    9538:	30202b20 	eorcc	r2, r0, r0, lsr #22
    953c:	00293478 	eoreq	r3, r9, r8, ror r4
    9540:	5f433249 	svcpl	0x00433249
    9544:	5f315243 	svcpl	0x00315243
    9548:	43474e45 	movtmi	r4, #32325	; 0x7e45
    954c:	736f505f 	cmnvc	pc, #95	; 0x5f
    9550:	55362820 	ldrpl	r2, [r6, #-2080]!	; 0xfffff7e0
    9554:	5f5f0029 	svcpl	0x005f0029
    9558:	43434153 	movtmi	r4, #12627	; 0x3153
    955c:	455f4d55 	ldrbmi	r4, [pc, #-3413]	; 880f <_Min_Stack_Size+0x840f>
    9560:	4c495350 	mcrrmi	3, 5, r5, r9, cr0
    9564:	5f5f4e4f 	svcpl	0x005f4e4f
    9568:	31783020 	cmncc	r8, r0, lsr #32
    956c:	48372d50 	ldmdami	r7!, {r4, r6, r8, sl, fp, sp}
    9570:	5047004b 	subpl	r0, r7, fp, asr #32
    9574:	525f4f49 	subspl	r4, pc, #292	; 0x124
    9578:	4e525445 	cdpmi	4, 5, cr5, cr2, cr5, {2}
    957c:	434f4c5f 	movtmi	r4, #64607	; 0xfc5f
    9580:	6e455f4b 	cdpvs	15, 4, cr5, cr5, cr11, {2}
    9584:	656c6261 	strbvs	r6, [ip, #-609]!	; 0xfffffd9f
    9588:	00302064 	eorseq	r2, r0, r4, rrx
    958c:	43475f5f 	movtmi	r5, #32607	; 0x7f5f
    9590:	53415f43 	movtpl	r5, #8003	; 0x1f43
    9594:	4c465f4d 	mcrrmi	15, 4, r5, r6, cr13
    9598:	4f5f4741 	svcmi	0x005f4741
    959c:	55505455 	ldrbpl	r5, [r0, #-1109]	; 0xfffffbab
    95a0:	5f5f5354 	svcpl	0x005f5354
    95a4:	5f003120 	svcpl	0x00003120
    95a8:	4e454552 	mcrmi	5, 2, r4, cr5, cr2, {2}
    95ac:	54535f54 	ldrbpl	r5, [r3], #-3924	; 0xfffff0ac
    95b0:	54554f44 	ldrbpl	r4, [r5], #-3908	; 0xfffff0bc
    95b4:	74705f28 	ldrbtvc	r5, [r0], #-3880	; 0xfffff0d8
    95b8:	28202972 	stmdacs	r0!, {r1, r4, r5, r6, r8, fp, sp}
    95bc:	74705f28 	ldrbtvc	r5, [r0], #-3880	; 0xfffff0d8
    95c0:	3e2d2972 			; <UNDEFINED> instruction: 0x3e2d2972
    95c4:	6474735f 	ldrbtvs	r7, [r4], #-863	; 0xfffffca1
    95c8:	2974756f 	ldmdbcs	r4!, {r0, r1, r2, r3, r5, r6, r8, sl, ip, sp, lr}^
    95cc:	535f5f00 	cmppl	pc, #0, 30
    95d0:	4f455a49 	svcmi	0x00455a49
    95d4:	43575f46 	cmpmi	r7, #280	; 0x118
    95d8:	5f524148 	svcpl	0x00524148
    95dc:	205f5f54 	subscs	r5, pc, r4, asr pc	; <UNPREDICTABLE>
    95e0:	525f0034 	subspl	r0, pc, #52	; 0x34
    95e4:	544e4545 	strbpl	r4, [lr], #-1349	; 0xfffffabb
    95e8:	4548435f 	strbmi	r4, [r8, #-863]	; 0xfffffca1
    95ec:	565f4b43 	ldrbpl	r4, [pc], -r3, asr #22
    95f0:	46495245 	strbmi	r5, [r9], -r5, asr #4
    95f4:	00312059 	eorseq	r2, r1, r9, asr r0
    95f8:	49545845 	ldmdbmi	r4, {r0, r2, r6, fp, ip, lr}^
    95fc:	34445034 	strbcc	r5, [r4], #-52	; 0xffffffcc
    9600:	58452820 	stmdapl	r5, {r5, fp, sp}^
    9604:	475f4954 			; <UNDEFINED> instruction: 0x475f4954
    9608:	5f4f4950 	svcpl	0x004f4950
    960c:	6970614d 	ldmdbvs	r0!, {r0, r2, r3, r6, r8, sp, lr}^
    9610:	745f676e 	ldrbvc	r6, [pc], #-1902	; 9618 <_Min_Stack_Size+0x9218>
    9614:	58457b29 	stmdapl	r5, {r0, r3, r5, r8, r9, fp, ip, sp, lr}^
    9618:	2c344954 			; <UNDEFINED> instruction: 0x2c344954
    961c:	49504720 	ldmdbmi	r0, {r5, r8, r9, sl, lr}^
    9620:	202c444f 	eorcs	r4, ip, pc, asr #8
    9624:	4f495047 	svcmi	0x00495047
    9628:	4e49505f 	mcrmi	0, 2, r5, cr9, cr15, {2}
    962c:	202c345f 	eorcs	r3, ip, pc, asr r4
    9630:	49545845 	ldmdbmi	r4, {r0, r2, r6, fp, ip, lr}^
    9634:	52495f34 	subpl	r5, r9, #52, 30	; 0xd0
    9638:	5f007d51 	svcpl	0x00007d51
    963c:	49534f50 	ldmdbmi	r3, {r4, r6, r8, r9, sl, fp, lr}^
    9640:	4f535f58 	svcmi	0x00535f58
    9644:	45435255 	strbmi	r5, [r3, #-597]	; 0xfffffdab
    9648:	5f003120 	svcpl	0x00003120
    964c:	4e49555f 	mcrmi	5, 2, r5, cr9, cr15, {2}
    9650:	41465f54 	cmpmi	r6, r4, asr pc
    9654:	36315453 			; <UNDEFINED> instruction: 0x36315453
    9658:	5059545f 	subspl	r5, r9, pc, asr r4
    965c:	205f5f45 	subscs	r5, pc, r5, asr #30
    9660:	69736e75 	ldmdbvs	r3!, {r0, r2, r4, r5, r6, r9, sl, fp, sp, lr}^
    9664:	64656e67 	strbtvs	r6, [r5], #-3687	; 0xfffff199
    9668:	746e6920 	strbtvc	r6, [lr], #-2336	; 0xfffff6e0
    966c:	43324900 	teqmi	r2, #0, 18
    9670:	52455f31 	subpl	r5, r5, #49, 30	; 0xc4
    9674:	5152495f 	cmppl	r2, pc, asr r9
    9678:	00323320 	eorseq	r3, r2, r0, lsr #6
    967c:	4545525f 	strbmi	r5, [r5, #-607]	; 0xfffffda1
    9680:	4d5f544e 	cfldrdmi	mvd5, [pc, #-312]	; 9550 <_Min_Stack_Size+0x9150>
    9684:	4e454c42 	cdpmi	12, 4, cr4, cr5, cr2, {2}
    9688:	4154535f 	cmpmi	r4, pc, asr r3
    968c:	70284554 	eorvc	r4, r8, r4, asr r5
    9690:	20297274 	eorcs	r7, r9, r4, ror r2
    9694:	74702828 	ldrbtvc	r2, [r0], #-2088	; 0xfffff7d8
    9698:	3e2d2972 			; <UNDEFINED> instruction: 0x3e2d2972
    969c:	73696d5f 	cmnvc	r9, #6080	; 0x17c0
    96a0:	5f3e2d63 	svcpl	0x003e2d63
    96a4:	656c626d 	strbvs	r6, [ip, #-621]!	; 0xfffffd93
    96a8:	74735f6e 	ldrbtvc	r5, [r3], #-3950	; 0xfffff092
    96ac:	29657461 	stmdbcs	r5!, {r0, r5, r6, sl, ip, sp, lr}^
    96b0:	475f5f00 	ldrbmi	r5, [pc, -r0, lsl #30]
    96b4:	5f43554e 	svcpl	0x0043554e
    96b8:	43445453 	movtmi	r5, #17491	; 0x4453
    96bc:	4c4e495f 	mcrrmi	9, 5, r4, lr, cr15	; <UNPREDICTABLE>
    96c0:	5f454e49 	svcpl	0x00454e49
    96c4:	0031205f 	eorseq	r2, r1, pc, asr r0
    96c8:	656e5f5f 	strbvs	r5, [lr, #-3935]!	; 0xfffff0a1
    96cc:	775f6465 	ldrbvc	r6, [pc, -r5, ror #8]
    96d0:	5f746e69 	svcpl	0x00746e69
    96d4:	5f002074 	svcpl	0x00002074
    96d8:	4343415f 	movtmi	r4, #12639	; 0x315f
    96dc:	455f4d55 	ldrbmi	r4, [pc, #-3413]	; 898f <_Min_Stack_Size+0x858f>
    96e0:	4c495350 	mcrrmi	3, 5, r5, r9, cr0
    96e4:	5f5f4e4f 	svcpl	0x005f4e4f
    96e8:	31783020 	cmncc	r8, r0, lsr #32
    96ec:	35312d50 	ldrcc	r2, [r1, #-3408]!	; 0xfffff2b0
    96f0:	5f5f004b 	svcpl	0x005f004b
    96f4:	43414c55 	movtmi	r4, #7253	; 0x1c55
    96f8:	5f4d5543 	svcpl	0x004d5543
    96fc:	49535045 	ldmdbmi	r3, {r0, r2, r6, ip, lr}^
    9700:	5f4e4f4c 	svcpl	0x004e4f4c
    9704:	7830205f 	ldmdavc	r0!, {r0, r1, r2, r3, r4, r6, sp}
    9708:	332d5031 			; <UNDEFINED> instruction: 0x332d5031
    970c:	4b4c5532 	blmi	131ebdc <_Min_Stack_Size+0x131e7dc>
    9710:	4c5f5f00 	mrrcmi	15, 0, r5, pc, cr0	; <UNPREDICTABLE>
    9714:	5f4c4244 	svcpl	0x004c4244
    9718:	5f474944 	svcpl	0x00474944
    971c:	3531205f 	ldrcc	r2, [r1, #-95]!	; 0xffffffa1
    9720:	49504700 	ldmdbmi	r0, {r8, r9, sl, lr}^
    9724:	4f4d5f4f 	svcmi	0x004d5f4f
    9728:	4f5f4544 	svcmi	0x005f4544
    972c:	55505455 	ldrbpl	r5, [r0, #-1109]	; 0xfffffbab
    9730:	444f5f54 	strbmi	r5, [pc], #-3924	; 9738 <_Min_Stack_Size+0x9338>
    9734:	30783020 	rsbscc	r3, r8, r0, lsr #32
    9738:	30303030 	eorscc	r3, r0, r0, lsr r0
    973c:	55353030 	ldrpl	r3, [r5, #-48]!	; 0xffffffd0
    9740:	43324900 	teqmi	r2, #0, 18
    9744:	3252535f 	subscc	r5, r2, #2080374785	; 0x7c000001
    9748:	4155445f 	cmpmi	r5, pc, asr r4
    974c:	505f464c 	subspl	r4, pc, ip, asr #12
    9750:	2820736f 	stmdacs	r0!, {r0, r1, r2, r3, r5, r6, r8, r9, ip, sp, lr}
    9754:	00295537 	eoreq	r5, r9, r7, lsr r5
    9758:	49535f5f 	ldmdbmi	r3, {r0, r1, r2, r3, r4, r6, r8, r9, sl, fp, ip, lr}^
    975c:	575f455a 			; <UNDEFINED> instruction: 0x575f455a
    9760:	48544449 	ldmdami	r4, {r0, r3, r6, sl, lr}^
    9764:	33205f5f 			; <UNDEFINED> instruction: 0x33205f5f
    9768:	525f0032 	subspl	r0, pc, #50	; 0x32
    976c:	544e4545 	strbpl	r4, [lr], #-1349	; 0xfffffabb
    9770:	5f504d5f 	svcpl	0x00504d5f
    9774:	55534552 	ldrbpl	r4, [r3, #-1362]	; 0xfffffaae
    9778:	7028544c 	eorvc	r5, r8, ip, asr #8
    977c:	20297274 	eorcs	r7, r9, r4, ror r2
    9780:	74702828 	ldrbtvc	r2, [r0], #-2088	; 0xfffff7d8
    9784:	3e2d2972 			; <UNDEFINED> instruction: 0x3e2d2972
    9788:	2d706d5f 	ldclcs	13, cr6, [r0, #-380]!	; 0xfffffe84
    978c:	65725f3e 	ldrbvs	r5, [r2, #-3902]!	; 0xfffff0c2
    9790:	746c7573 	strbtvc	r7, [ip], #-1395	; 0xfffffa8d
    9794:	32490029 	subcc	r0, r9, #41	; 0x29
    9798:	52435f43 	subpl	r5, r3, #268	; 0x10c
    979c:	43415f31 	movtmi	r5, #7985	; 0x1f31
    97a0:	3249204b 	subcc	r2, r9, #75	; 0x4b
    97a4:	52435f43 	subpl	r5, r3, #268	; 0x10c
    97a8:	43415f31 	movtmi	r5, #7985	; 0x1f31
    97ac:	734d5f4b 	movtvc	r5, #57163	; 0xdf4b
    97b0:	5f5f006b 	svcpl	0x005f006b
    97b4:	544e4957 	strbpl	r4, [lr], #-2391	; 0xfffff6a9
    97b8:	4e494d5f 	mcrmi	13, 2, r4, cr9, cr15, {2}
    97bc:	30205f5f 	eorcc	r5, r0, pc, asr pc
    97c0:	50470055 	subpl	r0, r7, r5, asr r0
    97c4:	535f4f49 	cmppl	pc, #292	; 0x124
    97c8:	44454550 	strbmi	r4, [r5], #-1360	; 0xfffffab0
    97cc:	4d30315f 	ldfmis	f3, [r0, #-380]!	; 0xfffffe84
    97d0:	30783020 	rsbscc	r3, r8, r0, lsr #32
    97d4:	30303030 	eorscc	r3, r0, r0, lsr r0
    97d8:	55313030 	ldrpl	r3, [r1, #-48]!	; 0xffffffd0
    97dc:	465f5f00 	ldrbmi	r5, [pc], -r0, lsl #30
    97e0:	3436544c 	ldrtcc	r5, [r6], #-1100	; 0xfffffbb4
    97e4:	4749445f 	smlsldmi	r4, r9, pc, r4	; <UNPREDICTABLE>
    97e8:	31205f5f 			; <UNDEFINED> instruction: 0x31205f5f
    97ec:	495f0035 	ldmdbmi	pc, {r0, r2, r4, r5}^	; <UNPREDICTABLE>
    97f0:	3233544e 	eorscc	r5, r3, #1308622848	; 0x4e000000
    97f4:	5f51455f 	svcpl	0x0051455f
    97f8:	474e4f4c 	strbmi	r4, [lr, -ip, asr #30]
    97fc:	5f5f0020 	svcpl	0x005f0020
    9800:	544e4957 	strbpl	r4, [lr], #-2391	; 0xfffff6a9
    9804:	58414d5f 	stmdapl	r1, {r0, r1, r2, r3, r4, r6, r8, sl, fp, lr}^
    9808:	30205f5f 	eorcc	r5, r0, pc, asr pc
    980c:	66666678 			; <UNDEFINED> instruction: 0x66666678
    9810:	66666666 	strbtvs	r6, [r6], -r6, ror #12
    9814:	45005566 	strmi	r5, [r0, #-1382]	; 0xfffffa9a
    9818:	38495458 	stmdacc	r9, {r3, r4, r6, sl, ip, lr}^
    981c:	20384450 	eorscs	r4, r8, r0, asr r4
    9820:	54584528 	ldrbpl	r4, [r8], #-1320	; 0xfffffad8
    9824:	50475f49 	subpl	r5, r7, r9, asr #30
    9828:	4d5f4f49 	ldclmi	15, cr4, [pc, #-292]	; 970c <_Min_Stack_Size+0x930c>
    982c:	6e697061 	cdpvs	0, 6, cr7, cr9, cr1, {3}
    9830:	29745f67 	ldmdbcs	r4!, {r0, r1, r2, r5, r6, r8, r9, sl, fp, ip, lr}^
    9834:	5458457b 	ldrbpl	r4, [r8], #-1403	; 0xfffffa85
    9838:	202c3849 	eorcs	r3, ip, r9, asr #16
    983c:	4f495047 	svcmi	0x00495047
    9840:	47202c44 	strmi	r2, [r0, -r4, asr #24]!
    9844:	5f4f4950 	svcpl	0x004f4950
    9848:	5f4e4950 	svcpl	0x004e4950
    984c:	45202c38 	strmi	r2, [r0, #-3128]!	; 0xfffff3c8
    9850:	38495458 	stmdacc	r9, {r3, r4, r6, sl, ip, lr}^
    9854:	5152495f 	cmppl	r2, pc, asr r9
    9858:	5f5f007d 	svcpl	0x005f007d
    985c:	5f544e49 	svcpl	0x00544e49
    9860:	5341454c 	movtpl	r4, #5452	; 0x154c
    9864:	575f3854 			; <UNDEFINED> instruction: 0x575f3854
    9868:	48544449 	ldmdami	r4, {r0, r3, r6, sl, lr}^
    986c:	38205f5f 	stmdacc	r0!, {r0, r1, r2, r3, r4, r6, r8, r9, sl, fp, ip, lr}
    9870:	6c5f5f00 	mrrcvs	15, 0, r5, pc, cr0	; <UNPREDICTABLE>
    9874:	5f676e6f 	svcpl	0x00676e6f
    9878:	62756f64 	rsbsvs	r6, r5, #100, 30	; 0x190
    987c:	745f656c 	ldrbvc	r6, [pc], #-1388	; 9884 <_Min_Stack_Size+0x9484>
    9880:	6e6f6c20 	cdpvs	12, 6, cr6, cr15, cr0, {1}
    9884:	6f642067 	svcvs	0x00642067
    9888:	656c6275 	strbvs	r6, [ip, #-629]!	; 0xfffffd8b
    988c:	495f5f00 	ldmdbmi	pc, {r8, r9, sl, fp, ip, lr}^	; <UNPREDICTABLE>
    9890:	4c5f544e 	cfldrdmi	mvd5, [pc], {78}	; 0x4e
    9894:	54534145 	ldrbpl	r4, [r3], #-325	; 0xfffffebb
    9898:	545f3631 	ldrbpl	r3, [pc], #-1585	; 98a0 <_Min_Stack_Size+0x94a0>
    989c:	5f455059 	svcpl	0x00455059
    98a0:	6873205f 	ldmdavs	r3!, {r0, r1, r2, r3, r4, r6, sp}^
    98a4:	2074726f 	rsbscs	r7, r4, pc, ror #4
    98a8:	00746e69 	rsbseq	r6, r4, r9, ror #28
    98ac:	51515f5f 	cmppl	r1, pc, asr pc
    98b0:	4942465f 	stmdbmi	r2, {r0, r1, r2, r3, r4, r6, r9, sl, lr}^
    98b4:	205f5f54 	subscs	r5, pc, r4, asr pc	; <UNPREDICTABLE>
    98b8:	32490037 	subcc	r0, r9, #55	; 0x37
    98bc:	52535f43 	subspl	r5, r3, #268	; 0x10c
    98c0:	45505f32 	ldrbmi	r5, [r0, #-3890]	; 0xfffff0ce
    98c4:	734d5f43 	movtvc	r5, #57155	; 0xdf43
    98c8:	3028206b 	eorcc	r2, r8, fp, rrx
    98cc:	55464678 	strbpl	r4, [r6, #-1656]	; 0xfffff988
    98d0:	3c3c204c 	ldccc	0, cr2, [ip], #-304	; 0xfffffed0
    98d4:	43324920 	teqmi	r2, #32, 18	; 0x80000
    98d8:	3252535f 	subscc	r5, r2, #2080374785	; 0x7c000001
    98dc:	4345505f 	movtmi	r5, #20575	; 0x505f
    98e0:	736f505f 	cmnvc	pc, #95	; 0x5f
    98e4:	5f5f0029 	svcpl	0x005f0029
    98e8:	5f4c4244 	svcpl	0x004c4244
    98ec:	5f58414d 	svcpl	0x0058414d
    98f0:	2828205f 	stmdacs	r8!, {r0, r1, r2, r3, r4, r6, sp}
    98f4:	62756f64 	rsbsvs	r6, r5, #100, 30	; 0x190
    98f8:	3129656c 			; <UNDEFINED> instruction: 0x3129656c
    98fc:	3739372e 	ldrcc	r3, [r9, -lr, lsr #14]!
    9900:	31333936 	teqcc	r3, r6, lsr r9
    9904:	36383433 			; <UNDEFINED> instruction: 0x36383433
    9908:	35313332 	ldrcc	r3, [r1, #-818]!	; 0xfffffcce
    990c:	332b6537 			; <UNDEFINED> instruction: 0x332b6537
    9910:	294c3830 	stmdbcs	ip, {r4, r5, fp, ip, sp}^
    9914:	43324900 	teqmi	r2, #0, 18
    9918:	3152435f 	cmpcc	r2, pc, asr r3
    991c:	414e455f 	cmpmi	lr, pc, asr r5
    9920:	4d5f5052 	ldclmi	0, cr5, [pc, #-328]	; 97e0 <_Min_Stack_Size+0x93e0>
    9924:	28206b73 	stmdacs	r0!, {r0, r1, r4, r5, r6, r8, r9, fp, sp, lr}
    9928:	55317830 	ldrpl	r7, [r1, #-2096]!	; 0xfffff7d0
    992c:	3c3c204c 	ldccc	0, cr2, [ip], #-304	; 0xfffffed0
    9930:	43324920 	teqmi	r2, #32, 18	; 0x80000
    9934:	3152435f 	cmpcc	r2, pc, asr r3
    9938:	414e455f 	cmpmi	lr, pc, asr r5
    993c:	505f5052 	subspl	r5, pc, r2, asr r0	; <UNPREDICTABLE>
    9940:	0029736f 	eoreq	r7, r9, pc, ror #6
    9944:	4c4c5f5f 	mcrrmi	15, 5, r5, ip, cr15
    9948:	43415246 	movtmi	r5, #4678	; 0x1246
    994c:	42465f54 	submi	r5, r6, #84, 30	; 0x150
    9950:	5f5f5449 	svcpl	0x005f5449
    9954:	00333620 	eorseq	r3, r3, r0, lsr #12
    9958:	4c465f5f 	mcrrmi	15, 5, r5, r6, cr15
    995c:	5f323354 	svcpl	0x00323354
    9960:	5f534148 	svcpl	0x00534148
    9964:	49464e49 	stmdbmi	r6, {r0, r3, r6, r9, sl, fp, lr}^
    9968:	5954494e 	ldmdbpl	r4, {r1, r2, r3, r6, r8, fp, lr}^
    996c:	31205f5f 			; <UNDEFINED> instruction: 0x31205f5f
    9970:	45525f00 	ldrbmi	r5, [r2, #-3840]	; 0xfffff100
    9974:	5f544e45 	svcpl	0x00544e45
    9978:	54494e49 	strbpl	r4, [r9], #-3657	; 0xfffff1b7
    997c:	72617628 	rsbvc	r7, r1, #40, 12	; 0x2800000
    9980:	207b2029 	rsbscs	r2, fp, r9, lsr #32
    9984:	26202c30 			; <UNDEFINED> instruction: 0x26202c30
    9988:	66735f5f 	uhsaxvs	r5, r3, pc	; <UNPREDICTABLE>
    998c:	2c5d305b 	mrrccs	0, 5, r3, sp, cr11
    9990:	5f5f2620 	svcpl	0x005f2620
    9994:	315b6673 	cmpcc	fp, r3, ror r6
    9998:	26202c5d 			; <UNDEFINED> instruction: 0x26202c5d
    999c:	66735f5f 	uhsaxvs	r5, r3, pc	; <UNPREDICTABLE>
    99a0:	2c5d325b 	lfmcs	f3, 2, [sp], {91}	; 0x5b
    99a4:	202c3020 	eorcs	r3, ip, r0, lsr #32
    99a8:	4c554e5f 	mrrcmi	14, 5, r4, r5, cr15
    99ac:	5f202c4c 	svcpl	0x00202c4c
    99b0:	4e454552 	mcrmi	5, 2, r4, cr5, cr2, {2}
    99b4:	4e495f54 	mcrmi	15, 2, r5, cr9, cr4, {2}
    99b8:	525f5449 	subspl	r5, pc, #1224736768	; 0x49000000
    99bc:	52455345 	subpl	r5, r5, #335544321	; 0x14000001
    99c0:	5f444556 	svcpl	0x00444556
    99c4:	525f2030 	subspl	r2, pc, #48	; 0x30
    99c8:	544e4545 	strbpl	r4, [lr], #-1349	; 0xfffffabb
    99cc:	494e495f 	stmdbmi	lr, {r0, r1, r2, r3, r4, r6, r8, fp, lr}^
    99d0:	45525f54 	ldrbmi	r5, [r2, #-3924]	; 0xfffff0ac
    99d4:	56524553 			; <UNDEFINED> instruction: 0x56524553
    99d8:	315f4445 	cmpcc	pc, r5, asr #8
    99dc:	554e5f20 	strbpl	r5, [lr, #-3872]	; 0xfffff0e0
    99e0:	202c4c4c 	eorcs	r4, ip, ip, asr #24
    99e4:	4c554e5f 	mrrcmi	14, 5, r4, r5, cr15
    99e8:	5f202c4c 	svcpl	0x00202c4c
    99ec:	4c4c554e 	cfstr64mi	mvdx5, [ip], {78}	; 0x4e
    99f0:	2c30202c 	ldccs	0, cr2, [r0], #-176	; 0xffffff50
    99f4:	202c3020 	eorcs	r3, ip, r0, lsr #32
    99f8:	4c554e5f 	mrrcmi	14, 5, r4, r5, cr15
    99fc:	5f202c4c 	svcpl	0x00202c4c
    9a00:	4c4c554e 	cfstr64mi	mvdx5, [ip], {78}	; 0x4e
    9a04:	4e5f202c 	cdpmi	0, 5, cr2, cr15, cr12, {1}
    9a08:	2c4c4c55 	mcrrcs	12, 5, r4, ip, cr5
    9a0c:	554e5f20 	strbpl	r5, [lr, #-3872]	; 0xfffff0e0
    9a10:	202c4c4c 	eorcs	r4, ip, ip, asr #24
    9a14:	4c554e5f 	mrrcmi	14, 5, r4, r5, cr15
    9a18:	5f202c4c 	svcpl	0x00202c4c
    9a1c:	4e454552 	mcrmi	5, 2, r4, cr5, cr2, {2}
    9a20:	4e495f54 	mcrmi	15, 2, r5, cr9, cr4, {2}
    9a24:	525f5449 	subspl	r5, pc, #1224736768	; 0x49000000
    9a28:	52455345 	subpl	r5, r5, #335544321	; 0x14000001
    9a2c:	5f444556 	svcpl	0x00444556
    9a30:	20375f36 	eorscs	r5, r7, r6, lsr pc
    9a34:	4545525f 	strbmi	r5, [r5, #-607]	; 0xfffffda1
    9a38:	495f544e 	ldmdbmi	pc, {r1, r2, r3, r6, sl, ip, lr}^	; <UNPREDICTABLE>
    9a3c:	5f54494e 	svcpl	0x0054494e
    9a40:	45534552 	ldrbmi	r4, [r3, #-1362]	; 0xfffffaae
    9a44:	44455652 	strbmi	r5, [r5], #-1618	; 0xfffff9ae
    9a48:	5f20385f 	svcpl	0x0020385f
    9a4c:	4c4c554e 	cfstr64mi	mvdx5, [ip], {78}	; 0x4e
    9a50:	4e5f202c 	cdpmi	0, 5, cr2, cr15, cr12, {1}
    9a54:	2c4c4c55 	mcrrcs	12, 5, r4, ip, cr5
    9a58:	554e5f20 	strbpl	r5, [lr, #-3872]	; 0xfffff0e0
    9a5c:	7d204c4c 	stcvc	12, cr4, [r0, #-304]!	; 0xfffffed0
    9a60:	415f5f00 	cmpmi	pc, r0, lsl #30
    9a64:	4c454d52 	mcrrmi	13, 5, r4, r5, cr2
    9a68:	31205f5f 			; <UNDEFINED> instruction: 0x31205f5f
    9a6c:	4e495f00 	cdpmi	15, 4, cr5, cr9, cr0, {0}
    9a70:	58414d54 	stmdapl	r1, {r2, r4, r6, r8, sl, fp, lr}^
    9a74:	445f545f 	ldrbmi	r5, [pc], #-1119	; 9a7c <_Min_Stack_Size+0x967c>
    9a78:	414c4345 	cmpmi	ip, r5, asr #6
    9a7c:	20444552 	subcs	r4, r4, r2, asr r5
    9a80:	49464100 	stmdbmi	r6, {r8, lr}^
    9a84:	58455f4f 	stmdapl	r5, {r0, r1, r2, r3, r6, r8, r9, sl, fp, ip, lr}^
    9a88:	52434954 	subpl	r4, r3, #84, 18	; 0x150000
    9a8c:	736f705f 	cmnvc	pc, #95	; 0x5f
    9a90:	6f697469 	svcvs	0x00697469
    9a94:	5f5f006e 	svcpl	0x005f006e
    9a98:	706d6f63 	rsbvc	r6, sp, r3, ror #30
    9a9c:	72656c69 	rsbvc	r6, r5, #26880	; 0x6900
    9aa0:	6d656d5f 	stclvs	13, cr6, [r5, #-380]!	; 0xfffffe84
    9aa4:	28726162 	ldmdacs	r2!, {r1, r5, r6, r8, sp, lr}^
    9aa8:	5f5f2029 	svcpl	0x005f2029
    9aac:	206d7361 	rsbcs	r7, sp, r1, ror #6
    9ab0:	6f765f5f 	svcvs	0x00765f5f
    9ab4:	6974616c 	ldmdbvs	r4!, {r2, r3, r5, r6, r8, sp, lr}^
    9ab8:	2228656c 	eorcs	r6, r8, #108, 10	; 0x1b000000
    9abc:	3a202220 	bcc	812344 <_Min_Stack_Size+0x811f44>
    9ac0:	3a203a20 	bcc	818348 <_Min_Stack_Size+0x817f48>
    9ac4:	656d2220 	strbvs	r2, [sp, #-544]!	; 0xfffffde0
    9ac8:	79726f6d 	ldmdbvc	r2!, {r0, r2, r3, r5, r6, r8, r9, sl, fp, sp, lr}^
    9acc:	5f002922 	svcpl	0x00002922
    9ad0:	5f51485f 	svcpl	0x0051485f
    9ad4:	54494246 	strbpl	r4, [r9], #-582	; 0xfffffdba
    9ad8:	31205f5f 			; <UNDEFINED> instruction: 0x31205f5f
    9adc:	32490035 	subcc	r0, r9, #53	; 0x35
    9ae0:	52535f43 	subspl	r5, r3, #268	; 0x10c
    9ae4:	42535f31 	subsmi	r5, r3, #49, 30	; 0xc4
    9ae8:	6b734d5f 	blvs	1cdd06c <_Min_Stack_Size+0x1cdcc6c>
    9aec:	78302820 	ldmdavc	r0!, {r5, fp, sp}
    9af0:	204c5531 	subcs	r5, ip, r1, lsr r5
    9af4:	49203c3c 	stmdbmi	r0!, {r2, r3, r4, r5, sl, fp, ip, sp}
    9af8:	535f4332 	cmppl	pc, #-939524096	; 0xc8000000
    9afc:	535f3152 	cmppl	pc, #-2147483628	; 0x80000014
    9b00:	6f505f42 	svcvs	0x00505f42
    9b04:	5f002973 	svcpl	0x00002973
    9b08:	7461645f 	strbtvc	r6, [r1], #-1119	; 0xfffffba1
    9b0c:	70797461 	rsbsvc	r7, r9, r1, ror #8
    9b10:	79745f65 	ldmdbvc	r4!, {r0, r2, r5, r6, r8, r9, sl, fp, ip, lr}^
    9b14:	745f6570 	ldrbvc	r6, [pc], #-1392	; 9b1c <_Min_Stack_Size+0x971c>
    9b18:	6b286761 	blvs	a238a4 <_Min_Stack_Size+0xa234a4>
    9b1c:	2c646e69 	stclcs	14, cr6, [r4], #-420	; 0xfffffe5c
    9b20:	65707974 	ldrbvs	r7, [r0, #-2420]!	; 0xfffff68c
    9b24:	52002029 	andpl	r2, r0, #41	; 0x29
    9b28:	415f4343 	cmpmi	pc, r3, asr #6
    9b2c:	5f4f4946 	svcpl	0x004f4946
    9b30:	5f4b4c43 	svcpl	0x004b4c43
    9b34:	29284e45 	stmdbcs	r8!, {r0, r2, r6, r9, sl, fp, lr}
    9b38:	43522820 	cmpmi	r2, #32, 16	; 0x200000
    9b3c:	413e2d43 	teqmi	lr, r3, asr #26
    9b40:	45324250 	ldrmi	r4, [r2, #-592]!	; 0xfffffdb0
    9b44:	7c20524e 	sfmvc	f5, 4, [r0], #-312	; 0xfffffec8
    9b48:	3c31203d 	ldccc	0, cr2, [r1], #-244	; 0xffffff0c
    9b4c:	3b29303c 	blcc	a55c44 <_Min_Stack_Size+0xa55844>
    9b50:	535f5f00 	cmppl	pc, #0, 30
    9b54:	5f455a49 	svcpl	0x00455a49
    9b58:	5f58414d 	svcpl	0x0058414d
    9b5c:	7830205f 	ldmdavc	r0!, {r0, r1, r2, r3, r4, r6, sp}
    9b60:	66666666 	strbtvs	r6, [r6], -r6, ror #12
    9b64:	66666666 	strbtvs	r6, [r6], -r6, ror #12
    9b68:	32490055 	subcc	r0, r9, #85	; 0x55
    9b6c:	52435f43 	subpl	r5, r3, #268	; 0x10c
    9b70:	52465f32 	subpl	r5, r6, #50, 30	; 0xc8
    9b74:	49205145 	stmdbmi	r0!, {r0, r2, r6, r8, ip, lr}
    9b78:	435f4332 	cmpmi	pc, #-939524096	; 0xc8000000
    9b7c:	465f3252 			; <UNDEFINED> instruction: 0x465f3252
    9b80:	5f514552 	svcpl	0x00514552
    9b84:	006b734d 	rsbeq	r7, fp, sp, asr #6
    9b88:	49545845 	ldmdbmi	r4, {r0, r2, r6, fp, ip, lr}^
    9b8c:	41503231 	cmpmi	r0, r1, lsr r2
    9b90:	28203231 	stmdacs	r0!, {r0, r4, r5, r9, ip, sp}
    9b94:	49545845 	ldmdbmi	r4, {r0, r2, r6, fp, ip, lr}^
    9b98:	4950475f 	ldmdbmi	r0, {r0, r1, r2, r3, r4, r6, r8, r9, sl, lr}^
    9b9c:	614d5f4f 	cmpvs	sp, pc, asr #30
    9ba0:	676e6970 			; <UNDEFINED> instruction: 0x676e6970
    9ba4:	7b29745f 	blvc	a66d28 <_Min_Stack_Size+0xa66928>
    9ba8:	49545845 	ldmdbmi	r4, {r0, r2, r6, fp, ip, lr}^
    9bac:	202c3231 	eorcs	r3, ip, r1, lsr r2
    9bb0:	4f495047 	svcmi	0x00495047
    9bb4:	47202c41 	strmi	r2, [r0, -r1, asr #24]!
    9bb8:	5f4f4950 	svcpl	0x004f4950
    9bbc:	5f4e4950 	svcpl	0x004e4950
    9bc0:	202c3231 	eorcs	r3, ip, r1, lsr r2
    9bc4:	49545845 	ldmdbmi	r4, {r0, r2, r6, fp, ip, lr}^
    9bc8:	495f3231 	ldmdbmi	pc, {r0, r4, r5, r9, ip, sp}^	; <UNPREDICTABLE>
    9bcc:	007d5152 	rsbseq	r5, sp, r2, asr r1
    9bd0:	49545845 	ldmdbmi	r4, {r0, r2, r6, fp, ip, lr}^
    9bd4:	39445039 	stmdbcc	r4, {r0, r3, r4, r5, ip, lr}^
    9bd8:	58452820 	stmdapl	r5, {r5, fp, sp}^
    9bdc:	475f4954 			; <UNDEFINED> instruction: 0x475f4954
    9be0:	5f4f4950 	svcpl	0x004f4950
    9be4:	6970614d 	ldmdbvs	r0!, {r0, r2, r3, r6, r8, sp, lr}^
    9be8:	745f676e 	ldrbvc	r6, [pc], #-1902	; 9bf0 <_Min_Stack_Size+0x97f0>
    9bec:	58457b29 	stmdapl	r5, {r0, r3, r5, r8, r9, fp, ip, sp, lr}^
    9bf0:	2c394954 			; <UNDEFINED> instruction: 0x2c394954
    9bf4:	49504720 	ldmdbmi	r0, {r5, r8, r9, sl, lr}^
    9bf8:	202c444f 	eorcs	r4, ip, pc, asr #8
    9bfc:	4f495047 	svcmi	0x00495047
    9c00:	4e49505f 	mcrmi	0, 2, r5, cr9, cr15, {2}
    9c04:	202c395f 	eorcs	r3, ip, pc, asr r9
    9c08:	49545845 	ldmdbmi	r4, {r0, r2, r6, fp, ip, lr}^
    9c0c:	52495f39 	subpl	r5, r9, #57, 30	; 0xe4
    9c10:	5f007d51 	svcpl	0x00007d51
    9c14:	544e495f 	strbpl	r4, [lr], #-2399	; 0xfffff6a1
    9c18:	22203436 	eorcs	r3, r0, #905969664	; 0x36000000
    9c1c:	00226c6c 	eoreq	r6, r2, ip, ror #24
    9c20:	6c615f5f 	stclvs	15, cr5, [r1], #-380	; 0xfffffe84
    9c24:	73796177 	cmnvc	r9, #-1073741795	; 0xc000001d
    9c28:	6c6e695f 			; <UNDEFINED> instruction: 0x6c6e695f
    9c2c:	20656e69 	rsbcs	r6, r5, r9, ror #28
    9c30:	6e695f5f 	mcrvs	15, 3, r5, cr9, cr15, {2}
    9c34:	656e696c 	strbvs	r6, [lr, #-2412]!	; 0xfffff694
    9c38:	5f205f5f 	svcpl	0x00205f5f
    9c3c:	7474615f 	ldrbtvc	r6, [r4], #-351	; 0xfffffea1
    9c40:	75626972 	strbvc	r6, [r2, #-2418]!	; 0xfffff68e
    9c44:	5f5f6574 	svcpl	0x005f6574
    9c48:	5f5f2828 	svcpl	0x005f2828
    9c4c:	61776c61 	cmnvs	r7, r1, ror #24
    9c50:	695f7379 	ldmdbvs	pc, {r0, r3, r4, r5, r6, r8, r9, ip, sp, lr}^	; <UNPREDICTABLE>
    9c54:	6e696c6e 	cdpvs	12, 6, cr6, cr9, cr14, {3}
    9c58:	295f5f65 	ldmdbcs	pc, {r0, r2, r5, r6, r8, r9, sl, fp, ip, lr}^	; <UNPREDICTABLE>
    9c5c:	58450029 	stmdapl	r5, {r0, r3, r5}^
    9c60:	50384954 	eorspl	r4, r8, r4, asr r9
    9c64:	28203842 	stmdacs	r0!, {r1, r6, fp, ip, sp}
    9c68:	49545845 	ldmdbmi	r4, {r0, r2, r6, fp, ip, lr}^
    9c6c:	4950475f 	ldmdbmi	r0, {r0, r1, r2, r3, r4, r6, r8, r9, sl, lr}^
    9c70:	614d5f4f 	cmpvs	sp, pc, asr #30
    9c74:	676e6970 			; <UNDEFINED> instruction: 0x676e6970
    9c78:	7b29745f 	blvc	a66dfc <_Min_Stack_Size+0xa669fc>
    9c7c:	49545845 	ldmdbmi	r4, {r0, r2, r6, fp, ip, lr}^
    9c80:	47202c38 			; <UNDEFINED> instruction: 0x47202c38
    9c84:	424f4950 	submi	r4, pc, #80, 18	; 0x140000
    9c88:	5047202c 	subpl	r2, r7, ip, lsr #32
    9c8c:	505f4f49 	subspl	r4, pc, r9, asr #30
    9c90:	385f4e49 	ldmdacc	pc, {r0, r3, r6, r9, sl, fp, lr}^	; <UNPREDICTABLE>
    9c94:	5845202c 	stmdapl	r5, {r2, r3, r5, sp}^
    9c98:	5f384954 	svcpl	0x00384954
    9c9c:	7d515249 	lfmvc	f5, 2, [r1, #-292]	; 0xfffffedc
    9ca0:	415f5f00 	cmpmi	pc, r0, lsl #30
    9ca4:	415f4d52 	cmpmi	pc, r2, asr sp	; <UNPREDICTABLE>
    9ca8:	00484352 	subeq	r4, r8, r2, asr r3
    9cac:	49545845 	ldmdbmi	r4, {r0, r2, r6, fp, ip, lr}^
    9cb0:	32425032 	subcc	r5, r2, #50	; 0x32
    9cb4:	58452820 	stmdapl	r5, {r5, fp, sp}^
    9cb8:	475f4954 			; <UNDEFINED> instruction: 0x475f4954
    9cbc:	5f4f4950 	svcpl	0x004f4950
    9cc0:	6970614d 	ldmdbvs	r0!, {r0, r2, r3, r6, r8, sp, lr}^
    9cc4:	745f676e 	ldrbvc	r6, [pc], #-1902	; 9ccc <_Min_Stack_Size+0x98cc>
    9cc8:	58457b29 	stmdapl	r5, {r0, r3, r5, r8, r9, fp, ip, sp, lr}^
    9ccc:	2c324954 			; <UNDEFINED> instruction: 0x2c324954
    9cd0:	49504720 	ldmdbmi	r0, {r5, r8, r9, sl, lr}^
    9cd4:	202c424f 	eorcs	r4, ip, pc, asr #4
    9cd8:	4f495047 	svcmi	0x00495047
    9cdc:	4e49505f 	mcrmi	0, 2, r5, cr9, cr15, {2}
    9ce0:	202c325f 	eorcs	r3, ip, pc, asr r2
    9ce4:	49545845 	ldmdbmi	r4, {r0, r2, r6, fp, ip, lr}^
    9ce8:	52495f32 	subpl	r5, r9, #50, 30	; 0xc8
    9cec:	55007d51 	strpl	r7, [r0, #-3409]	; 0xfffff2af
    9cf0:	38544e49 	ldmdacc	r4, {r0, r3, r6, r9, sl, fp, lr}^
    9cf4:	58414d5f 	stmdapl	r1, {r0, r1, r2, r3, r4, r6, r8, sl, fp, lr}^
    9cf8:	5f5f2820 	svcpl	0x005f2820
    9cfc:	544e4955 	strbpl	r4, [lr], #-2389	; 0xfffff6ab
    9d00:	414d5f38 	cmpmi	sp, r8, lsr pc
    9d04:	295f5f58 	ldmdbcs	pc, {r3, r4, r6, r8, r9, sl, fp, ip, lr}^	; <UNPREDICTABLE>
    9d08:	4c5f5f00 	mrrcmi	15, 0, r5, pc, cr0	; <UNPREDICTABLE>
    9d0c:	5f474e4f 	svcpl	0x00474e4f
    9d10:	5f58414d 	svcpl	0x0058414d
    9d14:	7830205f 	ldmdavc	r0!, {r0, r1, r2, r3, r4, r6, sp}
    9d18:	66666637 			; <UNDEFINED> instruction: 0x66666637
    9d1c:	66666666 	strbtvs	r6, [r6], -r6, ror #12
    9d20:	535f004c 	cmppl	pc, #76	; 0x4c
    9d24:	435f5359 	cmpmi	pc, #1677721601	; 0x64000001
    9d28:	53464544 	movtpl	r4, #25924	; 0x6544
    9d2c:	205f485f 	subscs	r4, pc, pc, asr r8	; <UNPREDICTABLE>
    9d30:	4e495500 	cdpmi	5, 4, cr5, cr9, cr0, {0}
    9d34:	41465f54 	cmpmi	r6, r4, asr pc
    9d38:	5f385453 	svcpl	0x00385453
    9d3c:	2058414d 	subscs	r4, r8, sp, asr #2
    9d40:	555f5f28 	ldrbpl	r5, [pc, #-3880]	; 8e20 <_Min_Stack_Size+0x8a20>
    9d44:	5f544e49 	svcpl	0x00544e49
    9d48:	54534146 	ldrbpl	r4, [r3], #-326	; 0xfffffeba
    9d4c:	414d5f38 	cmpmi	sp, r8, lsr pc
    9d50:	295f5f58 	ldmdbcs	pc, {r3, r4, r6, r8, r9, sl, fp, ip, lr}^	; <UNPREDICTABLE>
    9d54:	43324900 	teqmi	r2, #0, 18
    9d58:	3152435f 	cmpcc	r2, pc, asr r3
    9d5c:	424d535f 	submi	r5, sp, #2080374785	; 0x7c000001
    9d60:	45505954 	ldrbmi	r5, [r0, #-2388]	; 0xfffff6ac
    9d64:	736f505f 	cmnvc	pc, #95	; 0x5f
    9d68:	55332820 	ldrpl	r2, [r3, #-2080]!	; 0xfffff7e0
    9d6c:	6f6c0029 	svcvs	0x006c0029
    9d70:	2b20676e 	blcs	823b30 <_Min_Stack_Size+0x823730>
    9d74:	58450034 	stmdapl	r5, {r2, r4, r5}^
    9d78:	20334954 	eorscs	r4, r3, r4, asr r9
    9d7c:	5f5f0033 	svcpl	0x005f0033
    9d80:	6e6e6f6e 	cdpvs	15, 6, cr6, cr14, cr14, {3}
    9d84:	286c6c75 	stmdacs	ip!, {r0, r2, r4, r5, r6, sl, fp, sp, lr}^
    9d88:	5f202978 	svcpl	0x00202978
    9d8c:	7474615f 	ldrbtvc	r6, [r4], #-351	; 0xfffffea1
    9d90:	75626972 	strbvc	r6, [r2, #-2418]!	; 0xfffff68e
    9d94:	5f5f6574 	svcpl	0x005f6574
    9d98:	5f5f2828 	svcpl	0x005f2828
    9d9c:	6e6e6f6e 	cdpvs	15, 6, cr6, cr14, cr14, {3}
    9da0:	5f6c6c75 	svcpl	0x006c6c75
    9da4:	2978205f 	ldmdbcs	r8!, {r0, r1, r2, r3, r4, r6, sp}^
    9da8:	525f0029 	subspl	r0, pc, #41	; 0x29
    9dac:	34444e41 	strbcc	r4, [r4], #-3649	; 0xfffff1bf
    9db0:	44415f38 	strbmi	r5, [r1], #-3896	; 0xfffff0c8
    9db4:	30282044 	eorcc	r2, r8, r4, asr #32
    9db8:	30303078 	eorscc	r3, r0, r8, ror r0
    9dbc:	45002962 	strmi	r2, [r0, #-2402]	; 0xfffff69e
    9dc0:	5f544958 	svcpl	0x00544958
    9dc4:	4c494146 	stfmie	f4, [r9], {70}	; 0x46
    9dc8:	20455255 	subcs	r5, r5, r5, asr r2
    9dcc:	58450031 	stmdapl	r5, {r0, r4, r5}^
    9dd0:	5f314954 	svcpl	0x00314954
    9dd4:	20515249 	subscs	r5, r1, r9, asr #4
    9dd8:	58450037 	stmdapl	r5, {r0, r1, r2, r4, r5}^
    9ddc:	33314954 	teqcc	r1, #84, 18	; 0x150000
    9de0:	00333120 	eorseq	r3, r3, r0, lsr #2
    9de4:	52415f5f 	subpl	r5, r1, #380	; 0x17c
    9de8:	45465f4d 	strbmi	r5, [r6, #-3917]	; 0xfffff0b3
    9dec:	52555441 	subspl	r5, r5, #1090519040	; 0x41000000
    9df0:	444c5f45 	strbmi	r5, [ip], #-3909	; 0xfffff0bb
    9df4:	20584552 	subscs	r4, r8, r2, asr r5
    9df8:	5f5f0037 	svcpl	0x005f0037
    9dfc:	6b636f6c 	blvs	18e5bb4 <_Min_Stack_Size+0x18e57b4>
    9e00:	7163615f 	cmnvc	r3, pc, asr r1
    9e04:	65726975 	ldrbvs	r6, [r2, #-2421]!	; 0xfffff68b
    9e08:	6365725f 	cmnvs	r5, #-268435451	; 0xf0000005
    9e0c:	69737275 	ldmdbvs	r3!, {r0, r2, r4, r5, r6, r9, ip, sp, lr}^
    9e10:	6c286576 	cfstr32vs	mvfx6, [r8], #-472	; 0xfffffe28
    9e14:	296b636f 	stmdbcs	fp!, {r0, r1, r2, r3, r5, r6, r8, r9, sp, lr}^
    9e18:	725f5f20 	subsvc	r5, pc, #32, 30	; 0x80
    9e1c:	72617465 	rsbvc	r7, r1, #1694498816	; 0x65000000
    9e20:	5f746567 	svcpl	0x00746567
    9e24:	6b636f6c 	blvs	18e5bdc <_Min_Stack_Size+0x18e57dc>
    9e28:	7163615f 	cmnvc	r3, pc, asr r1
    9e2c:	65726975 	ldrbvs	r6, [r2, #-2421]!	; 0xfffff68b
    9e30:	6365725f 	cmnvs	r5, #-268435451	; 0xf0000005
    9e34:	69737275 	ldmdbvs	r3!, {r0, r2, r4, r5, r6, r9, ip, sp, lr}^
    9e38:	6c286576 	cfstr32vs	mvfx6, [r8], #-472	; 0xfffffe28
    9e3c:	296b636f 	stmdbcs	fp!, {r0, r1, r2, r3, r5, r6, r8, r9, sp, lr}^
    9e40:	49564e00 	ldmdbmi	r6, {r9, sl, fp, lr}^
    9e44:	32495f43 	subcc	r5, r9, #268	; 0x10c
    9e48:	455f3143 	ldrbmi	r3, [pc, #-323]	; 9d0d <_Min_Stack_Size+0x990d>
    9e4c:	52495f56 	subpl	r5, r9, #344	; 0x158
    9e50:	5f313351 	svcpl	0x00313351
    9e54:	42414e45 	submi	r4, r1, #1104	; 0x450
    9e58:	2820454c 	stmdacs	r0!, {r2, r3, r6, r8, sl, lr}
    9e5c:	4349564e 	movtmi	r5, #38478	; 0x964e
    9e60:	4553495f 	ldrbmi	r4, [r3, #-2399]	; 0xfffff6a1
    9e64:	7c203052 	stcvc	0, cr3, [r0], #-328	; 0xfffffeb8
    9e68:	2031203d 	eorscs	r2, r1, sp, lsr r0
    9e6c:	49203c3c 	stmdbmi	r0!, {r2, r3, r4, r5, sl, fp, ip, sp}
    9e70:	5f314332 	svcpl	0x00314332
    9e74:	495f5645 	ldmdbmi	pc, {r0, r2, r6, r9, sl, ip, lr}^	; <UNPREDICTABLE>
    9e78:	3b295152 	blcc	a5e3c8 <_Min_Stack_Size+0xa5dfc8>
    9e7c:	43324900 	teqmi	r2, #0, 18
    9e80:	3152535f 	cmpcc	r2, pc, asr r3
    9e84:	4654425f 			; <UNDEFINED> instruction: 0x4654425f
    9e88:	736f505f 	cmnvc	pc, #95	; 0x5f
    9e8c:	55322820 	ldrpl	r2, [r2, #-2080]!	; 0xfffff7e0
    9e90:	32490029 	subcc	r0, r9, #41	; 0x29
    9e94:	425f3243 	subsmi	r3, pc, #805306372	; 0x30000004
    9e98:	20455341 	subcs	r5, r5, r1, asr #6
    9e9c:	30347830 	eorscc	r7, r4, r0, lsr r8
    9ea0:	38353030 	ldmdacc	r5!, {r4, r5, ip, sp}
    9ea4:	4c553030 	mrrcmi	0, 3, r3, r5, cr0
    9ea8:	4c5f5f00 	mrrcmi	15, 0, r5, pc, cr0	; <UNPREDICTABLE>
    9eac:	4152464c 	cmpmi	r2, ip, asr #12
    9eb0:	455f5443 	ldrbmi	r5, [pc, #-1091]	; 9a75 <_Min_Stack_Size+0x9675>
    9eb4:	4c495350 	mcrrmi	3, 5, r5, r9, cr0
    9eb8:	5f5f4e4f 	svcpl	0x005f4e4f
    9ebc:	31783020 	cmncc	r8, r0, lsr #32
    9ec0:	33362d50 	teqcc	r6, #80, 26	; 0x1400
    9ec4:	00524c4c 	subseq	r4, r2, ip, asr #24
    9ec8:	52415f5f 	subpl	r5, r1, #380	; 0x17c
    9ecc:	45465f4d 	strbmi	r5, [r6, #-3917]	; 0xfffff0b3
    9ed0:	52555441 	subspl	r5, r5, #1090519040	; 0x41000000
    9ed4:	49535f45 	ldmdbmi	r3, {r0, r2, r6, r8, r9, sl, fp, ip, lr}^
    9ed8:	3233444d 	eorscc	r4, r3, #1291845632	; 0x4d000000
    9edc:	465f5f00 	ldrbmi	r5, [pc], -r0, lsl #30
    9ee0:	3233544c 	eorscc	r5, r3, #76, 8	; 0x4c000000
    9ee4:	414d5f58 	cmpmi	sp, r8, asr pc
    9ee8:	445f544e 	ldrbmi	r5, [pc], #-1102	; 9ef0 <_Min_Stack_Size+0x9af0>
    9eec:	5f5f4749 	svcpl	0x005f4749
    9ef0:	00333520 	eorseq	r3, r3, r0, lsr #10
    9ef4:	49545845 	ldmdbmi	r4, {r0, r2, r6, fp, ip, lr}^
    9ef8:	00382038 	eorseq	r2, r8, r8, lsr r0
    9efc:	4f495047 	svcmi	0x00495047
    9f00:	4e49505f 	mcrmi	0, 2, r5, cr9, cr15, {2}
    9f04:	2031315f 	eorscs	r3, r1, pc, asr r1
    9f08:	69752828 	ldmdbvs	r5!, {r3, r5, fp, sp}^
    9f0c:	3631746e 	ldrtcc	r7, [r1], -lr, ror #8
    9f10:	3029745f 	eorcc	r7, r9, pc, asr r4
    9f14:	30383078 	eorscc	r3, r8, r8, ror r0
    9f18:	5f002930 	svcpl	0x00002930
    9f1c:	4843575f 	stmdami	r3, {r0, r1, r2, r3, r4, r6, r8, r9, sl, ip, lr}^
    9f20:	575f5241 	ldrbpl	r5, [pc, -r1, asr #4]
    9f24:	48544449 	ldmdami	r4, {r0, r3, r6, sl, lr}^
    9f28:	33205f5f 			; <UNDEFINED> instruction: 0x33205f5f
    9f2c:	32490032 	subcc	r0, r9, #50	; 0x32
    9f30:	52435f43 	subpl	r5, r3, #268	; 0x10c
    9f34:	414c5f32 	cmpmi	ip, r2, lsr pc
    9f38:	4d5f5453 	cfldrdmi	mvd5, [pc, #-332]	; 9df4 <_Min_Stack_Size+0x99f4>
    9f3c:	28206b73 	stmdacs	r0!, {r0, r1, r4, r5, r6, r8, r9, fp, sp, lr}
    9f40:	55317830 	ldrpl	r7, [r1, #-2096]!	; 0xfffff7d0
    9f44:	3c3c204c 	ldccc	0, cr2, [ip], #-304	; 0xfffffed0
    9f48:	43324920 	teqmi	r2, #32, 18	; 0x80000
    9f4c:	3252435f 	subscc	r4, r2, #2080374785	; 0x7c000001
    9f50:	53414c5f 	movtpl	r4, #7263	; 0x1c5f
    9f54:	6f505f54 	svcvs	0x00505f54
    9f58:	5f002973 	svcpl	0x00002973
    9f5c:	544e495f 	strbpl	r4, [lr], #-2399	; 0xfffff6a1
    9f60:	435f3631 	cmpmi	pc, #51380224	; 0x3100000
    9f64:	20296328 	eorcs	r6, r9, r8, lsr #6
    9f68:	56490063 	strbpl	r0, [r9], -r3, rrx
    9f6c:	52495f54 	subpl	r5, r9, #84, 30	; 0x150
    9f70:	754e5f51 	strbvc	r5, [lr, #-3921]	; 0xfffff0af
    9f74:	7265626d 	rsbvc	r6, r5, #-805306362	; 0xd0000006
    9f78:	43435200 	movtmi	r5, #12800	; 0x3200
    9f7c:	4332495f 	teqmi	r2, #1556480	; 0x17c000
    9f80:	4c435f31 	mcrrmi	15, 3, r5, r3, cr1
    9f84:	4e455f4b 	cdpmi	15, 4, cr5, cr5, cr11, {2}
    9f88:	28202928 	stmdacs	r0!, {r3, r5, r8, fp, sp}
    9f8c:	2d434352 	stclcs	3, cr4, [r3, #-328]	; 0xfffffeb8
    9f90:	4250413e 	subsmi	r4, r0, #-2147483633	; 0x8000000f
    9f94:	524e4531 	subpl	r4, lr, #205520896	; 0xc400000
    9f98:	203d7c20 	eorscs	r7, sp, r0, lsr #24
    9f9c:	3c3c2031 	ldccc	0, cr2, [ip], #-196	; 0xffffff3c
    9fa0:	29313220 	ldmdbcs	r1!, {r5, r9, ip, sp}
    9fa4:	445f5f00 	ldrbmi	r5, [pc], #-3840	; 9fac <_Min_Stack_Size+0x9bac>
    9fa8:	42495f41 	submi	r5, r9, #260	; 0x104
    9fac:	5f5f5449 	svcpl	0x005f5449
    9fb0:	00323320 	eorseq	r3, r2, r0, lsr #6
    9fb4:	61736944 	cmnvs	r3, r4, asr #18
    9fb8:	5f656c62 	svcpl	0x00656c62
    9fbc:	4349564e 	movtmi	r5, #38478	; 0x964e
    9fc0:	49504700 	ldmdbmi	r0, {r8, r9, sl, lr}^
    9fc4:	425f454f 	subsmi	r4, pc, #331350016	; 0x13c00000
    9fc8:	20455341 	subcs	r5, r5, r1, asr #6
    9fcc:	30347830 	eorscc	r7, r4, r0, lsr r8
    9fd0:	38313130 	ldmdacc	r1!, {r4, r5, r8, ip, sp}
    9fd4:	4c553030 	mrrcmi	0, 3, r3, r5, cr0
    9fd8:	735f5f00 	cmpvc	pc, #0, 30
    9fdc:	74667274 	strbtvc	r7, [r6], #-628	; 0xfffffd8c
    9fe0:	6c656d69 	stclvs	13, cr6, [r5], #-420	; 0xfffffe5c
    9fe4:	28656b69 	stmdacs	r5!, {r0, r3, r5, r6, r8, r9, fp, sp, lr}^
    9fe8:	61746d66 	cmnvs	r4, r6, ror #26
    9fec:	662c6772 			; <UNDEFINED> instruction: 0x662c6772
    9ff0:	74737269 	ldrbtvc	r7, [r3], #-617	; 0xfffffd97
    9ff4:	61726176 	cmnvs	r2, r6, ror r1
    9ff8:	20296772 	eorcs	r6, r9, r2, ror r7
    9ffc:	74615f5f 	strbtvc	r5, [r1], #-3935	; 0xfffff0a1
    a000:	62697274 	rsbvs	r7, r9, #116, 4	; 0x40000007
    a004:	5f657475 	svcpl	0x00657475
    a008:	5f28285f 	svcpl	0x0028285f
    a00c:	726f665f 	rsbvc	r6, pc, #99614720	; 0x5f00000
    a010:	5f74616d 	svcpl	0x0074616d
    a014:	5f28205f 	svcpl	0x0028205f
    a018:	7274735f 	rsbsvc	r7, r4, #2080374785	; 0x7c000001
    a01c:	6d697466 	cfstrdvs	mvd7, [r9, #-408]!	; 0xfffffe68
    a020:	2c5f5f65 	mrrccs	15, 6, r5, pc, cr5	; <UNPREDICTABLE>
    a024:	746d6620 	strbtvc	r6, [sp], #-1568	; 0xfffff9e0
    a028:	2c677261 	sfmcs	f7, 2, [r7], #-388	; 0xfffffe7c
    a02c:	72696620 	rsbvc	r6, r9, #32, 12	; 0x2000000
    a030:	61767473 	cmnvs	r6, r3, ror r4
    a034:	67726172 			; <UNDEFINED> instruction: 0x67726172
    a038:	00292929 	eoreq	r2, r9, r9, lsr #18
    a03c:	49545845 	ldmdbmi	r4, {r0, r2, r6, fp, ip, lr}^
    a040:	52495f31 	subpl	r5, r9, #49, 30	; 0xc4
    a044:	6e614851 	mcrvs	8, 3, r4, cr1, cr1, {2}
    a048:	72656c64 	rsbvc	r6, r5, #100, 24	; 0x6400
    a04c:	445f5f00 	ldrbmi	r5, [pc], #-3840	; a054 <_Min_Stack_Size+0x9c54>
    a050:	41555145 	cmpmi	r5, r5, asr #2
    a054:	5946494c 	stmdbpl	r6, {r2, r3, r6, r8, fp, lr}^
    a058:	70797428 	rsbsvc	r7, r9, r8, lsr #8
    a05c:	61762c65 	cmnvs	r6, r5, ror #24
    a060:	28202972 	stmdacs	r0!, {r1, r4, r5, r6, r8, fp, sp}
    a064:	70797428 	rsbsvc	r7, r9, r8, lsr #8
    a068:	5f282965 	svcpl	0x00282965
    a06c:	6e69755f 	mcrvs	5, 3, r7, cr9, cr15, {2}
    a070:	72747074 	rsbsvc	r7, r4, #116	; 0x74
    a074:	2829745f 	stmdacs	r9!, {r0, r1, r2, r3, r4, r6, sl, ip, sp, lr}
    a078:	736e6f63 	cmnvc	lr, #396	; 0x18c
    a07c:	6f762074 	svcvs	0x00762074
    a080:	6974616c 	ldmdbvs	r4!, {r2, r3, r5, r6, r8, sp, lr}^
    a084:	7620656c 	strtvc	r6, [r0], -ip, ror #10
    a088:	2064696f 	rsbcs	r6, r4, pc, ror #18
    a08c:	7628292a 	strtvc	r2, [r8], -sl, lsr #18
    a090:	29297261 	stmdbcs	r9!, {r0, r5, r6, r9, ip, sp, lr}
    a094:	43324900 	teqmi	r2, #0, 18
    a098:	3252535f 	subscc	r5, r2, #2080374785	; 0x7c000001
    a09c:	4345505f 	movtmi	r5, #20575	; 0x505f
    a0a0:	43324920 	teqmi	r2, #32, 18	; 0x80000
    a0a4:	3252535f 	subscc	r5, r2, #2080374785	; 0x7c000001
    a0a8:	4345505f 	movtmi	r5, #20575	; 0x505f
    a0ac:	6b734d5f 	blvs	1cdd630 <_Min_Stack_Size+0x1cdd230>
    a0b0:	6c5f5f00 	mrrcvs	15, 0, r5, pc, cr0	; <UNPREDICTABLE>
    a0b4:	5f6b636f 	svcpl	0x006b636f
    a0b8:	74696e69 	strbtvc	r6, [r9], #-3689	; 0xfffff197
    a0bc:	6365725f 	cmnvs	r5, #-268435451	; 0xf0000005
    a0c0:	69737275 	ldmdbvs	r3!, {r0, r2, r4, r5, r6, r9, ip, sp, lr}^
    a0c4:	6c286576 	cfstr32vs	mvfx6, [r8], #-472	; 0xfffffe28
    a0c8:	296b636f 	stmdbcs	fp!, {r0, r1, r2, r3, r5, r6, r8, r9, sp, lr}^
    a0cc:	725f5f20 	subsvc	r5, pc, #32, 30	; 0x80
    a0d0:	72617465 	rsbvc	r7, r1, #1694498816	; 0x65000000
    a0d4:	5f746567 	svcpl	0x00746567
    a0d8:	6b636f6c 	blvs	18e5e90 <_Min_Stack_Size+0x18e5a90>
    a0dc:	696e695f 	stmdbvs	lr!, {r0, r1, r2, r3, r4, r6, r8, fp, sp, lr}^
    a0e0:	65725f74 	ldrbvs	r5, [r2, #-3956]!	; 0xfffff08c
    a0e4:	73727563 	cmnvc	r2, #415236096	; 0x18c00000
    a0e8:	28657669 	stmdacs	r5!, {r0, r3, r5, r6, r9, sl, ip, sp, lr}^
    a0ec:	636f6c26 	cmnvs	pc, #9728	; 0x2600
    a0f0:	5f00296b 	svcpl	0x0000296b
    a0f4:	4f54415f 	svcmi	0x0054415f
    a0f8:	5f43494d 	svcpl	0x0043494d
    a0fc:	5f514341 	svcpl	0x00514341
    a100:	204c4552 	subcs	r4, ip, r2, asr r5
    a104:	5f5f0034 	svcpl	0x005f0034
    a108:	495f5148 	ldmdbmi	pc, {r3, r6, r8, ip, lr}^	; <UNPREDICTABLE>
    a10c:	5f544942 	svcpl	0x00544942
    a110:	0030205f 	eorseq	r2, r0, pc, asr r0
    a114:	61705f5f 	cmnvs	r0, pc, asr pc
    a118:	64656b63 	strbtvs	r6, [r5], #-2915	; 0xfffff49d
    a11c:	615f5f20 	cmpvs	pc, r0, lsr #30
    a120:	69727474 	ldmdbvs	r2!, {r2, r4, r5, r6, sl, ip, sp, lr}^
    a124:	65747562 	ldrbvs	r7, [r4, #-1378]!	; 0xfffffa9e
    a128:	28285f5f 	stmdacs	r8!, {r0, r1, r2, r3, r4, r6, r8, r9, sl, fp, ip, lr}
    a12c:	61705f5f 	cmnvs	r0, pc, asr pc
    a130:	64656b63 	strbtvs	r6, [r5], #-2915	; 0xfffff49d
    a134:	29295f5f 	stmdbcs	r9!, {r0, r1, r2, r3, r4, r6, r8, r9, sl, fp, ip, lr}
    a138:	43575f00 	cmpmi	r7, #0, 30
    a13c:	5f524148 	svcpl	0x00524148
    a140:	45445f54 	strbmi	r5, [r4, #-3924]	; 0xfffff0ac
    a144:	454e4946 	strbmi	r4, [lr, #-2374]	; 0xfffff6ba
    a148:	00205f44 	eoreq	r5, r0, r4, asr #30
    a14c:	334d5453 	movtcc	r5, #54355	; 0xd453
    a150:	20314632 	eorscs	r4, r1, r2, lsr r6
    a154:	32490031 	subcc	r0, r9, #49	; 0x31
    a158:	52435f43 	subpl	r5, r3, #268	; 0x10c
    a15c:	4e455f31 	mcrmi	15, 2, r5, cr5, cr1, {1}
    a160:	5f434550 	svcpl	0x00434550
    a164:	206b734d 	rsbcs	r7, fp, sp, asr #6
    a168:	31783028 	cmncc	r8, r8, lsr #32
    a16c:	3c204c55 	stccc	12, cr4, [r0], #-340	; 0xfffffeac
    a170:	3249203c 	subcc	r2, r9, #60	; 0x3c
    a174:	52435f43 	subpl	r5, r3, #268	; 0x10c
    a178:	4e455f31 	mcrmi	15, 2, r5, cr5, cr1, {1}
    a17c:	5f434550 	svcpl	0x00434550
    a180:	29736f50 	ldmdbcs	r3!, {r4, r6, r8, r9, sl, fp, sp, lr}^
    a184:	615f5f00 	cmpvs	pc, r0, lsl #30
    a188:	72657373 	rsbvc	r7, r5, #-872415231	; 0xcc000001
    a18c:	735f7374 	cmpvc	pc, #116, 6	; 0xd0000001
    a190:	65726168 	ldrbvs	r6, [r2, #-360]!	; 0xfffffe98
    a194:	2e2e2864 	cdpcs	8, 2, cr2, cr14, cr4, {3}
    a198:	5f20292e 	svcpl	0x0020292e
    a19c:	636f6c5f 	cmnvs	pc, #24320	; 0x5f00
    a1a0:	6e615f6b 	cdpvs	15, 6, cr5, cr1, cr11, {3}
    a1a4:	61746f6e 	cmnvs	r4, lr, ror #30
    a1a8:	61286574 			; <UNDEFINED> instruction: 0x61286574
    a1ac:	72657373 	rsbvc	r7, r5, #-872415231	; 0xcc000001
    a1b0:	68735f74 	ldmdavs	r3!, {r2, r4, r5, r6, r8, r9, sl, fp, ip, lr}^
    a1b4:	64657261 	strbtvs	r7, [r5], #-609	; 0xfffffd9f
    a1b8:	636f6c5f 	cmnvs	pc, #24320	; 0x5f00
    a1bc:	5f5f286b 	svcpl	0x005f286b
    a1c0:	415f4156 	cmpmi	pc, r6, asr r1	; <UNPREDICTABLE>
    a1c4:	5f534752 	svcpl	0x00534752
    a1c8:	0029295f 	eoreq	r2, r9, pc, asr r9
    a1cc:	59535f5f 	ldmdbpl	r3, {r0, r1, r2, r3, r4, r6, r8, r9, sl, fp, ip, lr}^
    a1d0:	4f4c5f53 	svcmi	0x004c5f53
    a1d4:	485f4b43 	ldmdami	pc, {r0, r1, r6, r8, r9, fp, lr}^	; <UNPREDICTABLE>
    a1d8:	00205f5f 	eoreq	r5, r0, pc, asr pc
    a1dc:	6e695f5f 	mcrvs	15, 3, r5, cr9, cr15, {2}
    a1e0:	00303274 	eorseq	r3, r0, r4, ror r2
    a1e4:	4e414e5f 	mcrmi	14, 2, r4, cr1, cr15, {2}
    a1e8:	4f465f4f 	svcmi	0x00465f4f
    a1ec:	54414d52 	strbpl	r4, [r1], #-3410	; 0xfffff2ae
    a1f0:	5f444554 	svcpl	0x00444554
    a1f4:	31204f49 			; <UNDEFINED> instruction: 0x31204f49
    a1f8:	544e4900 	strbpl	r4, [lr], #-2304	; 0xfffff700
    a1fc:	5341465f 	movtpl	r4, #5727	; 0x165f
    a200:	5f323354 	svcpl	0x00323354
    a204:	2058414d 	subscs	r4, r8, sp, asr #2
    a208:	495f5f28 	ldmdbmi	pc, {r3, r5, r8, r9, sl, fp, ip, lr}^	; <UNPREDICTABLE>
    a20c:	465f544e 	ldrbmi	r5, [pc], -lr, asr #8
    a210:	33545341 	cmpcc	r4, #67108865	; 0x4000001
    a214:	414d5f32 	cmpmi	sp, r2, lsr pc
    a218:	295f5f58 	ldmdbcs	pc, {r3, r4, r6, r8, r9, sl, fp, ip, lr}^	; <UNPREDICTABLE>
    a21c:	465f5f00 	ldrbmi	r5, [pc], -r0, lsl #30
    a220:	3233544c 	eorscc	r5, r3, #76, 8	; 0x4c000000
    a224:	524f4e5f 	subpl	r4, pc, #1520	; 0x5f0
    a228:	414d5f4d 	cmpmi	sp, sp, asr #30
    a22c:	205f5f58 	subscs	r5, pc, r8, asr pc	; <UNPREDICTABLE>
    a230:	30342e33 	eorscc	r2, r4, r3, lsr lr
    a234:	33323832 	teqcc	r2, #3276800	; 0x320000
    a238:	33363634 	teqcc	r6, #52, 12	; 0x3400000
    a23c:	38323538 	ldmdacc	r2!, {r3, r4, r5, r8, sl, ip, sp}
    a240:	2b653638 	blcs	1957b28 <_Min_Stack_Size+0x1957728>
    a244:	33463833 	movtcc	r3, #26675	; 0x6833
    a248:	525f0032 	subspl	r0, pc, #50	; 0x32
    a24c:	544e4545 	strbpl	r4, [lr], #-1349	; 0xfffffabb
    a250:	4353415f 	cmpmi	r3, #-1073741801	; 0xc0000017
    a254:	454d4954 	strbmi	r4, [sp, #-2388]	; 0xfffff6ac
    a258:	5a49535f 	bpl	125efdc <_Min_Stack_Size+0x125ebdc>
    a25c:	36322045 	ldrtcc	r2, [r2], -r5, asr #32
    a260:	544e4900 	strbpl	r4, [lr], #-2304	; 0xfffff700
    a264:	5f525450 	svcpl	0x00525450
    a268:	204e494d 	subcs	r4, lr, sp, asr #18
    a26c:	5f5f2d28 	svcpl	0x005f2d28
    a270:	50544e49 	subspl	r4, r4, r9, asr #28
    a274:	4d5f5254 	lfmmi	f5, 2, [pc, #-336]	; a12c <_Min_Stack_Size+0x9d2c>
    a278:	5f5f5841 	svcpl	0x005f5841
    a27c:	31202d20 			; <UNDEFINED> instruction: 0x31202d20
    a280:	54500029 	ldrbpl	r0, [r0], #-41	; 0xffffffd7
    a284:	46494452 			; <UNDEFINED> instruction: 0x46494452
    a288:	494d5f46 	stmdbmi	sp, {r1, r2, r6, r8, r9, sl, fp, ip, lr}^
    a28c:	2d28204e 	stccs	0, cr2, [r8, #-312]!	; 0xfffffec8
    a290:	44525450 	ldrbmi	r5, [r2], #-1104	; 0xfffffbb0
    a294:	5f464649 	svcpl	0x00464649
    a298:	2058414d 	subscs	r4, r8, sp, asr #2
    a29c:	2931202d 	ldmdbcs	r1!, {r0, r2, r3, r5, sp}
    a2a0:	4f505f00 	svcmi	0x00505f00
    a2a4:	5f584953 	svcpl	0x00584953
    a2a8:	4f535f43 	svcmi	0x00535f43
    a2ac:	45435255 	strbmi	r5, [r3, #-597]	; 0xfffffdab
    a2b0:	555f5f00 	ldrbpl	r5, [pc, #-3840]	; 93b8 <_Min_Stack_Size+0x8fb8>
    a2b4:	4d544e49 	ldclmi	14, cr4, [r4, #-292]	; 0xfffffedc
    a2b8:	4d5f5841 	ldclmi	8, cr5, [pc, #-260]	; a1bc <_Min_Stack_Size+0x9dbc>
    a2bc:	5f5f5841 	svcpl	0x005f5841
    a2c0:	66783020 	ldrbtvs	r3, [r8], -r0, lsr #32
    a2c4:	66666666 	strbtvs	r6, [r6], -r6, ror #12
    a2c8:	66666666 	strbtvs	r6, [r6], -r6, ror #12
    a2cc:	66666666 	strbtvs	r6, [r6], -r6, ror #12
    a2d0:	55666666 	strbpl	r6, [r6, #-1638]!	; 0xfffff99a
    a2d4:	4e004c4c 	cdpmi	12, 0, cr4, cr0, cr12, {2}
    a2d8:	5f434956 	svcpl	0x00434956
    a2dc:	32515249 	subscc	r5, r1, #-1879048188	; 0x90000004
    a2e0:	58455f33 	stmdapl	r5, {r0, r1, r4, r5, r8, r9, sl, fp, ip, lr}^
    a2e4:	5f354954 	svcpl	0x00354954
    a2e8:	69445f39 	stmdbvs	r4, {r0, r3, r4, r5, r8, r9, sl, fp, ip, lr}^
    a2ec:	6c626173 	stfvse	f6, [r2], #-460	; 0xfffffe34
    a2f0:	4e282065 	cdpmi	0, 2, cr2, cr8, cr5, {3}
    a2f4:	5f434956 	svcpl	0x00434956
    a2f8:	52454349 	subpl	r4, r5, #603979777	; 0x24000001
    a2fc:	3d7c2030 	ldclcc	0, cr2, [ip, #-192]!	; 0xffffff40
    a300:	3c3c3120 	ldfccs	f3, [ip], #-128	; 0xffffff80
    a304:	00293332 	eoreq	r3, r9, r2, lsr r3
    a308:	42445f5f 	submi	r5, r4, #380	; 0x17c
    a30c:	414d5f4c 	cmpmi	sp, ip, asr #30
    a310:	445f544e 	ldrbmi	r5, [pc], #-1102	; a318 <_Min_Stack_Size+0x9f18>
    a314:	5f5f4749 	svcpl	0x005f4749
    a318:	00333520 	eorseq	r3, r3, r0, lsr #10
    a31c:	4c555f5f 	mrrcmi	15, 5, r5, r5, cr15	; <UNPREDICTABLE>
    a320:	43415246 	movtmi	r5, #4678	; 0x1246
    a324:	42495f54 	submi	r5, r9, #84, 30	; 0x150
    a328:	5f5f5449 	svcpl	0x005f5449
    a32c:	45003020 	strmi	r3, [r0, #-32]	; 0xffffffe0
    a330:	33495458 	movtcc	r5, #37976	; 0x9458
    a334:	20334150 	eorscs	r4, r3, r0, asr r1
    a338:	54584528 	ldrbpl	r4, [r8], #-1320	; 0xfffffad8
    a33c:	50475f49 	subpl	r5, r7, r9, asr #30
    a340:	4d5f4f49 	ldclmi	15, cr4, [pc, #-292]	; a224 <_Min_Stack_Size+0x9e24>
    a344:	6e697061 	cdpvs	0, 6, cr7, cr9, cr1, {3}
    a348:	29745f67 	ldmdbcs	r4!, {r0, r1, r2, r5, r6, r8, r9, sl, fp, ip, lr}^
    a34c:	5458457b 	ldrbpl	r4, [r8], #-1403	; 0xfffffa85
    a350:	202c3349 	eorcs	r3, ip, r9, asr #6
    a354:	4f495047 	svcmi	0x00495047
    a358:	47202c41 	strmi	r2, [r0, -r1, asr #24]!
    a35c:	5f4f4950 	svcpl	0x004f4950
    a360:	5f4e4950 	svcpl	0x004e4950
    a364:	45202c33 	strmi	r2, [r0, #-3123]!	; 0xfffff3cd
    a368:	33495458 	movtcc	r5, #37976	; 0x9458
    a36c:	5152495f 	cmppl	r2, pc, asr r9
    a370:	5f5f007d 	svcpl	0x005f007d
    a374:	61736f6e 	cmnvs	r3, lr, ror #30
    a378:	6974696e 	ldmdbvs	r4!, {r1, r2, r3, r5, r6, r8, fp, sp, lr}^
    a37c:	6874657a 	ldmdavs	r4!, {r1, r3, r4, r5, r6, r8, sl, sp, lr}^
    a380:	64616572 	strbtvs	r6, [r1], #-1394	; 0xfffffa8e
    a384:	5f5f0020 	svcpl	0x005f0020
    a388:	5f544e49 	svcpl	0x00544e49
    a38c:	54534146 	ldrbpl	r4, [r3], #-326	; 0xfffffeba
    a390:	575f3436 	smmlarpl	pc, r6, r4, r3	; <UNPREDICTABLE>
    a394:	48544449 	ldmdami	r4, {r0, r3, r6, sl, lr}^
    a398:	36205f5f 	qsaxcc	r5, r0, pc	; <UNPREDICTABLE>
    a39c:	5f5f0034 	svcpl	0x005f0034
    a3a0:	5f544e49 	svcpl	0x00544e49
    a3a4:	5f58414d 	svcpl	0x0058414d
    a3a8:	7830205f 	ldmdavc	r0!, {r0, r1, r2, r3, r4, r6, sp}
    a3ac:	66666637 			; <UNDEFINED> instruction: 0x66666637
    a3b0:	66666666 	strbtvs	r6, [r6], -r6, ror #12
    a3b4:	495f5f00 	ldmdbmi	pc, {r8, r9, sl, fp, ip, lr}^	; <UNPREDICTABLE>
    a3b8:	4c5f544e 	cfldrdmi	mvd5, [pc], {78}	; 0x4e
    a3bc:	54534145 	ldrbpl	r4, [r3], #-325	; 0xfffffebb
    a3c0:	545f3436 	ldrbpl	r3, [pc], #-1078	; a3c8 <_Min_Stack_Size+0x9fc8>
    a3c4:	5f455059 	svcpl	0x00455059
    a3c8:	6f6c205f 	svcvs	0x006c205f
    a3cc:	6c20676e 	stcvs	7, cr6, [r0], #-440	; 0xfffffe48
    a3d0:	20676e6f 	rsbcs	r6, r7, pc, ror #28
    a3d4:	00746e69 	rsbseq	r6, r4, r9, ror #28
    a3d8:	62616e45 	rsbvs	r6, r1, #1104	; 0x450
    a3dc:	4e5f656c 	cdpmi	5, 5, cr6, cr15, cr12, {3}
    a3e0:	00434956 	subeq	r4, r3, r6, asr r9
    a3e4:	4f495047 	svcmi	0x00495047
    a3e8:	4e49505f 	mcrmi	0, 2, r5, cr9, cr15, {2}
    a3ec:	4c4c415f 	stfmie	f4, [ip], {95}	; 0x5f
    a3f0:	75282820 	strvc	r2, [r8, #-2080]!	; 0xfffff7e0
    a3f4:	31746e69 	cmncc	r4, r9, ror #28
    a3f8:	29745f36 	ldmdbcs	r4!, {r1, r2, r4, r5, r8, r9, sl, fp, ip, lr}^
    a3fc:	46467830 			; <UNDEFINED> instruction: 0x46467830
    a400:	00294646 	eoreq	r4, r9, r6, asr #12
    a404:	52415f5f 	subpl	r5, r1, #380	; 0x17c
    a408:	45465f4d 	strbmi	r5, [r6, #-3917]	; 0xfffff0b3
    a40c:	52555441 	subspl	r5, r5, #1090519040	; 0x41000000
    a410:	44435f45 	strbmi	r5, [r3], #-3909	; 0xfffff0bb
    a414:	4f435f45 	svcmi	0x00435f45
    a418:	434f5250 	movtmi	r5, #62032	; 0xf250
    a41c:	54584500 	ldrbpl	r4, [r8], #-1280	; 0xfffffb00
    a420:	44503549 	ldrbmi	r3, [r0], #-1353	; 0xfffffab7
    a424:	45282035 	strmi	r2, [r8, #-53]!	; 0xffffffcb
    a428:	5f495458 	svcpl	0x00495458
    a42c:	4f495047 	svcmi	0x00495047
    a430:	70614d5f 	rsbvc	r4, r1, pc, asr sp
    a434:	5f676e69 	svcpl	0x00676e69
    a438:	457b2974 	ldrbmi	r2, [fp, #-2420]!	; 0xfffff68c
    a43c:	35495458 	strbcc	r5, [r9, #-1112]	; 0xfffffba8
    a440:	5047202c 	subpl	r2, r7, ip, lsr #32
    a444:	2c444f49 	mcrrcs	15, 4, r4, r4, cr9
    a448:	49504720 	ldmdbmi	r0, {r5, r8, r9, sl, lr}^
    a44c:	49505f4f 	ldmdbmi	r0, {r0, r1, r2, r3, r6, r8, r9, sl, fp, ip, lr}^
    a450:	2c355f4e 	ldccs	15, cr5, [r5], #-312	; 0xfffffec8
    a454:	54584520 	ldrbpl	r4, [r8], #-1312	; 0xfffffae0
    a458:	495f3549 	ldmdbmi	pc, {r0, r3, r6, r8, sl, ip, sp}^	; <UNPREDICTABLE>
    a45c:	007d5152 	rsbseq	r5, sp, r2, asr r1
    a460:	49545845 	ldmdbmi	r4, {r0, r2, r6, fp, ip, lr}^
    a464:	35415035 	strbcc	r5, [r1, #-53]	; 0xffffffcb
    a468:	58452820 	stmdapl	r5, {r5, fp, sp}^
    a46c:	475f4954 			; <UNDEFINED> instruction: 0x475f4954
    a470:	5f4f4950 	svcpl	0x004f4950
    a474:	6970614d 	ldmdbvs	r0!, {r0, r2, r3, r6, r8, sp, lr}^
    a478:	745f676e 	ldrbvc	r6, [pc], #-1902	; a480 <_Min_Stack_Size+0xa080>
    a47c:	58457b29 	stmdapl	r5, {r0, r3, r5, r8, r9, fp, ip, sp, lr}^
    a480:	2c354954 			; <UNDEFINED> instruction: 0x2c354954
    a484:	49504720 	ldmdbmi	r0, {r5, r8, r9, sl, lr}^
    a488:	202c414f 	eorcs	r4, ip, pc, asr #2
    a48c:	4f495047 	svcmi	0x00495047
    a490:	4e49505f 	mcrmi	0, 2, r5, cr9, cr15, {2}
    a494:	202c355f 	eorcs	r3, ip, pc, asr r5
    a498:	49545845 	ldmdbmi	r4, {r0, r2, r6, fp, ip, lr}^
    a49c:	52495f35 	subpl	r5, r9, #53, 30	; 0xd4
    a4a0:	45007d51 	strmi	r7, [r0, #-3409]	; 0xfffff2af
    a4a4:	31495458 	cmpcc	r9, r8, asr r4
    a4a8:	31445030 	cmpcc	r4, r0, lsr r0
    a4ac:	45282030 	strmi	r2, [r8, #-48]!	; 0xffffffd0
    a4b0:	5f495458 	svcpl	0x00495458
    a4b4:	4f495047 	svcmi	0x00495047
    a4b8:	70614d5f 	rsbvc	r4, r1, pc, asr sp
    a4bc:	5f676e69 	svcpl	0x00676e69
    a4c0:	457b2974 	ldrbmi	r2, [fp, #-2420]!	; 0xfffff68c
    a4c4:	31495458 	cmpcc	r9, r8, asr r4
    a4c8:	47202c30 			; <UNDEFINED> instruction: 0x47202c30
    a4cc:	444f4950 	strbmi	r4, [pc], #-2384	; a4d4 <_Min_Stack_Size+0xa0d4>
    a4d0:	5047202c 	subpl	r2, r7, ip, lsr #32
    a4d4:	505f4f49 	subspl	r4, pc, r9, asr #30
    a4d8:	315f4e49 	cmpcc	pc, r9, asr #28
    a4dc:	45202c30 	strmi	r2, [r0, #-3120]!	; 0xfffff3d0
    a4e0:	31495458 	cmpcc	r9, r8, asr r4
    a4e4:	52495f30 	subpl	r5, r9, #48, 30	; 0xc0
    a4e8:	43007d51 	movwmi	r7, #3409	; 0xd51
    a4ec:	00524746 	subseq	r4, r2, r6, asr #14
    a4f0:	5f746547 	svcpl	0x00746547
    a4f4:	484c5243 	stmdami	ip, {r0, r1, r6, r9, ip, lr}^
    a4f8:	736f505f 	cmnvc	pc, #95	; 0x5f
    a4fc:	6f697469 	svcvs	0x00697469
    a500:	5041006e 	subpl	r0, r1, lr, rrx
    a504:	4e453242 	cdpmi	2, 4, cr3, cr5, cr2, {2}
    a508:	43520052 	cmpmi	r2, #82	; 0x52
    a50c:	79545f43 	ldmdbvc	r4, {r0, r1, r6, r8, r9, sl, fp, ip, lr}^
    a510:	65646570 	strbvs	r6, [r4, #-1392]!	; 0xfffffa90
    a514:	434d0066 	movtmi	r0, #53350	; 0xd066
    a518:	475f4c41 	ldrbmi	r4, [pc, -r1, asr #24]
    a51c:	5f4f4950 	svcpl	0x004f4950
    a520:	67676f54 			; <UNDEFINED> instruction: 0x67676f54
    a524:	6950656c 	ldmdbvs	r0, {r2, r3, r5, r6, r8, sl, sp, lr}^
    a528:	434d006e 	movtmi	r0, #53358	; 0xd06e
    a52c:	475f4c41 	ldrbmi	r4, [pc, -r1, asr #24]
    a530:	5f4f4950 	svcpl	0x004f4950
    a534:	74697257 	strbtvc	r7, [r9], #-599	; 0xfffffda9
    a538:	6e695065 	cdpvs	0, 6, cr5, cr9, cr5, {3}
    a53c:	43444200 	movtmi	r4, #16896	; 0x4200
    a540:	50470052 	subpl	r0, r7, r2, asr r0
    a544:	00784f49 	rsbseq	r4, r8, r9, asr #30
    a548:	5f6e6970 	svcpl	0x006e6970
    a54c:	666e6f63 	strbtvs	r6, [lr], -r3, ror #30
    a550:	4d006769 	stcmi	7, cr6, [r0, #-420]	; 0xfffffe5c
    a554:	5f4c4143 	svcpl	0x004c4143
    a558:	4f495047 	svcmi	0x00495047
    a55c:	6165525f 	cmnvs	r5, pc, asr r2
    a560:	6e695064 	cdpvs	0, 6, cr5, cr9, cr4, {3}
    a564:	41434d00 	cmpmi	r3, r0, lsl #26
    a568:	50475f4c 	subpl	r5, r7, ip, asr #30
    a56c:	4c5f4f49 	mrrcmi	15, 4, r4, pc, cr9	; <UNPREDICTABLE>
    a570:	506b636f 	rsbpl	r6, fp, pc, ror #6
    a574:	47006e69 	strmi	r6, [r0, -r9, ror #28]
    a578:	5f4f4950 	svcpl	0x004f4950
    a57c:	436e6950 	cmnmi	lr, #80, 18	; 0x140000
    a580:	69666e6f 	stmdbvs	r6!, {r0, r1, r2, r3, r5, r6, r9, sl, fp, sp, lr}^
    a584:	6f630067 	svcvs	0x00630067
    a588:	6769666e 	strbvs	r6, [r9, -lr, ror #12]!
    a58c:	6765725f 			; <UNDEFINED> instruction: 0x6765725f
    a590:	65747369 	ldrbvs	r7, [r4, #-873]!	; 0xfffffc97
    a594:	50410072 	subpl	r0, r1, r2, ror r0
    a598:	53523242 	cmppl	r2, #536870916	; 0x20000004
    a59c:	4d005254 	sfmmi	f5, 4, [r0, #-336]	; 0xfffffeb0
    a5a0:	5f4c4143 	svcpl	0x004c4143
    a5a4:	4f495047 	svcmi	0x00495047
    a5a8:	6972575f 	ldmdbvs	r2!, {r0, r1, r2, r3, r4, r6, r8, r9, sl, ip, lr}^
    a5ac:	6f506574 	svcvs	0x00506574
    a5b0:	41007472 	tstmi	r0, r2, ror r4
    a5b4:	52314250 	eorspl	r4, r1, #80, 4
    a5b8:	00525453 	subseq	r5, r2, r3, asr r4
    a5bc:	31425041 	cmpcc	r2, r1, asr #32
    a5c0:	00524e45 	subseq	r4, r2, r5, asr #28
    a5c4:	4c41434d 	mcrrmi	3, 4, r4, r1, cr13
    a5c8:	4950475f 	ldmdbmi	r0, {r0, r1, r2, r3, r4, r6, r8, r9, sl, lr}^
    a5cc:	65445f4f 	strbvs	r5, [r4, #-3919]	; 0xfffff0b1
    a5d0:	74696e49 	strbtvc	r6, [r9], #-3657	; 0xfffff1b7
    a5d4:	726f7000 	rsbvc	r7, pc, #0
    a5d8:	61765f74 	cmnvs	r6, r4, ror pc
    a5dc:	0065756c 	rsbeq	r7, r5, ip, ror #10
    a5e0:	492f2e2e 	stmdbmi	pc!, {r1, r2, r3, r5, r9, sl, fp, sp}	; <UNPREDICTABLE>
    a5e4:	492f636e 	stmdbmi	pc!, {r1, r2, r3, r5, r6, r8, r9, sp, lr}	; <UNPREDICTABLE>
    a5e8:	732f636e 			; <UNDEFINED> instruction: 0x732f636e
    a5ec:	32336d74 	eorscc	r6, r3, #116, 26	; 0x1d00
    a5f0:	33303166 	teqcc	r0, #-2147483623	; 0x80000019
    a5f4:	475f3863 	ldrbmi	r3, [pc, -r3, ror #16]
    a5f8:	2e4f4950 			; <UNDEFINED> instruction: 0x2e4f4950
    a5fc:	69620063 	stmdbvs	r2!, {r0, r1, r5, r6}^
    a600:	61747374 	cmnvs	r4, r4, ror r3
    a604:	00737574 	rsbseq	r7, r3, r4, ror r5
    a608:	45424841 	strbmi	r4, [r2, #-2113]	; 0xfffff7bf
    a60c:	4d00524e 	sfmmi	f5, 4, [r0, #-312]	; 0xfffffec8
    a610:	5f4c4143 	svcpl	0x004c4143
    a614:	4f495047 	svcmi	0x00495047
    a618:	6165525f 	cmnvs	r5, pc, asr r2
    a61c:	726f5064 	rsbvc	r5, pc, #100	; 0x64
    a620:	61560074 	cmpvs	r6, r4, ror r0
    a624:	0065756c 	rsbeq	r7, r5, ip, ror #10
    a628:	706d6574 	rsbvc	r6, sp, r4, ror r5
    a62c:	54584500 	ldrbpl	r4, [r8], #-1280	; 0xfffffb00
    a630:	495f3949 	ldmdbmi	pc, {r0, r3, r6, r8, fp, ip, sp}^	; <UNPREDICTABLE>
    a634:	665f5152 			; <UNDEFINED> instruction: 0x665f5152
    a638:	69006e75 	stmdbvs	r0, {r0, r2, r4, r5, r6, r9, sl, fp, sp, lr}
    a63c:	5f727370 	svcpl	0x00727370
    a640:	006c6176 	rsbeq	r6, ip, r6, ror r1
    a644:	314c4156 	cmpcc	ip, r6, asr r1
    a648:	4c415600 	mcrrmi	6, 0, r5, r1, cr0
    a64c:	41560032 	cmpmi	r6, r2, lsr r0
    a650:	6d00334c 	stcvs	3, cr3, [r0, #-304]	; 0xfffffed0
    a654:	006e6961 	rsbeq	r6, lr, r1, ror #18
    a658:	746e6f63 	strbtvc	r6, [lr], #-3939	; 0xfffff09d
    a65c:	5f6c6f72 	svcpl	0x006c6f72
    a660:	006c6176 	rsbeq	r6, ip, r6, ror r1
    a664:	5f515249 	svcpl	0x00515249
    a668:	67616c46 	strbvs	r6, [r1, -r6, asr #24]!
    a66c:	2f2e2e00 	svccs	0x002e2e00
    a670:	2f637253 	svccs	0x00637253
    a674:	6e69616d 	powvsez	f6, f1, #5.0
    a678:	4500632e 	strmi	r6, [r0, #-814]	; 0xfffffcd2
    a67c:	5f495458 	svcpl	0x00495458
    a680:	00474643 	subeq	r4, r7, r3, asr #12
    a684:	532f2e2e 			; <UNDEFINED> instruction: 0x532f2e2e
    a688:	74726174 	ldrbtvc	r6, [r2], #-372	; 0xfffffe8c
    a68c:	732f7075 			; <UNDEFINED> instruction: 0x732f7075
    a690:	74726174 	ldrbtvc	r6, [r2], #-372	; 0xfffffe8c
    a694:	735f7075 	cmpvc	pc, #117	; 0x75
    a698:	32336d74 	eorscc	r6, r3, #116, 26	; 0x1d00
    a69c:	33303166 	teqcc	r0, #-2147483623	; 0x80000019
    a6a0:	78743863 	ldmdavc	r4!, {r0, r1, r5, r6, fp, ip, sp}^
    a6a4:	4700732e 	strmi	r7, [r0, -lr, lsr #6]
    a6a8:	4120554e 			; <UNDEFINED> instruction: 0x4120554e
    a6ac:	2e322053 	mrccs	0, 1, r2, cr2, cr3, {2}
    a6b0:	Address 0x000000000000a6b0 is out of bounds.


Disassembly of section .debug_frame:

00000000 <.debug_frame>:
   0:	0000000c 	andeq	r0, r0, ip
   4:	ffffffff 			; <UNDEFINED> instruction: 0xffffffff
   8:	7c020001 	stcvc	0, cr0, [r2], {1}
   c:	000d0c0e 	andeq	r0, sp, lr, lsl #24
  10:	00000024 	andeq	r0, r0, r4, lsr #32
  14:	00000000 	andeq	r0, r0, r0
  18:	08000170 	stmdaeq	r0, {r4, r5, r6, r8}
  1c:	000000cc 	andeq	r0, r0, ip, asr #1
  20:	87040e41 	strhi	r0, [r4, -r1, asr #28]
  24:	100e4101 	andne	r4, lr, r1, lsl #2
  28:	02070d41 	andeq	r0, r7, #4160	; 0x1040
  2c:	41040e5c 	tstmi	r4, ip, asr lr
  30:	c7410d0d 	strbgt	r0, [r1, -sp, lsl #26]
  34:	0000000e 	andeq	r0, r0, lr
  38:	00000024 	andeq	r0, r0, r4, lsr #32
  3c:	00000000 	andeq	r0, r0, r0
  40:	0800023c 	stmdaeq	r0, {r2, r3, r4, r5, r9}
  44:	000000cc 	andeq	r0, r0, ip, asr #1
  48:	87040e41 	strhi	r0, [r4, -r1, asr #28]
  4c:	100e4101 	andne	r4, lr, r1, lsl #2
  50:	02070d41 	andeq	r0, r7, #4160	; 0x1040
  54:	41040e5c 	tstmi	r4, ip, asr lr
  58:	c7410d0d 	strbgt	r0, [r1, -sp, lsl #26]
  5c:	0000000e 	andeq	r0, r0, lr
  60:	00000020 	andeq	r0, r0, r0, lsr #32
  64:	00000000 	andeq	r0, r0, r0
  68:	08000308 	stmdaeq	r0, {r3, r8, r9}
  6c:	000001d8 	ldrdeq	r0, [r0], -r8
  70:	87080e41 	strhi	r0, [r8, -r1, asr #28]
  74:	41018e02 	tstmi	r1, r2, lsl #28
  78:	0d41180e 	stcleq	8, cr1, [r1, #-56]	; 0xffffffc8
  7c:	0ed90207 	cdpeq	2, 13, cr0, cr9, cr7, {0}
  80:	0d0d4108 	stfeqs	f4, [sp, #-32]	; 0xffffffe0
  84:	0000001c 	andeq	r0, r0, ip, lsl r0
	...
  90:	00000094 	muleq	r0, r4, r0
  94:	87040e41 	strhi	r0, [r4, -r1, asr #28]
  98:	070d4101 	streq	r4, [sp, -r1, lsl #2]
  9c:	410d0d7f 	tstmi	sp, pc, ror sp
  a0:	00000ec7 	andeq	r0, r0, r7, asr #29
  a4:	00000020 	andeq	r0, r0, r0, lsr #32
  a8:	00000000 	andeq	r0, r0, r0
  ac:	080004e0 	stmdaeq	r0, {r5, r6, r7, sl}
  b0:	00000016 	andeq	r0, r0, r6, lsl r0
  b4:	87080e41 	strhi	r0, [r8, -r1, asr #28]
  b8:	41018e02 	tstmi	r1, r2, lsl #28
  bc:	0d41100e 	stcleq	0, cr1, [r1, #-56]	; 0xffffffc8
  c0:	080e4607 	stmdaeq	lr, {r0, r1, r2, r9, sl, lr}
  c4:	000d0d41 	andeq	r0, sp, r1, asr #26
  c8:	00000024 	andeq	r0, r0, r4, lsr #32
	...
  d4:	00000012 	andeq	r0, r0, r2, lsl r0
  d8:	87040e41 	strhi	r0, [r4, -r1, asr #28]
  dc:	100e4101 	andne	r4, lr, r1, lsl #2
  e0:	43070d41 	movwmi	r0, #32065	; 0x7d41
  e4:	0d41040e 	cfstrdeq	mvd0, [r1, #-56]	; 0xffffffc8
  e8:	0ec7410d 	poleqs	f4, f7, #5.0
  ec:	00000000 	andeq	r0, r0, r0
  f0:	00000018 	andeq	r0, r0, r8, lsl r0
  f4:	00000000 	andeq	r0, r0, r0
  f8:	080004f8 	stmdaeq	r0, {r3, r4, r5, r6, r7, sl}
  fc:	00000024 	andeq	r0, r0, r4, lsr #32
 100:	87080e41 	strhi	r0, [r8, -r1, asr #28]
 104:	41018e02 	tstmi	r1, r2, lsl #28
 108:	0000070d 	andeq	r0, r0, sp, lsl #14
 10c:	00000018 	andeq	r0, r0, r8, lsl r0
 110:	00000000 	andeq	r0, r0, r0
 114:	0800051c 	stmdaeq	r0, {r2, r3, r4, r8, sl}
 118:	00000024 	andeq	r0, r0, r4, lsr #32
 11c:	87080e41 	strhi	r0, [r8, -r1, asr #28]
 120:	41018e02 	tstmi	r1, r2, lsl #28
 124:	0000070d 	andeq	r0, r0, sp, lsl #14
 128:	00000018 	andeq	r0, r0, r8, lsl r0
 12c:	00000000 	andeq	r0, r0, r0
 130:	08000540 	stmdaeq	r0, {r6, r8, sl}
 134:	00000024 	andeq	r0, r0, r4, lsr #32
 138:	87080e41 	strhi	r0, [r8, -r1, asr #28]
 13c:	41018e02 	tstmi	r1, r2, lsl #28
 140:	0000070d 	andeq	r0, r0, sp, lsl #14
 144:	00000018 	andeq	r0, r0, r8, lsl r0
 148:	00000000 	andeq	r0, r0, r0
 14c:	08000564 	stmdaeq	r0, {r2, r5, r6, r8, sl}
 150:	00000024 	andeq	r0, r0, r4, lsr #32
 154:	87080e41 	strhi	r0, [r8, -r1, asr #28]
 158:	41018e02 	tstmi	r1, r2, lsl #28
 15c:	0000070d 	andeq	r0, r0, sp, lsl #14
 160:	00000018 	andeq	r0, r0, r8, lsl r0
 164:	00000000 	andeq	r0, r0, r0
 168:	08000588 	stmdaeq	r0, {r3, r7, r8, sl}
 16c:	00000024 	andeq	r0, r0, r4, lsr #32
 170:	87080e41 	strhi	r0, [r8, -r1, asr #28]
 174:	41018e02 	tstmi	r1, r2, lsl #28
 178:	0000070d 	andeq	r0, r0, sp, lsl #14
 17c:	00000018 	andeq	r0, r0, r8, lsl r0
 180:	00000000 	andeq	r0, r0, r0
 184:	080005ac 	stmdaeq	r0, {r2, r3, r5, r7, r8, sl}
 188:	000000a8 	andeq	r0, r0, r8, lsr #1
 18c:	87080e41 	strhi	r0, [r8, -r1, asr #28]
 190:	41018e02 	tstmi	r1, r2, lsl #28
 194:	0000070d 	andeq	r0, r0, sp, lsl #14
 198:	00000018 	andeq	r0, r0, r8, lsl r0
 19c:	00000000 	andeq	r0, r0, r0
 1a0:	08000654 	stmdaeq	r0, {r2, r4, r6, r9, sl}
 1a4:	000000c4 	andeq	r0, r0, r4, asr #1
 1a8:	87080e41 	strhi	r0, [r8, -r1, asr #28]
 1ac:	41018e02 	tstmi	r1, r2, lsl #28
 1b0:	0000070d 	andeq	r0, r0, sp, lsl #14
 1b4:	0000000c 	andeq	r0, r0, ip
 1b8:	ffffffff 			; <UNDEFINED> instruction: 0xffffffff
 1bc:	7c020001 	stcvc	0, cr0, [r2], {1}
 1c0:	000d0c0e 	andeq	r0, sp, lr, lsl #24
 1c4:	00000024 	andeq	r0, r0, r4, lsr #32
 1c8:	000001b4 			; <UNDEFINED> instruction: 0x000001b4
 1cc:	08000718 	stmdaeq	r0, {r3, r4, r8, r9, sl}
 1d0:	0000016e 	andeq	r0, r0, lr, ror #2
 1d4:	87040e41 	strhi	r0, [r4, -r1, asr #28]
 1d8:	100e4101 	andne	r4, lr, r1, lsl #2
 1dc:	02070d41 	andeq	r0, r7, #4160	; 0x1040
 1e0:	41040eb1 			; <UNDEFINED> instruction: 0x41040eb1
 1e4:	c7410d0d 	strbgt	r0, [r1, -sp, lsl #26]
 1e8:	0000000e 	andeq	r0, r0, lr
 1ec:	00000024 	andeq	r0, r0, r4, lsr #32
 1f0:	000001b4 			; <UNDEFINED> instruction: 0x000001b4
 1f4:	08000888 	stmdaeq	r0, {r3, r7, fp}
 1f8:	000000fa 	strdeq	r0, [r0], -sl
 1fc:	840c0e41 	strhi	r0, [ip], #-3649	; 0xfffff1bf
 200:	8e028703 	cdphi	7, 0, cr8, cr2, cr3, {0}
 204:	200e4101 	andcs	r4, lr, r1, lsl #2
 208:	02070d41 	andeq	r0, r7, #4160	; 0x1040
 20c:	410c0e78 	tstmi	ip, r8, ror lr
 210:	00000d0d 	andeq	r0, r0, sp, lsl #26
 214:	00000024 	andeq	r0, r0, r4, lsr #32
 218:	000001b4 			; <UNDEFINED> instruction: 0x000001b4
 21c:	00000000 	andeq	r0, r0, r0
 220:	000000fc 	strdeq	r0, [r0], -ip
 224:	87040e41 	strhi	r0, [r4, -r1, asr #28]
 228:	100e4101 	andne	r4, lr, r1, lsl #2
 22c:	02070d41 	andeq	r0, r7, #4160	; 0x1040
 230:	41040e6b 	tstmi	r4, fp, ror #28
 234:	c7410d0d 	strbgt	r0, [r1, -sp, lsl #26]
 238:	0000000e 	andeq	r0, r0, lr
 23c:	00000024 	andeq	r0, r0, r4, lsr #32
 240:	000001b4 			; <UNDEFINED> instruction: 0x000001b4
 244:	00000000 	andeq	r0, r0, r0
 248:	0000002e 	andeq	r0, r0, lr, lsr #32
 24c:	87040e41 	strhi	r0, [r4, -r1, asr #28]
 250:	180e4101 	stmdane	lr, {r0, r8, lr}
 254:	51070d41 	tstpl	r7, r1, asr #26
 258:	0d41040e 	cfstrdeq	mvd0, [r1, #-56]	; 0xffffffc8
 25c:	0ec7410d 	poleqs	f4, f7, #5.0
 260:	00000000 	andeq	r0, r0, r0
 264:	00000024 	andeq	r0, r0, r4, lsr #32
 268:	000001b4 			; <UNDEFINED> instruction: 0x000001b4
 26c:	00000000 	andeq	r0, r0, r0
 270:	0000001a 	andeq	r0, r0, sl, lsl r0
 274:	87040e41 	strhi	r0, [r4, -r1, asr #28]
 278:	180e4101 	stmdane	lr, {r0, r8, lr}
 27c:	47070d41 	strmi	r0, [r7, -r1, asr #26]
 280:	0d41040e 	cfstrdeq	mvd0, [r1, #-56]	; 0xffffffc8
 284:	0ec7410d 	poleqs	f4, f7, #5.0
 288:	00000000 	andeq	r0, r0, r0
 28c:	00000024 	andeq	r0, r0, r4, lsr #32
 290:	000001b4 			; <UNDEFINED> instruction: 0x000001b4
 294:	00000000 	andeq	r0, r0, r0
 298:	0000002e 	andeq	r0, r0, lr, lsr #32
 29c:	87040e41 	strhi	r0, [r4, -r1, asr #28]
 2a0:	100e4101 	andne	r4, lr, r1, lsl #2
 2a4:	51070d41 	tstpl	r7, r1, asr #26
 2a8:	0d41040e 	cfstrdeq	mvd0, [r1, #-56]	; 0xffffffc8
 2ac:	0ec7410d 	poleqs	f4, f7, #5.0
 2b0:	00000000 	andeq	r0, r0, r0
 2b4:	00000024 	andeq	r0, r0, r4, lsr #32
 2b8:	000001b4 			; <UNDEFINED> instruction: 0x000001b4
 2bc:	00000000 	andeq	r0, r0, r0
 2c0:	00000022 	andeq	r0, r0, r2, lsr #32
 2c4:	87040e41 	strhi	r0, [r4, -r1, asr #28]
 2c8:	100e4101 	andne	r4, lr, r1, lsl #2
 2cc:	4b070d41 	blmi	1c37d8 <_Min_Stack_Size+0x1c33d8>
 2d0:	0d41040e 	cfstrdeq	mvd0, [r1, #-56]	; 0xffffffc8
 2d4:	0ec7410d 	poleqs	f4, f7, #5.0
 2d8:	00000000 	andeq	r0, r0, r0
 2dc:	00000024 	andeq	r0, r0, r4, lsr #32
 2e0:	000001b4 			; <UNDEFINED> instruction: 0x000001b4
 2e4:	00000000 	andeq	r0, r0, r0
 2e8:	00000028 	andeq	r0, r0, r8, lsr #32
 2ec:	87040e41 	strhi	r0, [r4, -r1, asr #28]
 2f0:	100e4101 	andne	r4, lr, r1, lsl #2
 2f4:	4e070d41 	cdpmi	13, 0, cr0, cr7, cr1, {2}
 2f8:	0d41040e 	cfstrdeq	mvd0, [r1, #-56]	; 0xffffffc8
 2fc:	0ec7410d 	poleqs	f4, f7, #5.0
 300:	00000000 	andeq	r0, r0, r0
 304:	00000024 	andeq	r0, r0, r4, lsr #32
 308:	000001b4 			; <UNDEFINED> instruction: 0x000001b4
 30c:	00000000 	andeq	r0, r0, r0
 310:	0000004e 	andeq	r0, r0, lr, asr #32
 314:	87040e41 	strhi	r0, [r4, -r1, asr #28]
 318:	180e4101 	stmdane	lr, {r0, r8, lr}
 31c:	61070d41 	tstvs	r7, r1, asr #26
 320:	0d41040e 	cfstrdeq	mvd0, [r1, #-56]	; 0xffffffc8
 324:	0ec7410d 	poleqs	f4, f7, #5.0
 328:	00000000 	andeq	r0, r0, r0
 32c:	0000000c 	andeq	r0, r0, ip
 330:	ffffffff 			; <UNDEFINED> instruction: 0xffffffff
 334:	7c020001 	stcvc	0, cr0, [r2], {1}
 338:	000d0c0e 	andeq	r0, sp, lr, lsl #24
 33c:	0000001c 	andeq	r0, r0, ip, lsl r0
 340:	0000032c 	andeq	r0, r0, ip, lsr #6
 344:	08000984 	stmdaeq	r0, {r2, r7, r8, fp}
 348:	00000024 	andeq	r0, r0, r4, lsr #32
 34c:	87040e41 	strhi	r0, [r4, -r1, asr #28]
 350:	070d4101 	streq	r4, [sp, -r1, lsl #2]
 354:	410d0d49 	tstmi	sp, r9, asr #26
 358:	00000ec7 	andeq	r0, r0, r7, asr #29
 35c:	0000001c 	andeq	r0, r0, ip, lsl r0
 360:	0000032c 	andeq	r0, r0, ip, lsr #6
 364:	080009a8 	stmdaeq	r0, {r3, r5, r7, r8, fp}
 368:	00000078 	andeq	r0, r0, r8, ror r0
 36c:	87080e41 	strhi	r0, [r8, -r1, asr #28]
 370:	41018e02 	tstmi	r1, r2, lsl #28
 374:	0d41280e 	stcleq	8, cr2, [r1, #-56]	; 0xffffffc8
 378:	00000007 	andeq	r0, r0, r7
 37c:	0000000c 	andeq	r0, r0, ip
 380:	ffffffff 			; <UNDEFINED> instruction: 0xffffffff
 384:	7c020001 	stcvc	0, cr0, [r2], {1}
 388:	000d0c0e 	andeq	r0, sp, lr, lsl #24
 38c:	00000018 	andeq	r0, r0, r8, lsl r0
 390:	0000037c 	andeq	r0, r0, ip, ror r3
 394:	08000a74 	stmdaeq	r0, {r2, r4, r5, r6, r9, fp}
 398:	00000048 	andeq	r0, r0, r8, asr #32
 39c:	84100e41 	ldrhi	r0, [r0], #-3649	; 0xfffff1bf
 3a0:	86038504 	strhi	r8, [r3], -r4, lsl #10
 3a4:	00018e02 	andeq	r8, r1, r2, lsl #28
